
count_binary.elf:     file format elf32-littlenios2
count_binary.elf
architecture: nios2:r1, flags 0x00000112:
EXEC_P, HAS_SYMS, D_PAGED
start address 0x00800238

Program Header:
    LOAD off    0x00001000 vaddr 0x00800000 paddr 0x00800000 align 2**12
         filesz 0x00000020 memsz 0x00000020 flags r-x
    LOAD off    0x00001020 vaddr 0x00800020 paddr 0x00800020 align 2**12
         filesz 0x00011300 memsz 0x00011300 flags r-x
    LOAD off    0x00012320 vaddr 0x00811320 paddr 0x00812f0c align 2**12
         filesz 0x00001bec memsz 0x00001bec flags rw-
    LOAD off    0x00014af8 vaddr 0x00814af8 paddr 0x00814af8 align 2**12
         filesz 0x00000000 memsz 0x00000158 flags rw-

Sections:
Idx Name          Size      VMA       LMA       File off  Algn
  0 .entry        00000020  00800000  00800000  00001000  2**5
                  CONTENTS, ALLOC, LOAD, READONLY, CODE
  1 .exceptions   00000218  00800020  00800020  00001020  2**2
                  CONTENTS, ALLOC, LOAD, READONLY, CODE
  2 .text         00010a30  00800238  00800238  00001238  2**2
                  CONTENTS, ALLOC, LOAD, READONLY, CODE
  3 .rodata       000006b8  00810c68  00810c68  00011c68  2**2
                  CONTENTS, ALLOC, LOAD, READONLY, DATA
  4 .rwdata       00001bec  00811320  00812f0c  00012320  2**2
                  CONTENTS, ALLOC, LOAD, DATA, SMALL_DATA
  5 .bss          00000158  00814af8  00814af8  00014af8  2**2
                  ALLOC, SMALL_DATA
  6 .sdram        00000000  00814c50  00814c50  00013f0c  2**0
                  CONTENTS
  7 .comment      0000002c  00000000  00000000  00013f0c  2**0
                  CONTENTS, READONLY
  8 .debug_aranges 00001128  00000000  00000000  00013f38  2**3
                  CONTENTS, READONLY, DEBUGGING
  9 .debug_info   0004eac9  00000000  00000000  00015060  2**0
                  CONTENTS, READONLY, DEBUGGING
 10 .debug_abbrev 00010342  00000000  00000000  00063b29  2**0
                  CONTENTS, READONLY, DEBUGGING
 11 .debug_line   0001bc9d  00000000  00000000  00073e6b  2**0
                  CONTENTS, READONLY, DEBUGGING
 12 .debug_frame  00002554  00000000  00000000  0008fb08  2**2
                  CONTENTS, READONLY, DEBUGGING
 13 .debug_str    0000453a  00000000  00000000  0009205c  2**0
                  CONTENTS, READONLY, DEBUGGING
 14 .debug_loc    00020423  00000000  00000000  00096596  2**0
                  CONTENTS, READONLY, DEBUGGING
 15 .debug_alt_sim_info 00000030  00000000  00000000  000b69bc  2**2
                  CONTENTS, READONLY, DEBUGGING
 16 .debug_ranges 00002290  00000000  00000000  000b69f0  2**3
                  CONTENTS, READONLY, DEBUGGING
 17 .thread_model 00000003  00000000  00000000  000bc202  2**0
                  CONTENTS, READONLY
 18 .cpu          00000003  00000000  00000000  000bc205  2**0
                  CONTENTS, READONLY
 19 .qsys         00000001  00000000  00000000  000bc208  2**0
                  CONTENTS, READONLY
 20 .simulation_enabled 00000001  00000000  00000000  000bc209  2**0
                  CONTENTS, READONLY
 21 .sysid_hash   00000004  00000000  00000000  000bc20a  2**0
                  CONTENTS, READONLY
 22 .sysid_base   00000004  00000000  00000000  000bc20e  2**0
                  CONTENTS, READONLY
 23 .sysid_time   00000004  00000000  00000000  000bc212  2**0
                  CONTENTS, READONLY
 24 .stderr_dev   00000009  00000000  00000000  000bc216  2**0
                  CONTENTS, READONLY
 25 .stdin_dev    00000009  00000000  00000000  000bc21f  2**0
                  CONTENTS, READONLY
 26 .stdout_dev   00000009  00000000  00000000  000bc228  2**0
                  CONTENTS, READONLY
 27 .sopc_system_name 00000012  00000000  00000000  000bc231  2**0
                  CONTENTS, READONLY
 28 .quartus_project_dir 0000003e  00000000  00000000  000bc243  2**0
                  CONTENTS, READONLY
 29 .jdi          00005099  00000000  00000000  000bc281  2**0
                  CONTENTS, READONLY
 30 .sopcinfo     0003b0ff  00000000  00000000  000c131a  2**0
                  CONTENTS, READONLY
SYMBOL TABLE:
00800000 l    d  .entry	00000000 .entry
00800020 l    d  .exceptions	00000000 .exceptions
00800238 l    d  .text	00000000 .text
00810c68 l    d  .rodata	00000000 .rodata
00811320 l    d  .rwdata	00000000 .rwdata
00814af8 l    d  .bss	00000000 .bss
00814c50 l    d  .sdram	00000000 .sdram
00000000 l    d  .comment	00000000 .comment
00000000 l    d  .debug_aranges	00000000 .debug_aranges
00000000 l    d  .debug_info	00000000 .debug_info
00000000 l    d  .debug_abbrev	00000000 .debug_abbrev
00000000 l    d  .debug_line	00000000 .debug_line
00000000 l    d  .debug_frame	00000000 .debug_frame
00000000 l    d  .debug_str	00000000 .debug_str
00000000 l    d  .debug_loc	00000000 .debug_loc
00000000 l    d  .debug_alt_sim_info	00000000 .debug_alt_sim_info
00000000 l    d  .debug_ranges	00000000 .debug_ranges
00000000 l    df *ABS*	00000000 ../count_binary_bsp//obj/HAL/src/crt0.o
00800280 l       .text	00000000 alt_after_alt_main
00000000 l    df *ABS*	00000000 alt_irq_handler.c
00000000 l    df *ABS*	00000000 alt_instruction_exception_entry.c
00000000 l    df *ABS*	00000000 count_binary.c
00000000 l    df *ABS*	00000000 addsf3.c
00000000 l    df *ABS*	00000000 mulsf3.c
00000000 l    df *ABS*	00000000 subsf3.c
00000000 l    df *ABS*	00000000 extendsfdf2.c
00000000 l    df *ABS*	00000000 libgcc2.c
00000000 l    df *ABS*	00000000 lib2-mul.c
00000000 l    df *ABS*	00000000 libgcc2.c
00000000 l    df *ABS*	00000000 printf.c
00000000 l    df *ABS*	00000000 puts.c
00000000 l    df *ABS*	00000000 strlen.c
00000000 l    df *ABS*	00000000 vfprintf.c
00803810 l     F .text	000000c0 __sbprintf
00810e28 l     O .rodata	00000010 blanks.5176
00810e18 l     O .rodata	00000010 zeroes.5177
00000000 l    df *ABS*	00000000 wsetup.c
00000000 l    df *ABS*	00000000 dtoa.c
00803a2c l     F .text	00000220 quorem
00000000 l    df *ABS*	00000000 fflush.c
00000000 l    df *ABS*	00000000 findfp.c
0080564c l     F .text	00000008 __fp_lock
00805660 l     F .text	00000168 __sinit.part.0
008057c8 l     F .text	00000008 __fp_unlock
00000000 l    df *ABS*	00000000 mallocr.c
00000000 l    df *ABS*	00000000 fvwrite.c
00000000 l    df *ABS*	00000000 fwalk.c
00000000 l    df *ABS*	00000000 impure.c
00811320 l     O .rwdata	00000424 impure_data
00000000 l    df *ABS*	00000000 localeconv.c
00000000 l    df *ABS*	00000000 makebuf.c
00000000 l    df *ABS*	00000000 mallocr.c
00000000 l    df *ABS*	00000000 memchr.c
00000000 l    df *ABS*	00000000 memcpy.c
00000000 l    df *ABS*	00000000 memmove.c
00000000 l    df *ABS*	00000000 memset.c
00000000 l    df *ABS*	00000000 mprec.c
00810edc l     O .rodata	0000000c p05.3991
00000000 l    df *ABS*	00000000 mallocr.c
00000000 l    df *ABS*	00000000 sbrkr.c
00000000 l    df *ABS*	00000000 stdio.c
00000000 l    df *ABS*	00000000 vfprintf.c
008089c0 l     F .text	000000f4 __sprint_r.part.0
00809dfc l     F .text	000000c0 __sbprintf
00811010 l     O .rodata	00000010 blanks.5153
00811000 l     O .rodata	00000010 zeroes.5154
00000000 l    df *ABS*	00000000 writer.c
00000000 l    df *ABS*	00000000 closer.c
00000000 l    df *ABS*	00000000 assert.c
00000000 l    df *ABS*	00000000 mallocr.c
00000000 l    df *ABS*	00000000 fclose.c
00000000 l    df *ABS*	00000000 fiprintf.c
00000000 l    df *ABS*	00000000 fputwc.c
00000000 l    df *ABS*	00000000 fstatr.c
00000000 l    df *ABS*	00000000 int_errno.c
00000000 l    df *ABS*	00000000 isattyr.c
00000000 l    df *ABS*	00000000 locale.c
00000000 l    df *ABS*	00000000 lseekr.c
00000000 l    df *ABS*	00000000 mbtowc_r.c
00000000 l    df *ABS*	00000000 readr.c
00000000 l    df *ABS*	00000000 strcmp.c
00000000 l    df *ABS*	00000000 vfiprintfr_1.c
00000000 l    df *ABS*	00000000 wbuf.c
00000000 l    df *ABS*	00000000 wcrtomb.c
00000000 l    df *ABS*	00000000 wctomb_r.c
00000000 l    df *ABS*	00000000 abort.c
00000000 l    df *ABS*	00000000 ctype_.c
00000000 l    df *ABS*	00000000 signal.c
0080a9e0 l     F .text	0000004c _init_signal_r.part.0
00000000 l    df *ABS*	00000000 signalr.c
00000000 l    df *ABS*	00000000 libgcc2.c
00000000 l    df *ABS*	00000000 libgcc2.c
00000000 l    df *ABS*	00000000 lib2-divmod.c
00000000 l    df *ABS*	00000000 adddf3.c
00000000 l    df *ABS*	00000000 divdf3.c
00000000 l    df *ABS*	00000000 eqdf2.c
00000000 l    df *ABS*	00000000 gedf2.c
00000000 l    df *ABS*	00000000 ledf2.c
00000000 l    df *ABS*	00000000 muldf3.c
00000000 l    df *ABS*	00000000 subdf3.c
00000000 l    df *ABS*	00000000 unorddf2.c
00000000 l    df *ABS*	00000000 fixdfsi.c
00000000 l    df *ABS*	00000000 floatsidf.c
00000000 l    df *ABS*	00000000 floatunsidf.c
00000000 l    df *ABS*	00000000 alt_close.c
0080e294 l     F .text	0000003c alt_get_errno
00000000 l    df *ABS*	00000000 alt_dev.c
0080e3ac l     F .text	0000002c alt_dev_null_write
00000000 l    df *ABS*	00000000 alt_errno.c
00000000 l    df *ABS*	00000000 alt_exit.c
00000000 l    df *ABS*	00000000 alt_fstat.c
0080e410 l     F .text	0000003c alt_get_errno
00000000 l    df *ABS*	00000000 alt_getpid.c
00000000 l    df *ABS*	00000000 alt_isatty.c
0080e528 l     F .text	0000003c alt_get_errno
00000000 l    df *ABS*	00000000 alt_kill.c
0080e614 l     F .text	0000003c alt_get_errno
00000000 l    df *ABS*	00000000 alt_load.c
0080e77c l     F .text	00000068 alt_load_section
00000000 l    df *ABS*	00000000 alt_lseek.c
0080e868 l     F .text	0000003c alt_get_errno
00000000 l    df *ABS*	00000000 alt_main.c
00000000 l    df *ABS*	00000000 alt_malloc_lock.c
00000000 l    df *ABS*	00000000 alt_read.c
0080ea48 l     F .text	0000003c alt_get_errno
00000000 l    df *ABS*	00000000 alt_release_fd.c
00000000 l    df *ABS*	00000000 alt_sbrk.c
00812efc l     O .rwdata	00000004 heap_end
00000000 l    df *ABS*	00000000 alt_tick.c
00000000 l    df *ABS*	00000000 alt_times.c
0080ee60 l     F .text	0000003c alt_get_errno
00000000 l    df *ABS*	00000000 alt_write.c
0080ef14 l     F .text	0000003c alt_get_errno
00000000 l    df *ABS*	00000000 alt_sys_init.c
0080f054 l     F .text	00000034 alt_dev_reg
00811e60 l     O .rwdata	00001060 jtag_uart
00000000 l    df *ABS*	00000000 altera_avalon_jtag_uart_fd.c
00000000 l    df *ABS*	00000000 altera_avalon_jtag_uart_init.c
0080f34c l     F .text	0000020c altera_avalon_jtag_uart_irq
0080f558 l     F .text	000000a0 altera_avalon_jtag_uart_timeout
00000000 l    df *ABS*	00000000 altera_avalon_jtag_uart_ioctl.c
00000000 l    df *ABS*	00000000 altera_avalon_jtag_uart_read.c
00000000 l    df *ABS*	00000000 altera_avalon_jtag_uart_write.c
00000000 l    df *ABS*	00000000 altera_avalon_timer_sc.c
0080fb9c l     F .text	0000007c alt_avalon_timer_sc_irq
00000000 l    df *ABS*	00000000 alt_alarm_start.c
00000000 l    df *ABS*	00000000 alt_dcache_flush_all.c
00000000 l    df *ABS*	00000000 alt_dev_llist_insert.c
0080fe1c l     F .text	0000003c alt_get_errno
00000000 l    df *ABS*	00000000 alt_do_ctors.c
00000000 l    df *ABS*	00000000 alt_do_dtors.c
00000000 l    df *ABS*	00000000 alt_icache_flush_all.c
00000000 l    df *ABS*	00000000 alt_iic.c
00000000 l    df *ABS*	00000000 alt_iic_isr_register.c
00000000 l    df *ABS*	00000000 alt_io_redirect.c
00810294 l     F .text	000000d4 alt_open_fd
00000000 l    df *ABS*	00000000 alt_irq_vars.c
00000000 l    df *ABS*	00000000 alt_open.c
008103e4 l     F .text	0000003c alt_get_errno
00810420 l     F .text	000000dc alt_file_locked
00000000 l    df *ABS*	00000000 altera_nios2_gen2_irq.c
00000000 l    df *ABS*	00000000 alt_find_dev.c
00000000 l    df *ABS*	00000000 alt_find_file.c
00000000 l    df *ABS*	00000000 alt_get_fd.c
00000000 l    df *ABS*	00000000 alt_icache_flush.c
00000000 l    df *ABS*	00000000 atexit.c
00000000 l    df *ABS*	00000000 exit.c
00000000 l    df *ABS*	00000000 memcmp.c
00000000 l    df *ABS*	00000000 __atexit.c
00000000 l    df *ABS*	00000000 __call_atexit.c
00814b24 g     O .bss	00000004 alt_instruction_exception_handler
00808188 g     F .text	00000070 _mprec_log10
00808264 g     F .text	00000060 __any_on
0080a474 g     F .text	00000058 _isatty_r
00810ee8 g     O .rodata	00000028 __mprec_tinytens
0080e984 g     F .text	0000007c alt_main
00801594 g     F .text	000000cc _puts_r
00814b50 g     O .bss	00000100 alt_irq
0080a564 g     F .text	00000064 _lseek_r
00812f0c g       *ABS*	00000000 __flash_rwdata_start
0080cd38 g     F .text	00000080 .hidden __eqdf2
00814c50 g       *ABS*	00000000 __alt_heap_start
00812ec8 g     O .rwdata	00000004 c_term1
0080ac94 g     F .text	00000060 _kill_r
0080155c g     F .text	00000038 printf
0080a898 g     F .text	0000006c _wcrtomb_r
0080aa40 g     F .text	00000084 _signal_r
0080895c g     F .text	0000005c __sseek
00805958 g     F .text	00000010 __sinit
0080a738 g     F .text	00000148 __swbuf_r
0080a4cc g     F .text	00000074 _setlocale_r
008057d0 g     F .text	00000078 __sfmoreglue
0080ea24 g     F .text	00000024 __malloc_unlock
00806f70 g     F .text	0000012c memmove
00805944 g     F .text	00000014 _cleanup
0080718c g     F .text	000000a4 _Balloc
0080cdb8 g     F .text	000000f0 .hidden __gtdf2
0081065c g     F .text	00000024 altera_nios2_gen2_irq_init
00800000 g     F .entry	0000001c __reset
0080ee9c g     F .text	00000078 times
008063c4 g     F .text	00000008 __localeconv_l
00800020 g       *ABS*	00000000 __flash_exceptions_start
0080a414 g     F .text	00000060 _fstat_r
00814b04 g     O .bss	00000004 errno
008088d4 g     F .text	00000008 __seofread
00814b10 g     O .bss	00000004 alt_argv
0081aec0 g       *ABS*	00000000 _gp
00800f30 g     F .text	00000484 .hidden __subsf3
0080e508 g     F .text	00000020 getpid
00811ce0 g     O .rwdata	00000180 alt_fd_list
00810680 g     F .text	00000090 alt_find_dev
00806e70 g     F .text	00000100 memcpy
00805654 g     F .text	0000000c _cleanup_r
0080e148 g     F .text	000000bc .hidden __floatsidf
00810368 g     F .text	0000007c alt_io_redirect
0080cea8 g     F .text	000000f0 .hidden __ltdf2
00810c68 g       *ABS*	00000000 __DTOR_END__
00801660 g     F .text	00000010 puts
00810960 g     F .text	00000098 alt_exception_cause_generated_bad_addr
008080e4 g     F .text	000000a4 __ratio
00809de0 g     F .text	0000001c __vfiprintf_internal
0080f754 g     F .text	00000220 altera_avalon_jtag_uart_read
0080152c g     F .text	00000030 _printf_r
0080b9cc g     F .text	00000064 .hidden __udivsi3
0080e564 g     F .text	000000b0 isatty
0080aac4 g     F .text	000000c4 _raise_r
00809f78 g     F .text	00000064 __assert_func
00810f38 g     O .rodata	000000c8 __mprec_tens
008108d0 g     F .text	00000090 alt_icache_flush
00814b00 g     O .bss	00000004 __malloc_top_pad
0080acf4 g     F .text	00000004 _getpid_r
008063cc g     F .text	0000000c _localeconv_r
008075fc g     F .text	00000054 __i2b
00805db8 g     F .text	000004cc __sfvwrite_r
0080ab88 g     F .text	000000b8 __sigtramp_r
00808828 g     F .text	00000058 _sbrk_r
0080a618 g     F .text	00000064 _read_r
00812ef4 g     O .rwdata	00000004 alt_max_fd
0080a0b4 g     F .text	000000f8 _fclose_r
00805624 g     F .text	00000028 fflush
00814afc g     O .bss	00000004 __malloc_max_sbrked_mem
008013b4 g     F .text	000000fc .hidden __extendsfdf2
0080ba8c g     F .text	00000978 .hidden __adddf3
00807e7c g     F .text	00000104 __b2d
0080b314 g     F .text	000005c4 .hidden __umoddi3
0080e8a4 g     F .text	000000e0 lseek
00812ed4 g     O .rwdata	00000004 _global_impure_ptr
008082c4 g     F .text	00000564 _realloc_r
00814c50 g       *ABS*	00000000 __bss_end
008101ac g     F .text	000000e8 alt_iic_isr_register
0080ed58 g     F .text	00000108 alt_tick
0080acf8 g     F .text	0000061c .hidden __udivdi3
0080a378 g     F .text	00000024 _fputwc_r
00810f10 g     O .rodata	00000028 __mprec_bigtens
008073b0 g     F .text	00000138 __s2b
0080a9c8 g     F .text	00000018 abort
0080e204 g     F .text	00000090 .hidden __floatunsidf
00807b9c g     F .text	00000058 __mcmp
00805978 g     F .text	00000014 __fp_lock_all
00810160 g     F .text	0000004c alt_ic_irq_enabled
0080ecb4 g     F .text	000000a4 alt_alarm_stop
00814b20 g     O .bss	00000004 alt_irq_active
008000fc g     F .exceptions	000000c8 alt_irq_handler
00811cb8 g     O .rwdata	00000028 alt_dev_null
0080fdd0 g     F .text	0000004c alt_dcache_flush_all
008074e8 g     F .text	00000064 __hi0bits
0080e0c8 g     F .text	00000080 .hidden __fixdfsi
00812f0c g       *ABS*	00000000 __ram_rwdata_end
00812eec g     O .rwdata	00000008 alt_dev_list
0080ef50 g     F .text	00000104 write
00811320 g       *ABS*	00000000 __ram_rodata_end
0080e44c g     F .text	000000bc fstat
0080e650 g     F .text	0000012c kill
0080cea8 g     F .text	000000f0 .hidden __ledf2
00800358 g     F .text	0000015c theFunction
008078fc g     F .text	00000118 __pow5mult
00808acc g     F .text	00001314 ___vfiprintf_internal_r
0080ba30 g     F .text	0000005c .hidden __umodsi3
00814c50 g       *ABS*	00000000 end
0080f28c g     F .text	000000c0 altera_avalon_jtag_uart_init
008001c4 g     F .exceptions	00000074 alt_instruction_exception_entry
00810c68 g       *ABS*	00000000 __CTOR_LIST__
01000000 g       *ABS*	00000000 __alt_stack_pointer
0080fc18 g     F .text	00000084 alt_avalon_timer_sc_init
008014b0 g     F .text	00000054 .hidden __clzsi2
0080f974 g     F .text	00000228 altera_avalon_jtag_uart_write
00805968 g     F .text	00000004 __sfp_lock_acquire
00806d9c g     F .text	000000d4 memchr
00801708 g     F .text	000020ec ___vfprintf_internal_r
00805abc g     F .text	000002fc _free_r
00811174 g     O .rodata	00000180 _ctype_b
0080a540 g     F .text	0000000c __locale_mb_cur_max
00810b48 g     F .text	00000120 __call_exitprocs
00812edc g     O .rwdata	00000004 __malloc_sbrk_base
00800238 g     F .text	0000004c _start
00814b18 g     O .bss	00000004 _alt_tick_rate
00807a14 g     F .text	00000188 __lshift
00814b1c g     O .bss	00000004 _alt_nticks
0080ac50 g     F .text	00000018 signal
0080ea84 g     F .text	00000108 read
0080f0c4 g     F .text	00000064 alt_sys_init
00810ab8 g     F .text	00000090 __register_exitproc
00807650 g     F .text	000002ac __multiply
0080f5f8 g     F .text	00000068 altera_avalon_jtag_uart_close
00801504 g     F .text	00000028 .hidden __mulsi3
00811320 g       *ABS*	00000000 __ram_rwdata_start
00810c68 g       *ABS*	00000000 __ram_rodata_start
00814b28 g     O .bss	00000028 __malloc_current_mallinfo
00807f80 g     F .text	00000164 __d2b
00812ec4 g     O .rwdata	00000004 c_term2
0080f128 g     F .text	00000060 altera_avalon_jtag_uart_read_fd
00810818 g     F .text	000000b8 alt_get_fd
00809f20 g     F .text	00000058 _close_r
00800284 g     F .text	0000004c generateVector
00810a40 g     F .text	00000078 memcmp
0080f1e8 g     F .text	00000050 altera_avalon_jtag_uart_close_fd
00814c50 g       *ABS*	00000000 __alt_stack_base
0080f238 g     F .text	00000054 altera_avalon_jtag_uart_ioctl_fd
008038d0 g     F .text	0000015c __swsetup_r
0080c404 g     F .text	00000934 .hidden __divdf3
00805848 g     F .text	000000fc __sfp
008081f8 g     F .text	0000006c __copybits
00811744 g     O .rwdata	00000408 __malloc_av_
00805974 g     F .text	00000004 __sinit_lock_release
0080cf98 g     F .text	000007a8 .hidden __muldf3
00808880 g     F .text	00000054 __sread
00810710 g     F .text	00000108 alt_find_file
0080fe58 g     F .text	000000a8 alt_dev_llist_insert
0080ea00 g     F .text	00000024 __malloc_lock
0080ebfc g     F .text	000000b8 sbrk
008055c4 g     F .text	00000060 _fflush_r
00809ff0 g     F .text	000000c4 _calloc_r
00814af8 g       *ABS*	00000000 __bss_start
0080709c g     F .text	000000f0 memset
008004b4 g     F .text	00000224 main
00814b14 g     O .bss	00000004 alt_envp
00814af8 g     O .bss	00000004 __malloc_max_total_mem
0080f188 g     F .text	00000060 altera_avalon_jtag_uart_write_fd
0080a880 g     F .text	00000018 __swbuf
008089b8 g     F .text	00000008 __sclose
01000000 g       *ABS*	00000000 __alt_heap_limit
0080a1ac g     F .text	00000010 fclose
00803c4c g     F .text	00001750 _dtoa_r
008065bc g     F .text	000007e0 _malloc_r
0080a998 g     F .text	00000030 __ascii_wctomb
00812ef8 g     O .rwdata	00000004 alt_errno
0080a1bc g     F .text	00000020 _fiprintf_r
0080ac68 g     F .text	0000001c _init_signal
00806284 g     F .text	00000098 _fwalk
0080a5c8 g     F .text	0000000c _mbtowc_r
0080b8d8 g     F .text	00000080 .hidden __divsi3
008059a0 g     F .text	0000011c _malloc_trim_r
00810c68 g       *ABS*	00000000 __CTOR_END__
00800b34 g     F .text	000003fc .hidden __mulsf3
0080a67c g     F .text	000000b8 strcmp
00810c68 g       *ABS*	00000000 __flash_rodata_start
00810c68 g       *ABS*	00000000 __DTOR_LIST__
0080cd38 g     F .text	00000080 .hidden __nedf2
0080f088 g     F .text	0000003c alt_irq_init
0080eb8c g     F .text	00000070 alt_release_fd
00810cd4 g     O .rodata	00000100 .hidden __clz_tab
00814b08 g     O .bss	00000004 _PathLocale
008109f8 g     F .text	00000014 atexit
008002d0 g     F .text	00000088 sumVector
00809ebc g     F .text	00000064 _write_r
00812ecc g     O .rwdata	00000004 coeff2
0080a54c g     F .text	00000018 setlocale
00812ed8 g     O .rwdata	00000004 _impure_ptr
00814b0c g     O .bss	00000004 alt_argc
0080539c g     F .text	00000228 __sflush_r
0080ff64 g     F .text	00000064 _do_dtors
00812ec0 g     O .rwdata	00000004 c_term3
00800020 g       .exceptions	00000000 alt_irq_entry
0080a5d4 g     F .text	00000044 __ascii_mbtowc
00807e20 g     F .text	0000005c __ulp
0080598c g     F .text	00000014 __fp_unlock_all
00812ee4 g     O .rwdata	00000008 alt_fs_list
00800020 g       *ABS*	00000000 __ram_exceptions_start
008063d8 g     F .text	0000000c localeconv
008063e4 g     F .text	00000098 __swhatbuf_r
0080fffc g     F .text	00000050 alt_ic_isr_register
00812f0c g       *ABS*	00000000 _edata
00814c50 g       *ABS*	00000000 _end
0080a214 g     F .text	00000164 __fputwc
00800238 g       *ABS*	00000000 __ram_exceptions_end
0080f660 g     F .text	000000f4 altera_avalon_jtag_uart_ioctl
008100d4 g     F .text	0000008c alt_ic_irq_disable
008088dc g     F .text	00000080 __swrite
00812ee0 g     O .rwdata	00000004 __malloc_trim_threshold
00810a0c g     F .text	00000034 exit
0080a1dc g     F .text	00000038 fiprintf
0080a734 g     F .text	00000004 _vfiprintf_r
0080631c g     F .text	000000a8 _fwalk_reent
00807bf4 g     F .text	0000022c __mdiff
0080b958 g     F .text	00000074 .hidden __modsi3
01000000 g       *ABS*	00000000 __alt_data_end
00800020 g     F .exceptions	00000000 alt_exception
0080596c g     F .text	00000004 __sfp_lock_release
00800000 g       *ABS*	00000000 __alt_mem_sdram
00811070 g     O .rodata	00000101 _ctype_
0080e074 g     F .text	00000054 .hidden __unorddf2
0080e3d8 g     F .text	00000038 _exit
0080fc9c g     F .text	00000134 alt_alarm_start
0080647c g     F .text	00000140 __smakebuf_r
00801670 g     F .text	00000098 strlen
0080aa2c g     F .text	00000014 _init_signal_r
008104fc g     F .text	00000160 open
0080cdb8 g     F .text	000000f0 .hidden __gedf2
00809fdc g     F .text	00000014 __assert
00808ab4 g     F .text	00000018 __sprint_r
0080ffc8 g     F .text	00000034 alt_icache_flush_all
00812f08 g     O .rwdata	00000004 alt_priority_mask
0081004c g     F .text	00000088 alt_ic_irq_enable
008037f4 g     F .text	0000001c __vfprintf_internal
0080a98c g     F .text	0000000c _wctomb_r
0080d740 g     F .text	00000934 .hidden __subdf3
0080754c g     F .text	000000b0 __lo0bits
00812f00 g     O .rwdata	00000008 alt_alarm_list
0080ff00 g     F .text	00000064 _do_ctors
0080ac84 g     F .text	00000010 __sigtramp
0080a904 g     F .text	00000088 wcrtomb
00812ed0 g     O .rwdata	00000004 coeff1
0080e2d0 g     F .text	000000dc close
008006d8 g     F .text	0000045c .hidden __addsf3
00811b4c g     O .rwdata	0000016c __global_locale
0080e7e4 g     F .text	00000084 alt_load
0080a39c g     F .text	00000078 fputwc
0080ac40 g     F .text	00000010 raise
00805970 g     F .text	00000004 __sinit_lock_acquire
00807254 g     F .text	0000015c __multadd
00807230 g     F .text	00000024 _Bfree



Disassembly of section .entry:

00800000 <__reset>:
#if NIOS2_ICACHE_SIZE > 0 && defined(ALT_ALLOW_CODE_AT_RESET) && (!defined(ALT_SIM_OPTIMIZE) || defined(NIOS2_ECC_PRESENT))
    /* Assume the instruction cache size is always a power of two. */
#if NIOS2_ICACHE_SIZE > 0x8000
    movhi r2, %hi(NIOS2_ICACHE_SIZE)
#else
    movui r2, NIOS2_ICACHE_SIZE
  800000:	00820014 	movui	r2,2048
#endif

0:
    initi r2
  800004:	1001483a 	initi	r2
    addi r2, r2, -NIOS2_ICACHE_LINE_SIZE
  800008:	10bff804 	addi	r2,r2,-32
    bgt r2, zero, 0b
  80000c:	00bffd16 	blt	zero,r2,800004 <__reset+0x4>
 * Jump to the _start entry point in the .text section if reset code
 * is allowed or if optimizing for RTL simulation.
 */
#if defined(ALT_ALLOW_CODE_AT_RESET) || defined(ALT_SIM_OPTIMIZE)
    /* Jump to the _start entry point in the .text section. */
    movhi r1, %hi(_start)
  800010:	00402034 	movhi	at,128
    ori r1, r1, %lo(_start)
  800014:	08408e14 	ori	at,at,568
    jmp r1
  800018:	0800683a 	jmp	at
  80001c:	00000000 	call	0 <__alt_mem_sdram-0x800000>

Disassembly of section .exceptions:

00800020 <alt_exception>:

#else /* ALT_EXCEPTION_STACK disabled */
        /* 
         * Reserve space on normal stack for registers about to be pushed.
         */
        addi  sp, sp, -76
  800020:	deffed04 	addi	sp,sp,-76
         * documentation for details).
         *
         * Leave a gap in the stack frame at 4(sp) for the muldiv handler to
         * store zero into.
         */
        stw   ra,  0(sp)
  800024:	dfc00015 	stw	ra,0(sp)
        stw   r1,   8(sp)
  800028:	d8400215 	stw	at,8(sp)
        stw   r2,  12(sp)
  80002c:	d8800315 	stw	r2,12(sp)
        stw   r3,  16(sp)
  800030:	d8c00415 	stw	r3,16(sp)
        stw   r4,  20(sp)
  800034:	d9000515 	stw	r4,20(sp)
        stw   r5,  24(sp)
  800038:	d9400615 	stw	r5,24(sp)
        stw   r6,  28(sp)
  80003c:	d9800715 	stw	r6,28(sp)
        stw   r7,  32(sp)
  800040:	d9c00815 	stw	r7,32(sp)
        rdctl r5, estatus   /* Read early to avoid usage stall */
  800044:	000b307a 	rdctl	r5,estatus
        stw   r8,  36(sp)
  800048:	da000915 	stw	r8,36(sp)
        stw   r9,  40(sp)
  80004c:	da400a15 	stw	r9,40(sp)
        stw   r10, 44(sp)
  800050:	da800b15 	stw	r10,44(sp)
        stw   r11, 48(sp)
  800054:	dac00c15 	stw	r11,48(sp)
        stw   r12, 52(sp)
  800058:	db000d15 	stw	r12,52(sp)
        stw   r13, 56(sp)
  80005c:	db400e15 	stw	r13,56(sp)
        stw   r14, 60(sp)
  800060:	db800f15 	stw	r14,60(sp)
        stw   r15, 64(sp)
  800064:	dbc01015 	stw	r15,64(sp)
        /*
         * ea-4 contains the address of the instruction being executed
         * when the exception occured. For interrupt exceptions, we will
         * will be re-issue the isntruction. Store it in 72(sp)
         */
        stw   r5,  68(sp)  /* estatus */
  800068:	d9401115 	stw	r5,68(sp)
        addi  r15, ea, -4  /* instruction that caused exception */
  80006c:	ebffff04 	addi	r15,ea,-4
        stw   r15,  72(sp)
  800070:	dbc01215 	stw	r15,72(sp)
#else
        /*
         * Test to see if the exception was a software exception or caused 
         * by an external interrupt, and vector accordingly.
         */
        rdctl r4, ipending
  800074:	0009313a 	rdctl	r4,ipending
        andi  r2, r5, 1
  800078:	2880004c 	andi	r2,r5,1
        beq   r2, zero, .Lnot_irq
  80007c:	10000326 	beq	r2,zero,80008c <alt_exception+0x6c>
        beq   r4, zero, .Lnot_irq
  800080:	20000226 	beq	r4,zero,80008c <alt_exception+0x6c>
        /*
         * Now that all necessary registers have been preserved, call 
         * alt_irq_handler() to process the interrupts.
         */

        call alt_irq_handler
  800084:	08000fc0 	call	8000fc <alt_irq_handler>

        .section .exceptions.irqreturn, "xa"

        br    .Lexception_exit
  800088:	00000706 	br	8000a8 <alt_exception+0x88>
         * upon completion, so we write ea (address of instruction *after*
         * the one where the exception occured) into 72(sp). The actual
         * instruction that caused the exception is written in r2, which these
         * handlers will utilize.
         */
        stw ea, 72(sp) /* EA is PC+4 so will skip over instruction causing exception */
  80008c:	df401215 	stw	ea,72(sp)
.Lunknown_16bit:
        addi.n r4, r4, 2 /* Need PC+2 to skip over instruction causing exception */
        stw r4, 72(sp)

#else /* CDX is not Enabled and all instructions are 32bits */
        ldw r2, -4(ea) /* Instruction value that caused exception */
  800090:	e8bfff17 	ldw	r2,-4(ea)
         * debugger is present) or go into an infinite loop since the
         * handling behavior is undefined; in that case we will not return here.
         */

        /* Load exception-causing address as first argument (r4) */
        addi   r4, ea, -4
  800094:	e93fff04 	addi	r4,ea,-4

        /* Call the instruction-exception entry */
        call   alt_instruction_exception_entry
  800098:	08001c40 	call	8001c4 <alt_instruction_exception_entry>
         * instruction
         *
         * Return code was 0: Skip. The instruction after the exception is
         * already stored in 72(sp).
         */
        bne   r2, r0, .Lexception_exit
  80009c:	1000021e 	bne	r2,zero,8000a8 <alt_exception+0x88>

        /*
         * Otherwise, modify 72(sp) to re-issue the instruction that caused the
         * exception.
         */
        addi  r15, ea, -4  /* instruction that caused exception */
  8000a0:	ebffff04 	addi	r15,ea,-4
        stw   r15,  72(sp)
  8000a4:	dbc01215 	stw	r15,72(sp)
        /* 
         * Restore the saved registers, so that all general purpose registers 
         * have been restored to their state at the time the interrupt occured.
         */

        ldw   r5,  68(sp)
  8000a8:	d9401117 	ldw	r5,68(sp)
        ldw   ea,  72(sp)  /* This becomes the PC once eret is executed */
  8000ac:	df401217 	ldw	ea,72(sp)
        ldw   ra,   0(sp)
  8000b0:	dfc00017 	ldw	ra,0(sp)

        wrctl estatus, r5
  8000b4:	2801707a 	wrctl	estatus,r5

        ldw   r1,   8(sp)
  8000b8:	d8400217 	ldw	at,8(sp)
        ldw   r2,  12(sp)
  8000bc:	d8800317 	ldw	r2,12(sp)
        ldw   r3,  16(sp)
  8000c0:	d8c00417 	ldw	r3,16(sp)
        ldw   r4,  20(sp)
  8000c4:	d9000517 	ldw	r4,20(sp)
        ldw   r5,  24(sp)
  8000c8:	d9400617 	ldw	r5,24(sp)
        ldw   r6,  28(sp)
  8000cc:	d9800717 	ldw	r6,28(sp)
        ldw   r7,  32(sp)
  8000d0:	d9c00817 	ldw	r7,32(sp)

#if defined(ALT_EXCEPTION_STACK) && defined(ALT_STACK_CHECK)
        ldw   et, %gprel(alt_exception_old_stack_limit)(gp)
#endif

        ldw   r8,  36(sp)
  8000d4:	da000917 	ldw	r8,36(sp)
        ldw   r9,  40(sp)
  8000d8:	da400a17 	ldw	r9,40(sp)
        ldw   r10, 44(sp)
  8000dc:	da800b17 	ldw	r10,44(sp)
        ldw   r11, 48(sp)
  8000e0:	dac00c17 	ldw	r11,48(sp)
        ldw   r12, 52(sp)
  8000e4:	db000d17 	ldw	r12,52(sp)
        ldw   r13, 56(sp)
  8000e8:	db400e17 	ldw	r13,56(sp)
        ldw   r14, 60(sp)
  8000ec:	db800f17 	ldw	r14,60(sp)
        ldw   r15, 64(sp)
  8000f0:	dbc01017 	ldw	r15,64(sp)
        stw   et, %gprel(alt_stack_limit_value)(gp)
        stw   zero, %gprel(alt_exception_old_stack_limit)(gp)
#endif /* ALT_STACK_CHECK */
        ldw   sp,  76(sp)
#else /* ALT_EXCEPTION_STACK disabled */
        addi  sp, sp, 76
  8000f4:	dec01304 	addi	sp,sp,76

        /*
         * Return to the interrupted instruction.
         */

        eret
  8000f8:	ef80083a 	eret

008000fc <alt_irq_handler>:
 * instruction is present if the macro ALT_CI_INTERRUPT_VECTOR defined.
 */

void alt_irq_handler (void) __attribute__ ((section (".exceptions")));
void alt_irq_handler (void)
{
  8000fc:	defff904 	addi	sp,sp,-28
  800100:	dfc00615 	stw	ra,24(sp)
  800104:	df000515 	stw	fp,20(sp)
  800108:	df000504 	addi	fp,sp,20
  
  /*
   * Notify the operating system that we are at interrupt level.
   */ 
  
  ALT_OS_INT_ENTER();
  80010c:	0001883a 	nop
#ifndef NIOS2_EIC_PRESENT
static ALT_INLINE alt_u32 ALT_ALWAYS_INLINE alt_irq_pending (void)
{
  alt_u32 active;

  NIOS2_READ_IPENDING (active);
  800110:	0005313a 	rdctl	r2,ipending
  800114:	e0bffc15 	stw	r2,-16(fp)

  return active;
  800118:	e0bffc17 	ldw	r2,-16(fp)
   * Consider the case where the high priority interupt is asserted during
   * the interrupt entry sequence for a lower priority interrupt to see why
   * this is the case.
   */

  active = alt_irq_pending ();
  80011c:	e0bfff15 	stw	r2,-4(fp)

  do
  {
    i = 0;
  800120:	e03ffd15 	stw	zero,-12(fp)
    mask = 1;
  800124:	00800044 	movi	r2,1
  800128:	e0bffe15 	stw	r2,-8(fp)
     * called to clear the interrupt condition.
     */

    do
    {
      if (active & mask)
  80012c:	e0ffff17 	ldw	r3,-4(fp)
  800130:	e0bffe17 	ldw	r2,-8(fp)
  800134:	1884703a 	and	r2,r3,r2
  800138:	10001126 	beq	r2,zero,800180 <alt_irq_handler+0x84>
      { 
#ifdef ALT_ENHANCED_INTERRUPT_API_PRESENT
        alt_irq[i].handler(alt_irq[i].context); 
  80013c:	e0bffd17 	ldw	r2,-12(fp)
  800140:	100690fa 	slli	r3,r2,3
  800144:	00802074 	movhi	r2,129
  800148:	1885883a 	add	r2,r3,r2
  80014c:	10d2d417 	ldw	r3,19280(r2)
  800150:	e0bffd17 	ldw	r2,-12(fp)
  800154:	100890fa 	slli	r4,r2,3
  800158:	00802074 	movhi	r2,129
  80015c:	2085883a 	add	r2,r4,r2
  800160:	1092d517 	ldw	r2,19284(r2)
  800164:	1009883a 	mov	r4,r2
  800168:	183ee83a 	callr	r3
#else
        alt_irq[i].handler(alt_irq[i].context, i); 
#endif
        break;
  80016c:	0001883a 	nop
  NIOS2_READ_IPENDING (active);
  800170:	0005313a 	rdctl	r2,ipending
  800174:	e0bffb15 	stw	r2,-20(fp)
  return active;
  800178:	e0bffb17 	ldw	r2,-20(fp)
  80017c:	00000706 	br	80019c <alt_irq_handler+0xa0>
      }
      mask <<= 1;
  800180:	e0bffe17 	ldw	r2,-8(fp)
  800184:	1085883a 	add	r2,r2,r2
  800188:	e0bffe15 	stw	r2,-8(fp)
      i++;
  80018c:	e0bffd17 	ldw	r2,-12(fp)
  800190:	10800044 	addi	r2,r2,1
  800194:	e0bffd15 	stw	r2,-12(fp)
      if (active & mask)
  800198:	003fe406 	br	80012c <alt_irq_handler+0x30>

    } while (1);

    active = alt_irq_pending ();
  80019c:	e0bfff15 	stw	r2,-4(fp)
    
  } while (active);
  8001a0:	e0bfff17 	ldw	r2,-4(fp)
  8001a4:	103fde1e 	bne	r2,zero,800120 <alt_irq_handler+0x24>

  /*
   * Notify the operating system that interrupt processing is complete.
   */ 

  ALT_OS_INT_EXIT();
  8001a8:	0001883a 	nop
}
  8001ac:	0001883a 	nop
  8001b0:	e037883a 	mov	sp,fp
  8001b4:	dfc00117 	ldw	ra,4(sp)
  8001b8:	df000017 	ldw	fp,0(sp)
  8001bc:	dec00204 	addi	sp,sp,8
  8001c0:	f800283a 	ret

008001c4 <alt_instruction_exception_entry>:
 * that handler if it has been registered. Absent a handler, it will
 * break break or hang as discussed below.
 */
int 
alt_instruction_exception_entry (alt_u32 exception_pc)
{
  8001c4:	defffb04 	addi	sp,sp,-20
  8001c8:	dfc00415 	stw	ra,16(sp)
  8001cc:	df000315 	stw	fp,12(sp)
  8001d0:	df000304 	addi	fp,sp,12
  8001d4:	e13ffd15 	stw	r4,-12(fp)
 * NIOS2_EXCEPTION_CAUSE_NOT_PRESENT. Your handling routine should
 * check the validity of the cause argument before proceeding.
 */
#ifdef NIOS2_HAS_EXTRA_EXCEPTION_INFO
  /* Get exception cause & "badaddr" */
  NIOS2_READ_EXCEPTION(cause);
  8001d8:	000531fa 	rdctl	r2,exception
  8001dc:	e0bfff15 	stw	r2,-4(fp)
  cause = ( (cause & NIOS2_EXCEPTION_REG_CAUSE_MASK) >>
  8001e0:	e0bfff17 	ldw	r2,-4(fp)
  8001e4:	1004d0ba 	srli	r2,r2,2
  8001e8:	108007cc 	andi	r2,r2,31
  8001ec:	e0bfff15 	stw	r2,-4(fp)
              NIOS2_EXCEPTION_REG_CAUSE_OFST );

  NIOS2_READ_BADADDR(badaddr);
  8001f0:	0005333a 	rdctl	r2,badaddr
  8001f4:	e0bffe15 	stw	r2,-8(fp)
#else
  cause = NIOS2_EXCEPTION_CAUSE_NOT_PRESENT;
  badaddr = 0;
#endif /* NIOS2_HAS_EXTRA_EXCEPTION_INFO */

  if(alt_instruction_exception_handler) {
  8001f8:	d0a71917 	ldw	r2,-25500(gp)
  8001fc:	10000726 	beq	r2,zero,80021c <alt_instruction_exception_entry+0x58>
     * Call handler. Its return value indicates whether the exception-causing
     * instruction should be re-issued. The code that called us,
     * alt_eceptions_entry.S, will look at this value and adjust the ea
     * register as necessary
     */
    return alt_instruction_exception_handler(cause, exception_pc, badaddr);
  800200:	d0a71917 	ldw	r2,-25500(gp)
  800204:	e0ffff17 	ldw	r3,-4(fp)
  800208:	e1bffe17 	ldw	r6,-8(fp)
  80020c:	e17ffd17 	ldw	r5,-12(fp)
  800210:	1809883a 	mov	r4,r3
  800214:	103ee83a 	callr	r2
  800218:	00000206 	br	800224 <alt_instruction_exception_entry+0x60>
   *    (a peripheral which negates its interrupt output before its
   *    interrupt handler has been executed will cause spurious interrupts)
   */
  else {
#ifdef NIOS2_HAS_DEBUG_STUB
    NIOS2_BREAK();
  80021c:	003da03a 	break	0
      ;
#endif /* NIOS2_HAS_DEBUG_STUB */
  }

  /* We should not get here. Remove compiler warning. */
  return NIOS2_EXCEPTION_RETURN_REISSUE_INST;
  800220:	0005883a 	mov	r2,zero
}
  800224:	e037883a 	mov	sp,fp
  800228:	dfc00117 	ldw	ra,4(sp)
  80022c:	df000017 	ldw	fp,0(sp)
  800230:	dec00204 	addi	sp,sp,8
  800234:	f800283a 	ret

Disassembly of section .text:

00800238 <_start>:

    /* Assume the data cache size is always a power of two. */
#if NIOS2_DCACHE_SIZE > 0x8000
    movhi r2, %hi(NIOS2_DCACHE_SIZE)
#else
    movui r2, NIOS2_DCACHE_SIZE
  800238:	00820014 	movui	r2,2048
#endif

0:
    initd 0(r2)
  80023c:	10000033 	initd	0(r2)
#ifdef NIOS2_ECC_PRESENT
    addi r2, r2, -4
#else
    addi r2, r2, -NIOS2_DCACHE_LINE_SIZE
  800240:	10bff804 	addi	r2,r2,-32
#endif
    bgt r2, zero, 0b
  800244:	00bffd16 	blt	zero,r2,80023c <_start+0x4>

    /*
     * Now that the caches are initialized, set up the stack pointer and global pointer.
     * The values provided by the linker are assumed to be correctly aligned.
     */
    movhi sp, %hi(__alt_stack_pointer)
  800248:	06c04034 	movhi	sp,256
    ori sp, sp, %lo(__alt_stack_pointer)
  80024c:	dec00014 	ori	sp,sp,0
    movhi gp, %hi(_gp)
  800250:	06802074 	movhi	gp,129
    ori gp, gp, %lo(_gp)
  800254:	d6abb014 	ori	gp,gp,44736
 */
#ifndef ALT_SIM_OPTIMIZE
    /* Log that the BSS is about to be cleared. */
    ALT_LOG_PUTS(alt_log_msg_bss)

    movhi r2, %hi(__bss_start)
  800258:	00802074 	movhi	r2,129
    ori r2, r2, %lo(__bss_start)
  80025c:	1092be14 	ori	r2,r2,19192

    movhi r3, %hi(__bss_end)
  800260:	00c02074 	movhi	r3,129
    ori r3, r3, %lo(__bss_end)
  800264:	18d31414 	ori	r3,r3,19536

    beq r2, r3, 1f
  800268:	10c00326 	beq	r2,r3,800278 <_start+0x40>

0:
    stw zero, (r2)
  80026c:	10000015 	stw	zero,0(r2)
    addi r2, r2, 4
  800270:	10800104 	addi	r2,r2,4
    bltu r2, r3, 0b
  800274:	10fffd36 	bltu	r2,r3,80026c <_start+0x34>
     * section aren't defined until alt_load() has been called).
     */
    mov   et, zero
#endif

    call alt_load
  800278:	080e7e40 	call	80e7e4 <alt_load>

    /* Log that alt_main is about to be called. */
    ALT_LOG_PUTS(alt_log_msg_alt_main)

    /* Call the C entry point. It should never return. */
    call alt_main
  80027c:	080e9840 	call	80e984 <alt_main>

00800280 <alt_after_alt_main>:

    /* Wait in infinite loop in case alt_main does return. */
alt_after_alt_main:
    br alt_after_alt_main
  800280:	003fff06 	br	800280 <alt_after_alt_main>

00800284 <generateVector>:

#else

// Generates the vector x and stores it in the memory
void generateVector(float x[N])
{
  800284:	defffd04 	addi	sp,sp,-12
  800288:	dc400115 	stw	r17,4(sp)
  80028c:	dc000015 	stw	r16,0(sp)
  800290:	dfc00215 	stw	ra,8(sp)
  int i;
  x[0] = 0;
  800294:	20000015 	stw	zero,0(r4)
  for (i = 1; i < N; i++) x[i] = x[i-1] + step;
  800298:	24000104 	addi	r16,r4,4
  80029c:	2447f904 	addi	r17,r4,8164
  x[0] = 0;
  8002a0:	0005883a 	mov	r2,zero
  for (i = 1; i < N; i++) x[i] = x[i-1] + step;
  8002a4:	1009883a 	mov	r4,r2
  8002a8:	014f8034 	movhi	r5,15872
  8002ac:	08006d80 	call	8006d8 <__addsf3>
  8002b0:	80800015 	stw	r2,0(r16)
  8002b4:	84000104 	addi	r16,r16,4
  8002b8:	847ffa1e 	bne	r16,r17,8002a4 <generateVector+0x20>
}
  8002bc:	dfc00217 	ldw	ra,8(sp)
  8002c0:	dc400117 	ldw	r17,4(sp)
  8002c4:	dc000017 	ldw	r16,0(sp)
  8002c8:	dec00304 	addi	sp,sp,12
  8002cc:	f800283a 	ret

008002d0 <sumVector>:

#endif

float sumVector(float x[0], int M)
{
  8002d0:	defffb04 	addi	sp,sp,-20
  8002d4:	dfc00415 	stw	ra,16(sp)
  8002d8:	dcc00315 	stw	r19,12(sp)
  8002dc:	dc800215 	stw	r18,8(sp)
  8002e0:	dc400115 	stw	r17,4(sp)
  8002e4:	dc000015 	stw	r16,0(sp)
  float sum = 0;
  int i = 0;
  for (; i < M; i++) 
  8002e8:	0140190e 	bge	zero,r5,800350 <sumVector+0x80>
  8002ec:	280a90ba 	slli	r5,r5,2
  8002f0:	2021883a 	mov	r16,r4
  float sum = 0;
  8002f4:	0023883a 	mov	r17,zero
  8002f8:	2167883a 	add	r19,r4,r5
  {
    sum += (x[i] + x[i] * x[i]);
  8002fc:	84800017 	ldw	r18,0(r16)
  800300:	014fe034 	movhi	r5,16256
  800304:	84000104 	addi	r16,r16,4
  800308:	9009883a 	mov	r4,r18
  80030c:	08006d80 	call	8006d8 <__addsf3>
  800310:	900b883a 	mov	r5,r18
  800314:	1009883a 	mov	r4,r2
  800318:	0800b340 	call	800b34 <__mulsf3>
  80031c:	8809883a 	mov	r4,r17
  800320:	100b883a 	mov	r5,r2
  800324:	08006d80 	call	8006d8 <__addsf3>
  800328:	1023883a 	mov	r17,r2
  for (; i < M; i++) 
  80032c:	9c3ff31e 	bne	r19,r16,8002fc <sumVector+0x2c>
  }

  return sum;
}
  800330:	8805883a 	mov	r2,r17
  800334:	dfc00417 	ldw	ra,16(sp)
  800338:	dcc00317 	ldw	r19,12(sp)
  80033c:	dc800217 	ldw	r18,8(sp)
  800340:	dc400117 	ldw	r17,4(sp)
  800344:	dc000017 	ldw	r16,0(sp)
  800348:	dec00504 	addi	sp,sp,20
  80034c:	f800283a 	ret
  float sum = 0;
  800350:	0023883a 	mov	r17,zero
  return sum;
  800354:	003ff606 	br	800330 <sumVector+0x60>

00800358 <theFunction>:
// constant coefficient division
const float coeff1 = 0.5, coeff2 = 1 / 128.0f;
// taylor series terms 
const float c_term1 = 1/2.0, c_term2 = 1 / 24.0f, c_term3 = 1/40320.0;

float theFunction(float x[0], int M) {
  800358:	defff704 	addi	sp,sp,-36
  80035c:	dfc00815 	stw	ra,32(sp)
  800360:	ddc00715 	stw	r23,28(sp)
  800364:	dd800615 	stw	r22,24(sp)
  800368:	dd400515 	stw	r21,20(sp)
  80036c:	dd000415 	stw	r20,16(sp)
  800370:	dcc00315 	stw	r19,12(sp)
  800374:	dc800215 	stw	r18,8(sp)
  800378:	dc400115 	stw	r17,4(sp)
  80037c:	dc000015 	stw	r16,0(sp)
  float sum = 0;
  int i = 0;
  for (; i < M; i++) 
  800380:	01403b0e 	bge	zero,r5,800470 <theFunction+0x118>
  800384:	280a90ba 	slli	r5,r5,2
  {
    const float diff = x[i] + -128.0f;

    // const __uint32_t float_int = *(int*)&diff;
    // const __uint32_t new_exp = ((*(int*)&diff >> 23) & 0xff) - 7;
    const __uint32_t new_float = DividePow2(diff, 7);
  800388:	05202034 	movhi	r20,32896
  80038c:	054f4af4 	movhi	r21,15659
  800390:	2021883a 	mov	r16,r4
  800394:	2167883a 	add	r19,r4,r5
  float sum = 0;
  800398:	0023883a 	mov	r17,zero
    const __uint32_t new_float = DividePow2(diff, 7);
  80039c:	a53fffc4 	addi	r20,r20,-1
  8003a0:	ad6aaac4 	addi	r21,r21,-21845
  8003a4:	00002906 	br	80044c <theFunction+0xf4>
  8003a8:	19403fcc 	andi	r5,r3,255
  8003ac:	297ffe44 	addi	r5,r5,-7
  8003b0:	280a95fa 	slli	r5,r5,23
  8003b4:	290ab03a 	or	r5,r5,r4
  //     printf("original n: %x %f\n", float_int, diff );
  //     printf("custom div: %x %f exp: %u %u \n", new_float, cos_term, new_exp, (float_int >> 23) & 0xff);
  //     printf("real div:   %x %f exp: %u \n", *(int*)&actual_cos, actual_cos,  ((*(int*)&actual_cos) >> 23) & 0xff);
  // }
    // const float cos_term = diff * coeff2;
    const float cos_2 = cos_term * cos_term;
  8003b8:	2809883a 	mov	r4,r5
  8003bc:	0800b340 	call	800b34 <__mulsf3>
    const float cos_4 = cos_2 * cos_2;
  8003c0:	100b883a 	mov	r5,r2
  8003c4:	1009883a 	mov	r4,r2
    const float cos_2 = cos_term * cos_term;
  8003c8:	102d883a 	mov	r22,r2
    const float cos_4 = cos_2 * cos_2;
  8003cc:	0800b340 	call	800b34 <__mulsf3>
  8003d0:	a80b883a 	mov	r5,r21
  8003d4:	1009883a 	mov	r4,r2
  8003d8:	0800b340 	call	800b34 <__mulsf3>
  8003dc:	1009883a 	mov	r4,r2
  8003e0:	014fe034 	movhi	r5,16256
  8003e4:	08006d80 	call	8006d8 <__addsf3>
    // const float cos_6 = cos_4 * cos_2;

     __uint32_t term1_int =  DividePow2(cos_2, 1);
  8003e8:	b00bd5fa 	srai	r5,r22,23
  8003ec:	b02f883a 	mov	r23,r22
  8003f0:	1009883a 	mov	r4,r2
  8003f4:	29403fcc 	andi	r5,r5,255
  8003f8:	297fffc4 	addi	r5,r5,-1
  8003fc:	280a95fa 	slli	r5,r5,23
  800400:	a5ac703a 	and	r22,r20,r22
  800404:	b8002726 	beq	r23,zero,8004a4 <theFunction+0x14c>
  800408:	2d8ab03a 	or	r5,r5,r22
  80040c:	0800f300 	call	800f30 <__subsf3>
  800410:	1009883a 	mov	r4,r2
  800414:	900b883a 	mov	r5,r18
  800418:	0800b340 	call	800b34 <__mulsf3>
  80041c:	1009883a 	mov	r4,r2
    //  term1_int |= 0x80000000;
    const float term1 =  *(float*)&term1_int;

    const float cosine = 1 - term1  + cos_4 * c_term2;
    
    sum += (coeff1 * x[i] + (x[i] * x[i]) * cosine);
  800420:	014fc034 	movhi	r5,16128
  800424:	08006d80 	call	8006d8 <__addsf3>
  800428:	900b883a 	mov	r5,r18
  80042c:	1009883a 	mov	r4,r2
  800430:	0800b340 	call	800b34 <__mulsf3>
  800434:	8809883a 	mov	r4,r17
  800438:	100b883a 	mov	r5,r2
  80043c:	08006d80 	call	8006d8 <__addsf3>
  800440:	84000104 	addi	r16,r16,4
  800444:	1023883a 	mov	r17,r2
  for (; i < M; i++) 
  800448:	9c000a26 	beq	r19,r16,800474 <theFunction+0x11c>
    const float diff = x[i] + -128.0f;
  80044c:	84800017 	ldw	r18,0(r16)
  800450:	0150c034 	movhi	r5,17152
  800454:	9009883a 	mov	r4,r18
  800458:	0800f300 	call	800f30 <__subsf3>
    const __uint32_t new_float = DividePow2(diff, 7);
  80045c:	1007d5fa 	srai	r3,r2,23
  800460:	a088703a 	and	r4,r20,r2
  800464:	103fd01e 	bne	r2,zero,8003a8 <theFunction+0x50>
    const float diff = x[i] + -128.0f;
  800468:	9009883a 	mov	r4,r18
  80046c:	003fec06 	br	800420 <theFunction+0xc8>
  float sum = 0;
  800470:	0023883a 	mov	r17,zero
  }

  return sum;
}
  800474:	8805883a 	mov	r2,r17
  800478:	dfc00817 	ldw	ra,32(sp)
  80047c:	ddc00717 	ldw	r23,28(sp)
  800480:	dd800617 	ldw	r22,24(sp)
  800484:	dd400517 	ldw	r21,20(sp)
  800488:	dd000417 	ldw	r20,16(sp)
  80048c:	dcc00317 	ldw	r19,12(sp)
  800490:	dc800217 	ldw	r18,8(sp)
  800494:	dc400117 	ldw	r17,4(sp)
  800498:	dc000017 	ldw	r16,0(sp)
  80049c:	dec00904 	addi	sp,sp,36
  8004a0:	f800283a 	ret
  8004a4:	900b883a 	mov	r5,r18
  8004a8:	0800b340 	call	800b34 <__mulsf3>
  8004ac:	1009883a 	mov	r4,r2
  8004b0:	003fdb06 	br	800420 <theFunction+0xc8>

008004b4 <main>:

int main(int argc, char* argv[])
{
  const int numIterations = NUM_CASES;
  printf("Task 3!\n");
  8004b4:	01002074 	movhi	r4,129
{
  8004b8:	def7f904 	addi	sp,sp,-8220
  printf("Task 3!\n");
  8004bc:	21031a04 	addi	r4,r4,3176
{
  8004c0:	dfc80615 	stw	ra,8216(sp)
  8004c4:	dc87ff15 	stw	r18,8188(sp)
  8004c8:	dc07fd15 	stw	r16,8180(sp)
  8004cc:	df080515 	stw	fp,8212(sp)
  8004d0:	ddc80415 	stw	r23,8208(sp)
  8004d4:	dd880315 	stw	r22,8204(sp)
  8004d8:	dd480215 	stw	r21,8200(sp)
  8004dc:	dd080115 	stw	r20,8196(sp)
  8004e0:	dcc80015 	stw	r19,8192(sp)
  8004e4:	dc47fe15 	stw	r17,8184(sp)
  printf("Task 3!\n");
  8004e8:	08016600 	call	801660 <puts>
  printf("Ticks per second: %ld\n", alt_ticks_per_second());
  8004ec:	d1671617 	ldw	r5,-25512(gp)
  8004f0:	01002074 	movhi	r4,129
  8004f4:	21031c04 	addi	r4,r4,3184
  8004f8:	080155c0 	call	80155c <printf>
  printf("Running %d tests\n", numIterations);
  8004fc:	01002074 	movhi	r4,129
  800500:	01400284 	movi	r5,10
  800504:	21032204 	addi	r4,r4,3208
  800508:	080155c0 	call	80155c <printf>
  x[0] = 0;
  80050c:	dc000504 	addi	r16,sp,20
  800510:	d8000415 	stw	zero,16(sp)
  for (i = 1; i < N; i++) x[i] = x[i-1] + step;
  800514:	dc87fd04 	addi	r18,sp,8180
  x[0] = 0;
  800518:	0005883a 	mov	r2,zero
  for (i = 1; i < N; i++) x[i] = x[i-1] + step;
  80051c:	1009883a 	mov	r4,r2
  800520:	014f8034 	movhi	r5,15872
  800524:	08006d80 	call	8006d8 <__addsf3>
  800528:	80800015 	stw	r2,0(r16)
  80052c:	84000104 	addi	r16,r16,4
  800530:	943ffa1e 	bne	r18,r16,80051c <main+0x68>

  volatile clock_t exec_t1, exec_t2;

  // const int numIterations = 1 << TEST_REPEAT;

  exec_t1 = times(NULL);
  800534:	0009883a 	mov	r4,zero
  800538:	080ee9c0 	call	80ee9c <times>
    const __uint32_t new_float = DividePow2(diff, 7);
  80053c:	05202034 	movhi	r20,32896
  800540:	054f4af4 	movhi	r21,15659
  exec_t1 = times(NULL);
  800544:	d8800115 	stw	r2,4(sp)
  800548:	05800284 	movi	r22,10
    const __uint32_t new_float = DividePow2(diff, 7);
  80054c:	a53fffc4 	addi	r20,r20,-1
  800550:	ad6aaac4 	addi	r21,r21,-21845
  exec_t1 = times(NULL);
  800554:	dc000404 	addi	r16,sp,16
  float sum = 0;
  800558:	0027883a 	mov	r19,zero
  80055c:	00002906 	br	800604 <main+0x150>
    const __uint32_t new_float = DividePow2(diff, 7);
  800560:	19403fcc 	andi	r5,r3,255
  800564:	297ffe44 	addi	r5,r5,-7
  800568:	280a95fa 	slli	r5,r5,23
  80056c:	290ab03a 	or	r5,r5,r4
    const float cos_2 = cos_term * cos_term;
  800570:	2809883a 	mov	r4,r5
  800574:	0800b340 	call	800b34 <__mulsf3>
    const float cos_4 = cos_2 * cos_2;
  800578:	100b883a 	mov	r5,r2
  80057c:	1009883a 	mov	r4,r2
    const float cos_2 = cos_term * cos_term;
  800580:	102f883a 	mov	r23,r2
    const float cos_4 = cos_2 * cos_2;
  800584:	0800b340 	call	800b34 <__mulsf3>
  800588:	a80b883a 	mov	r5,r21
  80058c:	1009883a 	mov	r4,r2
  800590:	0800b340 	call	800b34 <__mulsf3>
  800594:	1009883a 	mov	r4,r2
  800598:	014fe034 	movhi	r5,16256
  80059c:	08006d80 	call	8006d8 <__addsf3>
     __uint32_t term1_int =  DividePow2(cos_2, 1);
  8005a0:	b80bd5fa 	srai	r5,r23,23
  8005a4:	b839883a 	mov	fp,r23
  8005a8:	1009883a 	mov	r4,r2
  8005ac:	29403fcc 	andi	r5,r5,255
  8005b0:	297fffc4 	addi	r5,r5,-1
  8005b4:	280a95fa 	slli	r5,r5,23
  8005b8:	a5ee703a 	and	r23,r20,r23
  8005bc:	e0004126 	beq	fp,zero,8006c4 <main+0x210>
  8005c0:	2dcab03a 	or	r5,r5,r23
  8005c4:	0800f300 	call	800f30 <__subsf3>
  8005c8:	1009883a 	mov	r4,r2
  8005cc:	880b883a 	mov	r5,r17
  8005d0:	0800b340 	call	800b34 <__mulsf3>
  8005d4:	1009883a 	mov	r4,r2
    sum += (coeff1 * x[i] + (x[i] * x[i]) * cosine);
  8005d8:	014fc034 	movhi	r5,16128
  8005dc:	08006d80 	call	8006d8 <__addsf3>
  8005e0:	880b883a 	mov	r5,r17
  8005e4:	1009883a 	mov	r4,r2
  8005e8:	0800b340 	call	800b34 <__mulsf3>
  8005ec:	9809883a 	mov	r4,r19
  8005f0:	100b883a 	mov	r5,r2
  8005f4:	08006d80 	call	8006d8 <__addsf3>
  8005f8:	84000104 	addi	r16,r16,4
  8005fc:	1027883a 	mov	r19,r2
  for (; i < M; i++) 
  800600:	84800926 	beq	r16,r18,800628 <main+0x174>
    const float diff = x[i] + -128.0f;
  800604:	84400017 	ldw	r17,0(r16)
  800608:	0150c034 	movhi	r5,17152
  80060c:	8809883a 	mov	r4,r17
  800610:	0800f300 	call	800f30 <__subsf3>
    const __uint32_t new_float = DividePow2(diff, 7);
  800614:	1007d5fa 	srai	r3,r2,23
  800618:	a088703a 	and	r4,r20,r2
  80061c:	103fd01e 	bne	r2,zero,800560 <main+0xac>
    const float diff = x[i] + -128.0f;
  800620:	8809883a 	mov	r4,r17
  800624:	003fec06 	br	8005d8 <main+0x124>
  int y1 = 0;
  // The code that you want to time goes here
  // for (int i = 0; i < (1 << TEST_REPEAT); i++) y = sumVector(x, N);
  for (int i = 0; i < numIterations; i++) {
    // if ((y = sumVector(x, N)) > 0) y1++;
    y = theFunction(x, N);
  800628:	d8800015 	stw	r2,0(sp)
  for (int i = 0; i < numIterations; i++) {
  80062c:	b5bfffc4 	addi	r22,r22,-1
  800630:	b03fc81e 	bne	r22,zero,800554 <main+0xa0>
  }

  // till here
  exec_t2 = times(NULL);
  800634:	0009883a 	mov	r4,zero
  800638:	080ee9c0 	call	80ee9c <times>
  80063c:	d8800215 	stw	r2,8(sp)

  volatile int elapsedTicks = (int)(exec_t2 - exec_t1);
  800640:	d8800217 	ldw	r2,8(sp)
  800644:	d8c00117 	ldw	r3,4(sp)
  printf("ElpasedTicks: %d\n", elapsedTicks);
  800648:	01002074 	movhi	r4,129
  80064c:	21032704 	addi	r4,r4,3228
  volatile int elapsedTicks = (int)(exec_t2 - exec_t1);
  800650:	10c5c83a 	sub	r2,r2,r3
  800654:	d8800315 	stw	r2,12(sp)
  printf("ElpasedTicks: %d\n", elapsedTicks);
  800658:	d9400317 	ldw	r5,12(sp)
  80065c:	080155c0 	call	80155c <printf>
  printf("RESULT: %f, %x\n", y, *(int*)(&y));
  800660:	d9000017 	ldw	r4,0(sp)
  800664:	08013b40 	call	8013b4 <__extendsfdf2>
  800668:	d9c00017 	ldw	r7,0(sp)
  80066c:	01002074 	movhi	r4,129
  800670:	180d883a 	mov	r6,r3
  800674:	100b883a 	mov	r5,r2
  800678:	21032c04 	addi	r4,r4,3248
  80067c:	080155c0 	call	80155c <printf>
  printf("Num Iterations: %d\n", y1);
  800680:	01002074 	movhi	r4,129
  800684:	000b883a 	mov	r5,zero
  800688:	21033004 	addi	r4,r4,3264
  80068c:	080155c0 	call	80155c <printf>
  // printf("Total ticks %d for %d iters\n", elapsedTicks , numIterations);
  // printf("Time Taken: %f\n",(float) elapsedTicks/numIterations);


  return 0;
}
  800690:	0005883a 	mov	r2,zero
  800694:	dfc80617 	ldw	ra,8216(sp)
  800698:	df080517 	ldw	fp,8212(sp)
  80069c:	ddc80417 	ldw	r23,8208(sp)
  8006a0:	dd880317 	ldw	r22,8204(sp)
  8006a4:	dd480217 	ldw	r21,8200(sp)
  8006a8:	dd080117 	ldw	r20,8196(sp)
  8006ac:	dcc80017 	ldw	r19,8192(sp)
  8006b0:	dc87ff17 	ldw	r18,8188(sp)
  8006b4:	dc47fe17 	ldw	r17,8184(sp)
  8006b8:	dc07fd17 	ldw	r16,8180(sp)
  8006bc:	dec80704 	addi	sp,sp,8220
  8006c0:	f800283a 	ret
  8006c4:	8809883a 	mov	r4,r17
  8006c8:	100b883a 	mov	r5,r2
  8006cc:	0800b340 	call	800b34 <__mulsf3>
  8006d0:	1009883a 	mov	r4,r2
  8006d4:	003fc006 	br	8005d8 <main+0x124>

008006d8 <__addsf3>:
  8006d8:	280cd5fa 	srli	r6,r5,23
  8006dc:	2006d5fa 	srli	r3,r4,23
  8006e0:	2010d7fa 	srli	r8,r4,31
  8006e4:	01c02034 	movhi	r7,128
  8006e8:	2818d7fa 	srli	r12,r5,31
  8006ec:	defffc04 	addi	sp,sp,-16
  8006f0:	39ffffc4 	addi	r7,r7,-1
  8006f4:	3914703a 	and	r10,r7,r4
  8006f8:	32403fcc 	andi	r9,r6,255
  8006fc:	dc800215 	stw	r18,8(sp)
  800700:	dc400115 	stw	r17,4(sp)
  800704:	395a703a 	and	r13,r7,r5
  800708:	1c403fcc 	andi	r17,r3,255
  80070c:	dfc00315 	stw	ra,12(sp)
  800710:	dc000015 	stw	r16,0(sp)
  800714:	501c90fa 	slli	r14,r10,3
  800718:	681690fa 	slli	r11,r13,3
  80071c:	500d883a 	mov	r6,r10
  800720:	4025883a 	mov	r18,r8
  800724:	8a45c83a 	sub	r2,r17,r9
  800728:	43004b26 	beq	r8,r12,800858 <__addsf3+0x180>
  80072c:	0080390e 	bge	zero,r2,800814 <__addsf3+0x13c>
  800730:	48006326 	beq	r9,zero,8008c0 <__addsf3+0x1e8>
  800734:	88c03fe0 	cmpeqi	r3,r17,255
  800738:	1800401e 	bne	r3,zero,80083c <__addsf3+0x164>
  80073c:	5ac10034 	orhi	r11,r11,1024
  800740:	10c00708 	cmpgei	r3,r2,28
  800744:	1800ab1e 	bne	r3,zero,8009f4 <__addsf3+0x31c>
  800748:	01000804 	movi	r4,32
  80074c:	2089c83a 	sub	r4,r4,r2
  800750:	5908983a 	sll	r4,r11,r4
  800754:	5884d83a 	srl	r2,r11,r2
  800758:	2008c03a 	cmpne	r4,r4,zero
  80075c:	1104b03a 	or	r2,r2,r4
  800760:	7085c83a 	sub	r2,r14,r2
  800764:	10c1002c 	andhi	r3,r2,1024
  800768:	18008526 	beq	r3,zero,800980 <__addsf3+0x2a8>
  80076c:	04010034 	movhi	r16,1024
  800770:	843fffc4 	addi	r16,r16,-1
  800774:	1420703a 	and	r16,r2,r16
  800778:	8009883a 	mov	r4,r16
  80077c:	08014b00 	call	8014b0 <__clzsi2>
  800780:	10fffec4 	addi	r3,r2,-5
  800784:	80c4983a 	sll	r2,r16,r3
  800788:	1c409516 	blt	r3,r17,8009e0 <__addsf3+0x308>
  80078c:	1c47c83a 	sub	r3,r3,r17
  800790:	1c000044 	addi	r16,r3,1
  800794:	01000804 	movi	r4,32
  800798:	2409c83a 	sub	r4,r4,r16
  80079c:	1108983a 	sll	r4,r2,r4
  8007a0:	1404d83a 	srl	r2,r2,r16
  8007a4:	0023883a 	mov	r17,zero
  8007a8:	2008c03a 	cmpne	r4,r4,zero
  8007ac:	1104b03a 	or	r2,r2,r4
  8007b0:	10c001cc 	andi	r3,r2,7
  8007b4:	18000426 	beq	r3,zero,8007c8 <__addsf3+0xf0>
  8007b8:	10c003cc 	andi	r3,r2,15
  8007bc:	18c00120 	cmpeqi	r3,r3,4
  8007c0:	1800011e 	bne	r3,zero,8007c8 <__addsf3+0xf0>
  8007c4:	10800104 	addi	r2,r2,4
  8007c8:	10c1002c 	andhi	r3,r2,1024
  8007cc:	18006e26 	beq	r3,zero,800988 <__addsf3+0x2b0>
  8007d0:	88c00044 	addi	r3,r17,1
  8007d4:	19003fe0 	cmpeqi	r4,r3,255
  8007d8:	20006d1e 	bne	r4,zero,800990 <__addsf3+0x2b8>
  8007dc:	100491ba 	slli	r2,r2,6
  8007e0:	100cd27a 	srli	r6,r2,9
  8007e4:	18803fcc 	andi	r2,r3,255
  8007e8:	100495fa 	slli	r2,r2,23
  8007ec:	94803fcc 	andi	r18,r18,255
  8007f0:	902497fa 	slli	r18,r18,31
  8007f4:	1184b03a 	or	r2,r2,r6
  8007f8:	1484b03a 	or	r2,r2,r18
  8007fc:	dfc00317 	ldw	ra,12(sp)
  800800:	dc800217 	ldw	r18,8(sp)
  800804:	dc400117 	ldw	r17,4(sp)
  800808:	dc000017 	ldw	r16,0(sp)
  80080c:	dec00404 	addi	sp,sp,16
  800810:	f800283a 	ret
  800814:	10003026 	beq	r2,zero,8008d8 <__addsf3+0x200>
  800818:	4c49c83a 	sub	r4,r9,r17
  80081c:	88007f1e 	bne	r17,zero,800a1c <__addsf3+0x344>
  800820:	70003f26 	beq	r14,zero,800920 <__addsf3+0x248>
  800824:	213fffc4 	addi	r4,r4,-1
  800828:	2000b326 	beq	r4,zero,800af8 <__addsf3+0x420>
  80082c:	48803fe0 	cmpeqi	r2,r9,255
  800830:	10007d26 	beq	r2,zero,800a28 <__addsf3+0x350>
  800834:	6025883a 	mov	r18,r12
  800838:	6815883a 	mov	r10,r13
  80083c:	50005426 	beq	r10,zero,800990 <__addsf3+0x2b8>
  800840:	00802034 	movhi	r2,128
  800844:	51801034 	orhi	r6,r10,64
  800848:	10bfffc4 	addi	r2,r2,-1
  80084c:	308c703a 	and	r6,r6,r2
  800850:	00ffffc4 	movi	r3,-1
  800854:	003fe306 	br	8007e4 <__addsf3+0x10c>
  800858:	0080500e 	bge	zero,r2,80099c <__addsf3+0x2c4>
  80085c:	48002a26 	beq	r9,zero,800908 <__addsf3+0x230>
  800860:	88c03fe0 	cmpeqi	r3,r17,255
  800864:	183ff51e 	bne	r3,zero,80083c <__addsf3+0x164>
  800868:	5ac10034 	orhi	r11,r11,1024
  80086c:	10c00708 	cmpgei	r3,r2,28
  800870:	1800741e 	bne	r3,zero,800a44 <__addsf3+0x36c>
  800874:	00c00804 	movi	r3,32
  800878:	1887c83a 	sub	r3,r3,r2
  80087c:	58c6983a 	sll	r3,r11,r3
  800880:	5884d83a 	srl	r2,r11,r2
  800884:	1806c03a 	cmpne	r3,r3,zero
  800888:	10c4b03a 	or	r2,r2,r3
  80088c:	1385883a 	add	r2,r2,r14
  800890:	10c1002c 	andhi	r3,r2,1024
  800894:	18003a26 	beq	r3,zero,800980 <__addsf3+0x2a8>
  800898:	8c400044 	addi	r17,r17,1
  80089c:	88c03fe0 	cmpeqi	r3,r17,255
  8008a0:	18003b1e 	bne	r3,zero,800990 <__addsf3+0x2b8>
  8008a4:	1008d07a 	srli	r4,r2,1
  8008a8:	00df8034 	movhi	r3,32256
  8008ac:	18ffffc4 	addi	r3,r3,-1
  8008b0:	1080004c 	andi	r2,r2,1
  8008b4:	20c8703a 	and	r4,r4,r3
  8008b8:	2084b03a 	or	r2,r4,r2
  8008bc:	003fbc06 	br	8007b0 <__addsf3+0xd8>
  8008c0:	58001a26 	beq	r11,zero,80092c <__addsf3+0x254>
  8008c4:	10bfffc4 	addi	r2,r2,-1
  8008c8:	10007c26 	beq	r2,zero,800abc <__addsf3+0x3e4>
  8008cc:	88c03fe0 	cmpeqi	r3,r17,255
  8008d0:	183f9b26 	beq	r3,zero,800740 <__addsf3+0x68>
  8008d4:	003fd906 	br	80083c <__addsf3+0x164>
  8008d8:	88800044 	addi	r2,r17,1
  8008dc:	10803f8c 	andi	r2,r2,254
  8008e0:	1000461e 	bne	r2,zero,8009fc <__addsf3+0x324>
  8008e4:	88006e1e 	bne	r17,zero,800aa0 <__addsf3+0x3c8>
  8008e8:	70007f26 	beq	r14,zero,800ae8 <__addsf3+0x410>
  8008ec:	583fbd26 	beq	r11,zero,8007e4 <__addsf3+0x10c>
  8008f0:	72c5c83a 	sub	r2,r14,r11
  8008f4:	1101002c 	andhi	r4,r2,1024
  8008f8:	20008326 	beq	r4,zero,800b08 <__addsf3+0x430>
  8008fc:	5b85c83a 	sub	r2,r11,r14
  800900:	6025883a 	mov	r18,r12
  800904:	003faa06 	br	8007b0 <__addsf3+0xd8>
  800908:	58000826 	beq	r11,zero,80092c <__addsf3+0x254>
  80090c:	10bfffc4 	addi	r2,r2,-1
  800910:	10006826 	beq	r2,zero,800ab4 <__addsf3+0x3dc>
  800914:	88c03fe0 	cmpeqi	r3,r17,255
  800918:	183fd426 	beq	r3,zero,80086c <__addsf3+0x194>
  80091c:	003fc706 	br	80083c <__addsf3+0x164>
  800920:	6025883a 	mov	r18,r12
  800924:	6815883a 	mov	r10,r13
  800928:	4823883a 	mov	r17,r9
  80092c:	88803fe0 	cmpeqi	r2,r17,255
  800930:	103fc21e 	bne	r2,zero,80083c <__addsf3+0x164>
  800934:	00802034 	movhi	r2,128
  800938:	10bfffc4 	addi	r2,r2,-1
  80093c:	508c703a 	and	r6,r10,r2
  800940:	8807883a 	mov	r3,r17
  800944:	003fa706 	br	8007e4 <__addsf3+0x10c>
  800948:	881f883a 	mov	r15,r17
  80094c:	8c400044 	addi	r17,r17,1
  800950:	88803f8c 	andi	r2,r17,254
  800954:	10004a1e 	bne	r2,zero,800a80 <__addsf3+0x3a8>
  800958:	78005a1e 	bne	r15,zero,800ac4 <__addsf3+0x3ec>
  80095c:	70006e26 	beq	r14,zero,800b18 <__addsf3+0x440>
  800960:	583fa026 	beq	r11,zero,8007e4 <__addsf3+0x10c>
  800964:	72c5883a 	add	r2,r14,r11
  800968:	10c1002c 	andhi	r3,r2,1024
  80096c:	18006f26 	beq	r3,zero,800b2c <__addsf3+0x454>
  800970:	00ff0034 	movhi	r3,64512
  800974:	18ffffc4 	addi	r3,r3,-1
  800978:	10c4703a 	and	r2,r2,r3
  80097c:	04400044 	movi	r17,1
  800980:	10c001cc 	andi	r3,r2,7
  800984:	183f8c1e 	bne	r3,zero,8007b8 <__addsf3+0xe0>
  800988:	1014d0fa 	srli	r10,r2,3
  80098c:	003fe706 	br	80092c <__addsf3+0x254>
  800990:	00ffffc4 	movi	r3,-1
  800994:	000d883a 	mov	r6,zero
  800998:	003f9206 	br	8007e4 <__addsf3+0x10c>
  80099c:	103fea26 	beq	r2,zero,800948 <__addsf3+0x270>
  8009a0:	4c49c83a 	sub	r4,r9,r17
  8009a4:	88003026 	beq	r17,zero,800a68 <__addsf3+0x390>
  8009a8:	48803fe0 	cmpeqi	r2,r9,255
  8009ac:	103fa21e 	bne	r2,zero,800838 <__addsf3+0x160>
  8009b0:	73810034 	orhi	r14,r14,1024
  8009b4:	20800708 	cmpgei	r2,r4,28
  8009b8:	1000491e 	bne	r2,zero,800ae0 <__addsf3+0x408>
  8009bc:	00800804 	movi	r2,32
  8009c0:	1105c83a 	sub	r2,r2,r4
  8009c4:	7084983a 	sll	r2,r14,r2
  8009c8:	7108d83a 	srl	r4,r14,r4
  8009cc:	1004c03a 	cmpne	r2,r2,zero
  8009d0:	2088b03a 	or	r4,r4,r2
  8009d4:	22c5883a 	add	r2,r4,r11
  8009d8:	4823883a 	mov	r17,r9
  8009dc:	003fac06 	br	800890 <__addsf3+0x1b8>
  8009e0:	013f0034 	movhi	r4,64512
  8009e4:	213fffc4 	addi	r4,r4,-1
  8009e8:	88e3c83a 	sub	r17,r17,r3
  8009ec:	1104703a 	and	r2,r2,r4
  8009f0:	003f6f06 	br	8007b0 <__addsf3+0xd8>
  8009f4:	00800044 	movi	r2,1
  8009f8:	003f5906 	br	800760 <__addsf3+0x88>
  8009fc:	72e1c83a 	sub	r16,r14,r11
  800a00:	8081002c 	andhi	r2,r16,1024
  800a04:	1000231e 	bne	r2,zero,800a94 <__addsf3+0x3bc>
  800a08:	803f5b1e 	bne	r16,zero,800778 <__addsf3+0xa0>
  800a0c:	0025883a 	mov	r18,zero
  800a10:	0007883a 	mov	r3,zero
  800a14:	000d883a 	mov	r6,zero
  800a18:	003f7206 	br	8007e4 <__addsf3+0x10c>
  800a1c:	48803fe0 	cmpeqi	r2,r9,255
  800a20:	103f841e 	bne	r2,zero,800834 <__addsf3+0x15c>
  800a24:	73810034 	orhi	r14,r14,1024
  800a28:	20800708 	cmpgei	r2,r4,28
  800a2c:	10000726 	beq	r2,zero,800a4c <__addsf3+0x374>
  800a30:	01000044 	movi	r4,1
  800a34:	5905c83a 	sub	r2,r11,r4
  800a38:	6025883a 	mov	r18,r12
  800a3c:	4823883a 	mov	r17,r9
  800a40:	003f4806 	br	800764 <__addsf3+0x8c>
  800a44:	00800044 	movi	r2,1
  800a48:	003f9006 	br	80088c <__addsf3+0x1b4>
  800a4c:	00800804 	movi	r2,32
  800a50:	1105c83a 	sub	r2,r2,r4
  800a54:	7084983a 	sll	r2,r14,r2
  800a58:	7108d83a 	srl	r4,r14,r4
  800a5c:	1004c03a 	cmpne	r2,r2,zero
  800a60:	2088b03a 	or	r4,r4,r2
  800a64:	003ff306 	br	800a34 <__addsf3+0x35c>
  800a68:	703fae26 	beq	r14,zero,800924 <__addsf3+0x24c>
  800a6c:	213fffc4 	addi	r4,r4,-1
  800a70:	20002b26 	beq	r4,zero,800b20 <__addsf3+0x448>
  800a74:	48803fe0 	cmpeqi	r2,r9,255
  800a78:	103fce26 	beq	r2,zero,8009b4 <__addsf3+0x2dc>
  800a7c:	003f6e06 	br	800838 <__addsf3+0x160>
  800a80:	88803fe0 	cmpeqi	r2,r17,255
  800a84:	103fc21e 	bne	r2,zero,800990 <__addsf3+0x2b8>
  800a88:	72c5883a 	add	r2,r14,r11
  800a8c:	1004d07a 	srli	r2,r2,1
  800a90:	003fbb06 	br	800980 <__addsf3+0x2a8>
  800a94:	5ba1c83a 	sub	r16,r11,r14
  800a98:	6025883a 	mov	r18,r12
  800a9c:	003f3606 	br	800778 <__addsf3+0xa0>
  800aa0:	7000091e 	bne	r14,zero,800ac8 <__addsf3+0x3f0>
  800aa4:	583f631e 	bne	r11,zero,800834 <__addsf3+0x15c>
  800aa8:	0025883a 	mov	r18,zero
  800aac:	380d883a 	mov	r6,r7
  800ab0:	003f6706 	br	800850 <__addsf3+0x178>
  800ab4:	72c5883a 	add	r2,r14,r11
  800ab8:	003f7506 	br	800890 <__addsf3+0x1b8>
  800abc:	72c5c83a 	sub	r2,r14,r11
  800ac0:	003f2806 	br	800764 <__addsf3+0x8c>
  800ac4:	703f5c26 	beq	r14,zero,800838 <__addsf3+0x160>
  800ac8:	583f5c26 	beq	r11,zero,80083c <__addsf3+0x164>
  800acc:	20c0102c 	andhi	r3,r4,64
  800ad0:	183f5a26 	beq	r3,zero,80083c <__addsf3+0x164>
  800ad4:	2940102c 	andhi	r5,r5,64
  800ad8:	283f581e 	bne	r5,zero,80083c <__addsf3+0x164>
  800adc:	003f5506 	br	800834 <__addsf3+0x15c>
  800ae0:	01000044 	movi	r4,1
  800ae4:	003fbb06 	br	8009d4 <__addsf3+0x2fc>
  800ae8:	58000826 	beq	r11,zero,800b0c <__addsf3+0x434>
  800aec:	6025883a 	mov	r18,r12
  800af0:	680d883a 	mov	r6,r13
  800af4:	003f3b06 	br	8007e4 <__addsf3+0x10c>
  800af8:	5b85c83a 	sub	r2,r11,r14
  800afc:	6025883a 	mov	r18,r12
  800b00:	4823883a 	mov	r17,r9
  800b04:	003f1706 	br	800764 <__addsf3+0x8c>
  800b08:	103f9d1e 	bne	r2,zero,800980 <__addsf3+0x2a8>
  800b0c:	0025883a 	mov	r18,zero
  800b10:	000d883a 	mov	r6,zero
  800b14:	003f3306 	br	8007e4 <__addsf3+0x10c>
  800b18:	680d883a 	mov	r6,r13
  800b1c:	003f3106 	br	8007e4 <__addsf3+0x10c>
  800b20:	72c5883a 	add	r2,r14,r11
  800b24:	4823883a 	mov	r17,r9
  800b28:	003f5906 	br	800890 <__addsf3+0x1b8>
  800b2c:	0023883a 	mov	r17,zero
  800b30:	003f9306 	br	800980 <__addsf3+0x2a8>

00800b34 <__mulsf3>:
  800b34:	defff504 	addi	sp,sp,-44
  800b38:	dc400215 	stw	r17,8(sp)
  800b3c:	2022d5fa 	srli	r17,r4,23
  800b40:	dc000115 	stw	r16,4(sp)
  800b44:	04002034 	movhi	r16,128
  800b48:	dd800715 	stw	r22,28(sp)
  800b4c:	843fffc4 	addi	r16,r16,-1
  800b50:	dfc00a15 	stw	ra,40(sp)
  800b54:	df000915 	stw	fp,36(sp)
  800b58:	ddc00815 	stw	r23,32(sp)
  800b5c:	dd400615 	stw	r21,24(sp)
  800b60:	dd000515 	stw	r20,20(sp)
  800b64:	dcc00415 	stw	r19,16(sp)
  800b68:	dc800315 	stw	r18,12(sp)
  800b6c:	8c403fcc 	andi	r17,r17,255
  800b70:	202cd7fa 	srli	r22,r4,31
  800b74:	8120703a 	and	r16,r16,r4
  800b78:	88005026 	beq	r17,zero,800cbc <__mulsf3+0x188>
  800b7c:	88803fe0 	cmpeqi	r2,r17,255
  800b80:	1000531e 	bne	r2,zero,800cd0 <__mulsf3+0x19c>
  800b84:	802090fa 	slli	r16,r16,3
  800b88:	8c7fe044 	addi	r17,r17,-127
  800b8c:	0025883a 	mov	r18,zero
  800b90:	84010034 	orhi	r16,r16,1024
  800b94:	0029883a 	mov	r20,zero
  800b98:	2804d5fa 	srli	r2,r5,23
  800b9c:	01002034 	movhi	r4,128
  800ba0:	213fffc4 	addi	r4,r4,-1
  800ba4:	10803fcc 	andi	r2,r2,255
  800ba8:	282ed7fa 	srli	r23,r5,31
  800bac:	2166703a 	and	r19,r4,r5
  800bb0:	10004c26 	beq	r2,zero,800ce4 <__mulsf3+0x1b0>
  800bb4:	10c03fe0 	cmpeqi	r3,r2,255
  800bb8:	18001e1e 	bne	r3,zero,800c34 <__mulsf3+0x100>
  800bbc:	980890fa 	slli	r4,r19,3
  800bc0:	10bfe044 	addi	r2,r2,-127
  800bc4:	88a3883a 	add	r17,r17,r2
  800bc8:	24c10034 	orhi	r19,r4,1024
  800bcc:	0007883a 	mov	r3,zero
  800bd0:	90800428 	cmpgeui	r2,r18,16
  800bd4:	b5eaf03a 	xor	r21,r22,r23
  800bd8:	8f000044 	addi	fp,r17,1
  800bdc:	1000481e 	bne	r2,zero,800d00 <__mulsf3+0x1cc>
  800be0:	902490ba 	slli	r18,r18,2
  800be4:	00802034 	movhi	r2,128
  800be8:	9085883a 	add	r2,r18,r2
  800bec:	1082fd17 	ldw	r2,3060(r2)
  800bf0:	1000683a 	jmp	r2
  800bf4:	00800d00 	call	800d0 <__alt_mem_sdram-0x77ff30>
  800bf8:	00800c4c 	andi	r2,zero,49
  800bfc:	00800c4c 	andi	r2,zero,49
  800c00:	00800c48 	cmpgei	r2,zero,49
  800c04:	00800c54 	movui	r2,49
  800c08:	00800c54 	movui	r2,49
  800c0c:	00800e60 	cmpeqi	r2,zero,57
  800c10:	00800c48 	cmpgei	r2,zero,49
  800c14:	00800c54 	movui	r2,49
  800c18:	00800e60 	cmpeqi	r2,zero,57
  800c1c:	00800c54 	movui	r2,49
  800c20:	00800c48 	cmpgei	r2,zero,49
  800c24:	00800df0 	cmpltui	r2,zero,55
  800c28:	00800df0 	cmpltui	r2,zero,55
  800c2c:	00800df0 	cmpltui	r2,zero,55
  800c30:	00800ec4 	movi	r2,59
  800c34:	8c403fc4 	addi	r17,r17,255
  800c38:	98006f1e 	bne	r19,zero,800df8 <__mulsf3+0x2c4>
  800c3c:	94800094 	ori	r18,r18,2
  800c40:	00c00084 	movi	r3,2
  800c44:	003fe206 	br	800bd0 <__mulsf3+0x9c>
  800c48:	b82b883a 	mov	r21,r23
  800c4c:	9821883a 	mov	r16,r19
  800c50:	1829883a 	mov	r20,r3
  800c54:	a08000a0 	cmpeqi	r2,r20,2
  800c58:	1000261e 	bne	r2,zero,800cf4 <__mulsf3+0x1c0>
  800c5c:	a08000e0 	cmpeqi	r2,r20,3
  800c60:	1000ae1e 	bne	r2,zero,800f1c <__mulsf3+0x3e8>
  800c64:	a0800060 	cmpeqi	r2,r20,1
  800c68:	10004e26 	beq	r2,zero,800da4 <__mulsf3+0x270>
  800c6c:	0007883a 	mov	r3,zero
  800c70:	0009883a 	mov	r4,zero
  800c74:	1c003fcc 	andi	r16,r3,255
  800c78:	a8803fcc 	andi	r2,r21,255
  800c7c:	802095fa 	slli	r16,r16,23
  800c80:	100497fa 	slli	r2,r2,31
  800c84:	8120b03a 	or	r16,r16,r4
  800c88:	8084b03a 	or	r2,r16,r2
  800c8c:	dfc00a17 	ldw	ra,40(sp)
  800c90:	df000917 	ldw	fp,36(sp)
  800c94:	ddc00817 	ldw	r23,32(sp)
  800c98:	dd800717 	ldw	r22,28(sp)
  800c9c:	dd400617 	ldw	r21,24(sp)
  800ca0:	dd000517 	ldw	r20,20(sp)
  800ca4:	dcc00417 	ldw	r19,16(sp)
  800ca8:	dc800317 	ldw	r18,12(sp)
  800cac:	dc400217 	ldw	r17,8(sp)
  800cb0:	dc000117 	ldw	r16,4(sp)
  800cb4:	dec00b04 	addi	sp,sp,44
  800cb8:	f800283a 	ret
  800cbc:	80005d1e 	bne	r16,zero,800e34 <__mulsf3+0x300>
  800cc0:	04800104 	movi	r18,4
  800cc4:	0023883a 	mov	r17,zero
  800cc8:	05000044 	movi	r20,1
  800ccc:	003fb206 	br	800b98 <__mulsf3+0x64>
  800cd0:	8000541e 	bne	r16,zero,800e24 <__mulsf3+0x2f0>
  800cd4:	04800204 	movi	r18,8
  800cd8:	04403fc4 	movi	r17,255
  800cdc:	05000084 	movi	r20,2
  800ce0:	003fad06 	br	800b98 <__mulsf3+0x64>
  800ce4:	9800471e 	bne	r19,zero,800e04 <__mulsf3+0x2d0>
  800ce8:	94800054 	ori	r18,r18,1
  800cec:	00c00044 	movi	r3,1
  800cf0:	003fb706 	br	800bd0 <__mulsf3+0x9c>
  800cf4:	00ffffc4 	movi	r3,-1
  800cf8:	0009883a 	mov	r4,zero
  800cfc:	003fdd06 	br	800c74 <__mulsf3+0x140>
  800d00:	8028d43a 	srli	r20,r16,16
  800d04:	9cbfffcc 	andi	r18,r19,65535
  800d08:	843fffcc 	andi	r16,r16,65535
  800d0c:	900b883a 	mov	r5,r18
  800d10:	8009883a 	mov	r4,r16
  800d14:	08015040 	call	801504 <__mulsi3>
  800d18:	9826d43a 	srli	r19,r19,16
  800d1c:	900b883a 	mov	r5,r18
  800d20:	a009883a 	mov	r4,r20
  800d24:	1025883a 	mov	r18,r2
  800d28:	08015040 	call	801504 <__mulsi3>
  800d2c:	980b883a 	mov	r5,r19
  800d30:	a009883a 	mov	r4,r20
  800d34:	1029883a 	mov	r20,r2
  800d38:	08015040 	call	801504 <__mulsi3>
  800d3c:	9809883a 	mov	r4,r19
  800d40:	800b883a 	mov	r5,r16
  800d44:	1027883a 	mov	r19,r2
  800d48:	08015040 	call	801504 <__mulsi3>
  800d4c:	9006d43a 	srli	r3,r18,16
  800d50:	1505883a 	add	r2,r2,r20
  800d54:	1887883a 	add	r3,r3,r2
  800d58:	1d00022e 	bgeu	r3,r20,800d64 <__mulsf3+0x230>
  800d5c:	00800074 	movhi	r2,1
  800d60:	98a7883a 	add	r19,r19,r2
  800d64:	1808943a 	slli	r4,r3,16
  800d68:	1820d43a 	srli	r16,r3,16
  800d6c:	94bfffcc 	andi	r18,r18,65535
  800d70:	2489883a 	add	r4,r4,r18
  800d74:	200a91ba 	slli	r5,r4,6
  800d78:	84e1883a 	add	r16,r16,r19
  800d7c:	802091ba 	slli	r16,r16,6
  800d80:	2008d6ba 	srli	r4,r4,26
  800d84:	2804c03a 	cmpne	r2,r5,zero
  800d88:	80c2002c 	andhi	r3,r16,2048
  800d8c:	1108b03a 	or	r4,r2,r4
  800d90:	8120b03a 	or	r16,r16,r4
  800d94:	18005b26 	beq	r3,zero,800f04 <__mulsf3+0x3d0>
  800d98:	8004d07a 	srli	r2,r16,1
  800d9c:	8400004c 	andi	r16,r16,1
  800da0:	1420b03a 	or	r16,r2,r16
  800da4:	e0c01fc4 	addi	r3,fp,127
  800da8:	00c0320e 	bge	zero,r3,800e74 <__mulsf3+0x340>
  800dac:	808001cc 	andi	r2,r16,7
  800db0:	10000426 	beq	r2,zero,800dc4 <__mulsf3+0x290>
  800db4:	808003cc 	andi	r2,r16,15
  800db8:	10800120 	cmpeqi	r2,r2,4
  800dbc:	1000011e 	bne	r2,zero,800dc4 <__mulsf3+0x290>
  800dc0:	84000104 	addi	r16,r16,4
  800dc4:	8082002c 	andhi	r2,r16,2048
  800dc8:	10000426 	beq	r2,zero,800ddc <__mulsf3+0x2a8>
  800dcc:	00be0034 	movhi	r2,63488
  800dd0:	10bfffc4 	addi	r2,r2,-1
  800dd4:	80a0703a 	and	r16,r16,r2
  800dd8:	e0c02004 	addi	r3,fp,128
  800ddc:	18803fc8 	cmpgei	r2,r3,255
  800de0:	103fc41e 	bne	r2,zero,800cf4 <__mulsf3+0x1c0>
  800de4:	802091ba 	slli	r16,r16,6
  800de8:	8008d27a 	srli	r4,r16,9
  800dec:	003fa106 	br	800c74 <__mulsf3+0x140>
  800df0:	b02b883a 	mov	r21,r22
  800df4:	003f9706 	br	800c54 <__mulsf3+0x120>
  800df8:	948000d4 	ori	r18,r18,3
  800dfc:	00c000c4 	movi	r3,3
  800e00:	003f7306 	br	800bd0 <__mulsf3+0x9c>
  800e04:	9809883a 	mov	r4,r19
  800e08:	08014b00 	call	8014b0 <__clzsi2>
  800e0c:	10fffec4 	addi	r3,r2,-5
  800e10:	88a3c83a 	sub	r17,r17,r2
  800e14:	98e6983a 	sll	r19,r19,r3
  800e18:	8c7fe284 	addi	r17,r17,-118
  800e1c:	0007883a 	mov	r3,zero
  800e20:	003f6b06 	br	800bd0 <__mulsf3+0x9c>
  800e24:	04800304 	movi	r18,12
  800e28:	04403fc4 	movi	r17,255
  800e2c:	050000c4 	movi	r20,3
  800e30:	003f5906 	br	800b98 <__mulsf3+0x64>
  800e34:	8009883a 	mov	r4,r16
  800e38:	d9400015 	stw	r5,0(sp)
  800e3c:	08014b00 	call	8014b0 <__clzsi2>
  800e40:	10fffec4 	addi	r3,r2,-5
  800e44:	047fe284 	movi	r17,-118
  800e48:	80e0983a 	sll	r16,r16,r3
  800e4c:	d9400017 	ldw	r5,0(sp)
  800e50:	88a3c83a 	sub	r17,r17,r2
  800e54:	0025883a 	mov	r18,zero
  800e58:	0029883a 	mov	r20,zero
  800e5c:	003f4e06 	br	800b98 <__mulsf3+0x64>
  800e60:	01002034 	movhi	r4,128
  800e64:	002b883a 	mov	r21,zero
  800e68:	213fffc4 	addi	r4,r4,-1
  800e6c:	00ffffc4 	movi	r3,-1
  800e70:	003f8006 	br	800c74 <__mulsf3+0x140>
  800e74:	00800044 	movi	r2,1
  800e78:	10c7c83a 	sub	r3,r2,r3
  800e7c:	18800708 	cmpgei	r2,r3,28
  800e80:	103f7a1e 	bne	r2,zero,800c6c <__mulsf3+0x138>
  800e84:	e1002784 	addi	r4,fp,158
  800e88:	8108983a 	sll	r4,r16,r4
  800e8c:	80e0d83a 	srl	r16,r16,r3
  800e90:	2008c03a 	cmpne	r4,r4,zero
  800e94:	8120b03a 	or	r16,r16,r4
  800e98:	808001cc 	andi	r2,r16,7
  800e9c:	10000426 	beq	r2,zero,800eb0 <__mulsf3+0x37c>
  800ea0:	808003cc 	andi	r2,r16,15
  800ea4:	10800120 	cmpeqi	r2,r2,4
  800ea8:	1000011e 	bne	r2,zero,800eb0 <__mulsf3+0x37c>
  800eac:	84000104 	addi	r16,r16,4
  800eb0:	8081002c 	andhi	r2,r16,1024
  800eb4:	10001526 	beq	r2,zero,800f0c <__mulsf3+0x3d8>
  800eb8:	00c00044 	movi	r3,1
  800ebc:	0009883a 	mov	r4,zero
  800ec0:	003f6c06 	br	800c74 <__mulsf3+0x140>
  800ec4:	8080102c 	andhi	r2,r16,64
  800ec8:	10000826 	beq	r2,zero,800eec <__mulsf3+0x3b8>
  800ecc:	9880102c 	andhi	r2,r19,64
  800ed0:	1000061e 	bne	r2,zero,800eec <__mulsf3+0x3b8>
  800ed4:	00802034 	movhi	r2,128
  800ed8:	99001034 	orhi	r4,r19,64
  800edc:	10bfffc4 	addi	r2,r2,-1
  800ee0:	2088703a 	and	r4,r4,r2
  800ee4:	b82b883a 	mov	r21,r23
  800ee8:	003fe006 	br	800e6c <__mulsf3+0x338>
  800eec:	00802034 	movhi	r2,128
  800ef0:	81001034 	orhi	r4,r16,64
  800ef4:	10bfffc4 	addi	r2,r2,-1
  800ef8:	2088703a 	and	r4,r4,r2
  800efc:	b02b883a 	mov	r21,r22
  800f00:	003fda06 	br	800e6c <__mulsf3+0x338>
  800f04:	8839883a 	mov	fp,r17
  800f08:	003fa606 	br	800da4 <__mulsf3+0x270>
  800f0c:	802091ba 	slli	r16,r16,6
  800f10:	0007883a 	mov	r3,zero
  800f14:	8008d27a 	srli	r4,r16,9
  800f18:	003f5606 	br	800c74 <__mulsf3+0x140>
  800f1c:	00802034 	movhi	r2,128
  800f20:	81001034 	orhi	r4,r16,64
  800f24:	10bfffc4 	addi	r2,r2,-1
  800f28:	2088703a 	and	r4,r4,r2
  800f2c:	003fcf06 	br	800e6c <__mulsf3+0x338>

00800f30 <__subsf3>:
  800f30:	2818d5fa 	srli	r12,r5,23
  800f34:	2006d5fa 	srli	r3,r4,23
  800f38:	200ed7fa 	srli	r7,r4,31
  800f3c:	01802034 	movhi	r6,128
  800f40:	defffc04 	addi	sp,sp,-16
  800f44:	31bfffc4 	addi	r6,r6,-1
  800f48:	63003fcc 	andi	r12,r12,255
  800f4c:	3108703a 	and	r4,r6,r4
  800f50:	3150703a 	and	r8,r6,r5
  800f54:	1a403fcc 	andi	r9,r3,255
  800f58:	dc800215 	stw	r18,8(sp)
  800f5c:	dc400115 	stw	r17,4(sp)
  800f60:	dfc00315 	stw	ra,12(sp)
  800f64:	dc000015 	stw	r16,0(sp)
  800f68:	63403fd8 	cmpnei	r13,r12,255
  800f6c:	3823883a 	mov	r17,r7
  800f70:	201490fa 	slli	r10,r4,3
  800f74:	280ad7fa 	srli	r5,r5,31
  800f78:	401690fa 	slli	r11,r8,3
  800f7c:	201d883a 	mov	r14,r4
  800f80:	4825883a 	mov	r18,r9
  800f84:	39c03fcc 	andi	r7,r7,255
  800f88:	4b0dc83a 	sub	r6,r9,r12
  800f8c:	68004f26 	beq	r13,zero,8010cc <__subsf3+0x19c>
  800f90:	2b40005c 	xori	r13,r5,1
  800f94:	3b405826 	beq	r7,r13,8010f8 <__subsf3+0x1c8>
  800f98:	01803b0e 	bge	zero,r6,801088 <__subsf3+0x158>
  800f9c:	60004f1e 	bne	r12,zero,8010dc <__subsf3+0x1ac>
  800fa0:	58009226 	beq	r11,zero,8011ec <__subsf3+0x2bc>
  800fa4:	31bfffc4 	addi	r6,r6,-1
  800fa8:	3000e326 	beq	r6,zero,801338 <__subsf3+0x408>
  800fac:	4a403fe0 	cmpeqi	r9,r9,255
  800fb0:	48003f1e 	bne	r9,zero,8010b0 <__subsf3+0x180>
  800fb4:	30800708 	cmpgei	r2,r6,28
  800fb8:	10004d1e 	bne	r2,zero,8010f0 <__subsf3+0x1c0>
  800fbc:	00c00804 	movi	r3,32
  800fc0:	1987c83a 	sub	r3,r3,r6
  800fc4:	58c6983a 	sll	r3,r11,r3
  800fc8:	5984d83a 	srl	r2,r11,r6
  800fcc:	180cc03a 	cmpne	r6,r3,zero
  800fd0:	1184b03a 	or	r2,r2,r6
  800fd4:	5085c83a 	sub	r2,r10,r2
  800fd8:	10c1002c 	andhi	r3,r2,1024
  800fdc:	18008026 	beq	r3,zero,8011e0 <__subsf3+0x2b0>
  800fe0:	04010034 	movhi	r16,1024
  800fe4:	843fffc4 	addi	r16,r16,-1
  800fe8:	1420703a 	and	r16,r2,r16
  800fec:	8009883a 	mov	r4,r16
  800ff0:	08014b00 	call	8014b0 <__clzsi2>
  800ff4:	10fffec4 	addi	r3,r2,-5
  800ff8:	80c4983a 	sll	r2,r16,r3
  800ffc:	1c809616 	blt	r3,r18,801258 <__subsf3+0x328>
  801000:	1c87c83a 	sub	r3,r3,r18
  801004:	1c000044 	addi	r16,r3,1
  801008:	01000804 	movi	r4,32
  80100c:	2409c83a 	sub	r4,r4,r16
  801010:	1108983a 	sll	r4,r2,r4
  801014:	1404d83a 	srl	r2,r2,r16
  801018:	0025883a 	mov	r18,zero
  80101c:	2008c03a 	cmpne	r4,r4,zero
  801020:	1104b03a 	or	r2,r2,r4
  801024:	10c001cc 	andi	r3,r2,7
  801028:	18000426 	beq	r3,zero,80103c <__subsf3+0x10c>
  80102c:	10c003cc 	andi	r3,r2,15
  801030:	18c00120 	cmpeqi	r3,r3,4
  801034:	1800011e 	bne	r3,zero,80103c <__subsf3+0x10c>
  801038:	10800104 	addi	r2,r2,4
  80103c:	10c1002c 	andhi	r3,r2,1024
  801040:	18006926 	beq	r3,zero,8011e8 <__subsf3+0x2b8>
  801044:	90c00044 	addi	r3,r18,1
  801048:	19003fe0 	cmpeqi	r4,r3,255
  80104c:	20006e1e 	bne	r4,zero,801208 <__subsf3+0x2d8>
  801050:	100491ba 	slli	r2,r2,6
  801054:	1008d27a 	srli	r4,r2,9
  801058:	18803fcc 	andi	r2,r3,255
  80105c:	100495fa 	slli	r2,r2,23
  801060:	8c403fcc 	andi	r17,r17,255
  801064:	882297fa 	slli	r17,r17,31
  801068:	1104b03a 	or	r2,r2,r4
  80106c:	1444b03a 	or	r2,r2,r17
  801070:	dfc00317 	ldw	ra,12(sp)
  801074:	dc800217 	ldw	r18,8(sp)
  801078:	dc400117 	ldw	r17,4(sp)
  80107c:	dc000017 	ldw	r16,0(sp)
  801080:	dec00404 	addi	sp,sp,16
  801084:	f800283a 	ret
  801088:	30003526 	beq	r6,zero,801160 <__subsf3+0x230>
  80108c:	6247c83a 	sub	r3,r12,r9
  801090:	6823883a 	mov	r17,r13
  801094:	48007d1e 	bne	r9,zero,80128c <__subsf3+0x35c>
  801098:	50009926 	beq	r10,zero,801300 <__subsf3+0x3d0>
  80109c:	18ffffc4 	addi	r3,r3,-1
  8010a0:	1800b226 	beq	r3,zero,80136c <__subsf3+0x43c>
  8010a4:	60803fe0 	cmpeqi	r2,r12,255
  8010a8:	10007b26 	beq	r2,zero,801298 <__subsf3+0x368>
  8010ac:	401d883a 	mov	r14,r8
  8010b0:	70005526 	beq	r14,zero,801208 <__subsf3+0x2d8>
  8010b4:	00802034 	movhi	r2,128
  8010b8:	71001034 	orhi	r4,r14,64
  8010bc:	10bfffc4 	addi	r2,r2,-1
  8010c0:	2088703a 	and	r4,r4,r2
  8010c4:	00ffffc4 	movi	r3,-1
  8010c8:	003fe306 	br	801058 <__subsf3+0x128>
  8010cc:	583fb026 	beq	r11,zero,800f90 <__subsf3+0x60>
  8010d0:	2b403fcc 	andi	r13,r5,255
  8010d4:	39404f26 	beq	r7,r5,801214 <__subsf3+0x2e4>
  8010d8:	01bfeb0e 	bge	zero,r6,801088 <__subsf3+0x158>
  8010dc:	4a403fe0 	cmpeqi	r9,r9,255
  8010e0:	483ff31e 	bne	r9,zero,8010b0 <__subsf3+0x180>
  8010e4:	30800708 	cmpgei	r2,r6,28
  8010e8:	5ac10034 	orhi	r11,r11,1024
  8010ec:	103fb326 	beq	r2,zero,800fbc <__subsf3+0x8c>
  8010f0:	00800044 	movi	r2,1
  8010f4:	003fb706 	br	800fd4 <__subsf3+0xa4>
  8010f8:	0180460e 	bge	zero,r6,801214 <__subsf3+0x2e4>
  8010fc:	60002526 	beq	r12,zero,801194 <__subsf3+0x264>
  801100:	4a403fe0 	cmpeqi	r9,r9,255
  801104:	483fea1e 	bne	r9,zero,8010b0 <__subsf3+0x180>
  801108:	5ac10034 	orhi	r11,r11,1024
  80110c:	30800708 	cmpgei	r2,r6,28
  801110:	1000671e 	bne	r2,zero,8012b0 <__subsf3+0x380>
  801114:	00c00804 	movi	r3,32
  801118:	1987c83a 	sub	r3,r3,r6
  80111c:	58c6983a 	sll	r3,r11,r3
  801120:	5984d83a 	srl	r2,r11,r6
  801124:	180cc03a 	cmpne	r6,r3,zero
  801128:	1184b03a 	or	r2,r2,r6
  80112c:	1285883a 	add	r2,r2,r10
  801130:	10c1002c 	andhi	r3,r2,1024
  801134:	18002a26 	beq	r3,zero,8011e0 <__subsf3+0x2b0>
  801138:	94800044 	addi	r18,r18,1
  80113c:	90c03fe0 	cmpeqi	r3,r18,255
  801140:	1800311e 	bne	r3,zero,801208 <__subsf3+0x2d8>
  801144:	1008d07a 	srli	r4,r2,1
  801148:	00df8034 	movhi	r3,32256
  80114c:	18ffffc4 	addi	r3,r3,-1
  801150:	1080004c 	andi	r2,r2,1
  801154:	20c8703a 	and	r4,r4,r3
  801158:	2084b03a 	or	r2,r4,r2
  80115c:	003fb106 	br	801024 <__subsf3+0xf4>
  801160:	48800044 	addi	r2,r9,1
  801164:	10803f8c 	andi	r2,r2,254
  801168:	1000401e 	bne	r2,zero,80126c <__subsf3+0x33c>
  80116c:	48006a1e 	bne	r9,zero,801318 <__subsf3+0x3e8>
  801170:	50008126 	beq	r10,zero,801378 <__subsf3+0x448>
  801174:	583fb826 	beq	r11,zero,801058 <__subsf3+0x128>
  801178:	52c5c83a 	sub	r2,r10,r11
  80117c:	1101002c 	andhi	r4,r2,1024
  801180:	20008126 	beq	r4,zero,801388 <__subsf3+0x458>
  801184:	5a85c83a 	sub	r2,r11,r10
  801188:	6823883a 	mov	r17,r13
  80118c:	0025883a 	mov	r18,zero
  801190:	003fa406 	br	801024 <__subsf3+0xf4>
  801194:	58001526 	beq	r11,zero,8011ec <__subsf3+0x2bc>
  801198:	31bfffc4 	addi	r6,r6,-1
  80119c:	30006426 	beq	r6,zero,801330 <__subsf3+0x400>
  8011a0:	4a403fe0 	cmpeqi	r9,r9,255
  8011a4:	483fd926 	beq	r9,zero,80110c <__subsf3+0x1dc>
  8011a8:	003fc106 	br	8010b0 <__subsf3+0x180>
  8011ac:	4c800044 	addi	r18,r9,1
  8011b0:	90803f8c 	andi	r2,r18,254
  8011b4:	10004d1e 	bne	r2,zero,8012ec <__subsf3+0x3bc>
  8011b8:	4800611e 	bne	r9,zero,801340 <__subsf3+0x410>
  8011bc:	50007626 	beq	r10,zero,801398 <__subsf3+0x468>
  8011c0:	583fa526 	beq	r11,zero,801058 <__subsf3+0x128>
  8011c4:	52c5883a 	add	r2,r10,r11
  8011c8:	10c1002c 	andhi	r3,r2,1024
  8011cc:	18007426 	beq	r3,zero,8013a0 <__subsf3+0x470>
  8011d0:	00ff0034 	movhi	r3,64512
  8011d4:	18ffffc4 	addi	r3,r3,-1
  8011d8:	10c4703a 	and	r2,r2,r3
  8011dc:	04800044 	movi	r18,1
  8011e0:	10c001cc 	andi	r3,r2,7
  8011e4:	183f911e 	bne	r3,zero,80102c <__subsf3+0xfc>
  8011e8:	101cd0fa 	srli	r14,r2,3
  8011ec:	90803fe0 	cmpeqi	r2,r18,255
  8011f0:	103faf1e 	bne	r2,zero,8010b0 <__subsf3+0x180>
  8011f4:	00802034 	movhi	r2,128
  8011f8:	10bfffc4 	addi	r2,r2,-1
  8011fc:	7088703a 	and	r4,r14,r2
  801200:	9007883a 	mov	r3,r18
  801204:	003f9406 	br	801058 <__subsf3+0x128>
  801208:	00ffffc4 	movi	r3,-1
  80120c:	0009883a 	mov	r4,zero
  801210:	003f9106 	br	801058 <__subsf3+0x128>
  801214:	303fe526 	beq	r6,zero,8011ac <__subsf3+0x27c>
  801218:	6247c83a 	sub	r3,r12,r9
  80121c:	48002d26 	beq	r9,zero,8012d4 <__subsf3+0x3a4>
  801220:	60803fe0 	cmpeqi	r2,r12,255
  801224:	103fa11e 	bne	r2,zero,8010ac <__subsf3+0x17c>
  801228:	52810034 	orhi	r10,r10,1024
  80122c:	18800708 	cmpgei	r2,r3,28
  801230:	10004c1e 	bne	r2,zero,801364 <__subsf3+0x434>
  801234:	00800804 	movi	r2,32
  801238:	10c5c83a 	sub	r2,r2,r3
  80123c:	5084983a 	sll	r2,r10,r2
  801240:	50c6d83a 	srl	r3,r10,r3
  801244:	1004c03a 	cmpne	r2,r2,zero
  801248:	1888b03a 	or	r4,r3,r2
  80124c:	22c5883a 	add	r2,r4,r11
  801250:	6025883a 	mov	r18,r12
  801254:	003fb606 	br	801130 <__subsf3+0x200>
  801258:	013f0034 	movhi	r4,64512
  80125c:	213fffc4 	addi	r4,r4,-1
  801260:	90e5c83a 	sub	r18,r18,r3
  801264:	1104703a 	and	r2,r2,r4
  801268:	003f6e06 	br	801024 <__subsf3+0xf4>
  80126c:	52e1c83a 	sub	r16,r10,r11
  801270:	8081002c 	andhi	r2,r16,1024
  801274:	1000251e 	bne	r2,zero,80130c <__subsf3+0x3dc>
  801278:	803f5c1e 	bne	r16,zero,800fec <__subsf3+0xbc>
  80127c:	0023883a 	mov	r17,zero
  801280:	0007883a 	mov	r3,zero
  801284:	0009883a 	mov	r4,zero
  801288:	003f7306 	br	801058 <__subsf3+0x128>
  80128c:	60803fe0 	cmpeqi	r2,r12,255
  801290:	103f861e 	bne	r2,zero,8010ac <__subsf3+0x17c>
  801294:	52810034 	orhi	r10,r10,1024
  801298:	18800708 	cmpgei	r2,r3,28
  80129c:	10000626 	beq	r2,zero,8012b8 <__subsf3+0x388>
  8012a0:	01000044 	movi	r4,1
  8012a4:	5905c83a 	sub	r2,r11,r4
  8012a8:	6025883a 	mov	r18,r12
  8012ac:	003f4a06 	br	800fd8 <__subsf3+0xa8>
  8012b0:	00800044 	movi	r2,1
  8012b4:	003f9d06 	br	80112c <__subsf3+0x1fc>
  8012b8:	00800804 	movi	r2,32
  8012bc:	10c5c83a 	sub	r2,r2,r3
  8012c0:	5084983a 	sll	r2,r10,r2
  8012c4:	50c6d83a 	srl	r3,r10,r3
  8012c8:	1004c03a 	cmpne	r2,r2,zero
  8012cc:	1888b03a 	or	r4,r3,r2
  8012d0:	003ff406 	br	8012a4 <__subsf3+0x374>
  8012d4:	50000a26 	beq	r10,zero,801300 <__subsf3+0x3d0>
  8012d8:	18ffffc4 	addi	r3,r3,-1
  8012dc:	18003226 	beq	r3,zero,8013a8 <__subsf3+0x478>
  8012e0:	60803fe0 	cmpeqi	r2,r12,255
  8012e4:	103fd126 	beq	r2,zero,80122c <__subsf3+0x2fc>
  8012e8:	003f7006 	br	8010ac <__subsf3+0x17c>
  8012ec:	90803fe0 	cmpeqi	r2,r18,255
  8012f0:	103fc51e 	bne	r2,zero,801208 <__subsf3+0x2d8>
  8012f4:	52c5883a 	add	r2,r10,r11
  8012f8:	1004d07a 	srli	r2,r2,1
  8012fc:	003fb806 	br	8011e0 <__subsf3+0x2b0>
  801300:	401d883a 	mov	r14,r8
  801304:	6025883a 	mov	r18,r12
  801308:	003fb806 	br	8011ec <__subsf3+0x2bc>
  80130c:	5aa1c83a 	sub	r16,r11,r10
  801310:	6823883a 	mov	r17,r13
  801314:	003f3506 	br	800fec <__subsf3+0xbc>
  801318:	50000a1e 	bne	r10,zero,801344 <__subsf3+0x414>
  80131c:	58000e1e 	bne	r11,zero,801358 <__subsf3+0x428>
  801320:	01002034 	movhi	r4,128
  801324:	0023883a 	mov	r17,zero
  801328:	213fffc4 	addi	r4,r4,-1
  80132c:	003f6506 	br	8010c4 <__subsf3+0x194>
  801330:	52c5883a 	add	r2,r10,r11
  801334:	003f7e06 	br	801130 <__subsf3+0x200>
  801338:	52c5c83a 	sub	r2,r10,r11
  80133c:	003f2606 	br	800fd8 <__subsf3+0xa8>
  801340:	503f5a26 	beq	r10,zero,8010ac <__subsf3+0x17c>
  801344:	583f5a26 	beq	r11,zero,8010b0 <__subsf3+0x180>
  801348:	2080102c 	andhi	r2,r4,64
  80134c:	103f5826 	beq	r2,zero,8010b0 <__subsf3+0x180>
  801350:	4080102c 	andhi	r2,r8,64
  801354:	103f561e 	bne	r2,zero,8010b0 <__subsf3+0x180>
  801358:	6823883a 	mov	r17,r13
  80135c:	401d883a 	mov	r14,r8
  801360:	003f5306 	br	8010b0 <__subsf3+0x180>
  801364:	01000044 	movi	r4,1
  801368:	003fb806 	br	80124c <__subsf3+0x31c>
  80136c:	5a85c83a 	sub	r2,r11,r10
  801370:	6025883a 	mov	r18,r12
  801374:	003f1806 	br	800fd8 <__subsf3+0xa8>
  801378:	58000426 	beq	r11,zero,80138c <__subsf3+0x45c>
  80137c:	6823883a 	mov	r17,r13
  801380:	4009883a 	mov	r4,r8
  801384:	003f3406 	br	801058 <__subsf3+0x128>
  801388:	1000051e 	bne	r2,zero,8013a0 <__subsf3+0x470>
  80138c:	0023883a 	mov	r17,zero
  801390:	0009883a 	mov	r4,zero
  801394:	003f3006 	br	801058 <__subsf3+0x128>
  801398:	4009883a 	mov	r4,r8
  80139c:	003f2e06 	br	801058 <__subsf3+0x128>
  8013a0:	0025883a 	mov	r18,zero
  8013a4:	003f8e06 	br	8011e0 <__subsf3+0x2b0>
  8013a8:	52c5883a 	add	r2,r10,r11
  8013ac:	6025883a 	mov	r18,r12
  8013b0:	003f5f06 	br	801130 <__subsf3+0x200>

008013b4 <__extendsfdf2>:
  8013b4:	200ad5fa 	srli	r5,r4,23
  8013b8:	defffd04 	addi	sp,sp,-12
  8013bc:	dc000015 	stw	r16,0(sp)
  8013c0:	29403fcc 	andi	r5,r5,255
  8013c4:	04002034 	movhi	r16,128
  8013c8:	28800044 	addi	r2,r5,1
  8013cc:	dc400115 	stw	r17,4(sp)
  8013d0:	843fffc4 	addi	r16,r16,-1
  8013d4:	dfc00215 	stw	ra,8(sp)
  8013d8:	10803f8c 	andi	r2,r2,254
  8013dc:	2022d7fa 	srli	r17,r4,31
  8013e0:	8120703a 	and	r16,r16,r4
  8013e4:	10000d26 	beq	r2,zero,80141c <__extendsfdf2+0x68>
  8013e8:	8008d0fa 	srli	r4,r16,3
  8013ec:	8020977a 	slli	r16,r16,29
  8013f0:	28c0e004 	addi	r3,r5,896
  8013f4:	180a953a 	slli	r5,r3,20
  8013f8:	880697fa 	slli	r3,r17,31
  8013fc:	8005883a 	mov	r2,r16
  801400:	290ab03a 	or	r5,r5,r4
  801404:	28c6b03a 	or	r3,r5,r3
  801408:	dfc00217 	ldw	ra,8(sp)
  80140c:	dc400117 	ldw	r17,4(sp)
  801410:	dc000017 	ldw	r16,0(sp)
  801414:	dec00304 	addi	sp,sp,12
  801418:	f800283a 	ret
  80141c:	2800111e 	bne	r5,zero,801464 <__extendsfdf2+0xb0>
  801420:	80001926 	beq	r16,zero,801488 <__extendsfdf2+0xd4>
  801424:	8009883a 	mov	r4,r16
  801428:	08014b00 	call	8014b0 <__clzsi2>
  80142c:	10c002c8 	cmpgei	r3,r2,11
  801430:	18001b1e 	bne	r3,zero,8014a0 <__extendsfdf2+0xec>
  801434:	010002c4 	movi	r4,11
  801438:	2089c83a 	sub	r4,r4,r2
  80143c:	10c00544 	addi	r3,r2,21
  801440:	810ad83a 	srl	r5,r16,r4
  801444:	80e0983a 	sll	r16,r16,r3
  801448:	00c0e244 	movi	r3,905
  80144c:	01000434 	movhi	r4,16
  801450:	213fffc4 	addi	r4,r4,-1
  801454:	1885c83a 	sub	r2,r3,r2
  801458:	2908703a 	and	r4,r5,r4
  80145c:	10c1ffcc 	andi	r3,r2,2047
  801460:	003fe406 	br	8013f4 <__extendsfdf2+0x40>
  801464:	80000b26 	beq	r16,zero,801494 <__extendsfdf2+0xe0>
  801468:	800ad0fa 	srli	r5,r16,3
  80146c:	00800434 	movhi	r2,16
  801470:	10bfffc4 	addi	r2,r2,-1
  801474:	29000234 	orhi	r4,r5,8
  801478:	8020977a 	slli	r16,r16,29
  80147c:	2088703a 	and	r4,r4,r2
  801480:	00c1ffc4 	movi	r3,2047
  801484:	003fdb06 	br	8013f4 <__extendsfdf2+0x40>
  801488:	0007883a 	mov	r3,zero
  80148c:	0009883a 	mov	r4,zero
  801490:	003fd806 	br	8013f4 <__extendsfdf2+0x40>
  801494:	00c1ffc4 	movi	r3,2047
  801498:	0009883a 	mov	r4,zero
  80149c:	003fd506 	br	8013f4 <__extendsfdf2+0x40>
  8014a0:	113ffd44 	addi	r4,r2,-11
  8014a4:	810a983a 	sll	r5,r16,r4
  8014a8:	0021883a 	mov	r16,zero
  8014ac:	003fe606 	br	801448 <__extendsfdf2+0x94>

008014b0 <__clzsi2>:
  8014b0:	00bfffd4 	movui	r2,65535
  8014b4:	11000436 	bltu	r2,r4,8014c8 <__clzsi2+0x18>
  8014b8:	20804030 	cmpltui	r2,r4,256
  8014bc:	10000e26 	beq	r2,zero,8014f8 <__clzsi2+0x48>
  8014c0:	01400804 	movi	r5,32
  8014c4:	00000406 	br	8014d8 <__clzsi2+0x28>
  8014c8:	00804034 	movhi	r2,256
  8014cc:	20800736 	bltu	r4,r2,8014ec <__clzsi2+0x3c>
  8014d0:	2008d63a 	srli	r4,r4,24
  8014d4:	01400204 	movi	r5,8
  8014d8:	00c02074 	movhi	r3,129
  8014dc:	20c7883a 	add	r3,r4,r3
  8014e0:	18833503 	ldbu	r2,3284(r3)
  8014e4:	2885c83a 	sub	r2,r5,r2
  8014e8:	f800283a 	ret
  8014ec:	2008d43a 	srli	r4,r4,16
  8014f0:	01400404 	movi	r5,16
  8014f4:	003ff806 	br	8014d8 <__clzsi2+0x28>
  8014f8:	2008d23a 	srli	r4,r4,8
  8014fc:	01400604 	movi	r5,24
  801500:	003ff506 	br	8014d8 <__clzsi2+0x28>

00801504 <__mulsi3>:
  801504:	0005883a 	mov	r2,zero
  801508:	20000726 	beq	r4,zero,801528 <__mulsi3+0x24>
  80150c:	20c0004c 	andi	r3,r4,1
  801510:	2008d07a 	srli	r4,r4,1
  801514:	18000126 	beq	r3,zero,80151c <__mulsi3+0x18>
  801518:	1145883a 	add	r2,r2,r5
  80151c:	294b883a 	add	r5,r5,r5
  801520:	203ffa1e 	bne	r4,zero,80150c <__mulsi3+0x8>
  801524:	f800283a 	ret
  801528:	f800283a 	ret

0080152c <_printf_r>:
  80152c:	defffd04 	addi	sp,sp,-12
  801530:	2805883a 	mov	r2,r5
  801534:	dfc00015 	stw	ra,0(sp)
  801538:	d9800115 	stw	r6,4(sp)
  80153c:	d9c00215 	stw	r7,8(sp)
  801540:	21400217 	ldw	r5,8(r4)
  801544:	d9c00104 	addi	r7,sp,4
  801548:	100d883a 	mov	r6,r2
  80154c:	08017080 	call	801708 <___vfprintf_internal_r>
  801550:	dfc00017 	ldw	ra,0(sp)
  801554:	dec00304 	addi	sp,sp,12
  801558:	f800283a 	ret

0080155c <printf>:
  80155c:	defffc04 	addi	sp,sp,-16
  801560:	dfc00015 	stw	ra,0(sp)
  801564:	d9400115 	stw	r5,4(sp)
  801568:	d9800215 	stw	r6,8(sp)
  80156c:	d9c00315 	stw	r7,12(sp)
  801570:	00802074 	movhi	r2,129
  801574:	108bb617 	ldw	r2,11992(r2)
  801578:	200b883a 	mov	r5,r4
  80157c:	d9800104 	addi	r6,sp,4
  801580:	11000217 	ldw	r4,8(r2)
  801584:	08037f40 	call	8037f4 <__vfprintf_internal>
  801588:	dfc00017 	ldw	ra,0(sp)
  80158c:	dec00404 	addi	sp,sp,16
  801590:	f800283a 	ret

00801594 <_puts_r>:
  801594:	defff504 	addi	sp,sp,-44
  801598:	dc000815 	stw	r16,32(sp)
  80159c:	2021883a 	mov	r16,r4
  8015a0:	2809883a 	mov	r4,r5
  8015a4:	dc400915 	stw	r17,36(sp)
  8015a8:	dfc00a15 	stw	ra,40(sp)
  8015ac:	2823883a 	mov	r17,r5
  8015b0:	08016700 	call	801670 <strlen>
  8015b4:	11000044 	addi	r4,r2,1
  8015b8:	d8800515 	stw	r2,20(sp)
  8015bc:	00800044 	movi	r2,1
  8015c0:	00c02074 	movhi	r3,129
  8015c4:	d8800715 	stw	r2,28(sp)
  8015c8:	d8800404 	addi	r2,sp,16
  8015cc:	18c32b04 	addi	r3,r3,3244
  8015d0:	d8800115 	stw	r2,4(sp)
  8015d4:	00800084 	movi	r2,2
  8015d8:	dc400415 	stw	r17,16(sp)
  8015dc:	d8c00615 	stw	r3,24(sp)
  8015e0:	d9000315 	stw	r4,12(sp)
  8015e4:	d8800215 	stw	r2,8(sp)
  8015e8:	81400217 	ldw	r5,8(r16)
  8015ec:	80000226 	beq	r16,zero,8015f8 <_puts_r+0x64>
  8015f0:	80800e17 	ldw	r2,56(r16)
  8015f4:	10001326 	beq	r2,zero,801644 <_puts_r+0xb0>
  8015f8:	2880030b 	ldhu	r2,12(r5)
  8015fc:	10c8000c 	andi	r3,r2,8192
  801600:	1800061e 	bne	r3,zero,80161c <_puts_r+0x88>
  801604:	28c01917 	ldw	r3,100(r5)
  801608:	0137ffc4 	movi	r4,-8193
  80160c:	10880014 	ori	r2,r2,8192
  801610:	1906703a 	and	r3,r3,r4
  801614:	2880030d 	sth	r2,12(r5)
  801618:	28c01915 	stw	r3,100(r5)
  80161c:	d9800104 	addi	r6,sp,4
  801620:	8009883a 	mov	r4,r16
  801624:	0805db80 	call	805db8 <__sfvwrite_r>
  801628:	10000b1e 	bne	r2,zero,801658 <_puts_r+0xc4>
  80162c:	00800284 	movi	r2,10
  801630:	dfc00a17 	ldw	ra,40(sp)
  801634:	dc400917 	ldw	r17,36(sp)
  801638:	dc000817 	ldw	r16,32(sp)
  80163c:	dec00b04 	addi	sp,sp,44
  801640:	f800283a 	ret
  801644:	8009883a 	mov	r4,r16
  801648:	d9400015 	stw	r5,0(sp)
  80164c:	08059580 	call	805958 <__sinit>
  801650:	d9400017 	ldw	r5,0(sp)
  801654:	003fe806 	br	8015f8 <_puts_r+0x64>
  801658:	00bfffc4 	movi	r2,-1
  80165c:	003ff406 	br	801630 <_puts_r+0x9c>

00801660 <puts>:
  801660:	00802074 	movhi	r2,129
  801664:	200b883a 	mov	r5,r4
  801668:	110bb617 	ldw	r4,11992(r2)
  80166c:	08015941 	jmpi	801594 <_puts_r>

00801670 <strlen>:
  801670:	208000cc 	andi	r2,r4,3
  801674:	10000926 	beq	r2,zero,80169c <strlen+0x2c>
  801678:	2005883a 	mov	r2,r4
  80167c:	00000306 	br	80168c <strlen+0x1c>
  801680:	10800044 	addi	r2,r2,1
  801684:	10c000cc 	andi	r3,r2,3
  801688:	18000526 	beq	r3,zero,8016a0 <strlen+0x30>
  80168c:	10c00007 	ldb	r3,0(r2)
  801690:	183ffb1e 	bne	r3,zero,801680 <strlen+0x10>
  801694:	1105c83a 	sub	r2,r2,r4
  801698:	f800283a 	ret
  80169c:	2005883a 	mov	r2,r4
  8016a0:	11400017 	ldw	r5,0(r2)
  8016a4:	01ffbff4 	movhi	r7,65279
  8016a8:	39ffbfc4 	addi	r7,r7,-257
  8016ac:	29c7883a 	add	r3,r5,r7
  8016b0:	01a02074 	movhi	r6,32897
  8016b4:	014a303a 	nor	r5,zero,r5
  8016b8:	1946703a 	and	r3,r3,r5
  8016bc:	31a02004 	addi	r6,r6,-32640
  8016c0:	1986703a 	and	r3,r3,r6
  8016c4:	1800071e 	bne	r3,zero,8016e4 <strlen+0x74>
  8016c8:	11400117 	ldw	r5,4(r2)
  8016cc:	10800104 	addi	r2,r2,4
  8016d0:	29c7883a 	add	r3,r5,r7
  8016d4:	014a303a 	nor	r5,zero,r5
  8016d8:	1946703a 	and	r3,r3,r5
  8016dc:	1986703a 	and	r3,r3,r6
  8016e0:	183ff926 	beq	r3,zero,8016c8 <strlen+0x58>
  8016e4:	10c00007 	ldb	r3,0(r2)
  8016e8:	183fea26 	beq	r3,zero,801694 <strlen+0x24>
  8016ec:	10c00047 	ldb	r3,1(r2)
  8016f0:	10800044 	addi	r2,r2,1
  8016f4:	183fe726 	beq	r3,zero,801694 <strlen+0x24>
  8016f8:	10c00047 	ldb	r3,1(r2)
  8016fc:	10800044 	addi	r2,r2,1
  801700:	183ffa1e 	bne	r3,zero,8016ec <strlen+0x7c>
  801704:	003fe306 	br	801694 <strlen+0x24>

00801708 <___vfprintf_internal_r>:
  801708:	deffbf04 	addi	sp,sp,-260
  80170c:	dfc04015 	stw	ra,256(sp)
  801710:	dd803d15 	stw	r22,244(sp)
  801714:	dcc03a15 	stw	r19,232(sp)
  801718:	dc803915 	stw	r18,228(sp)
  80171c:	2027883a 	mov	r19,r4
  801720:	2825883a 	mov	r18,r5
  801724:	302d883a 	mov	r22,r6
  801728:	d9c00615 	stw	r7,24(sp)
  80172c:	df003f15 	stw	fp,252(sp)
  801730:	ddc03e15 	stw	r23,248(sp)
  801734:	dd403c15 	stw	r21,240(sp)
  801738:	dd003b15 	stw	r20,236(sp)
  80173c:	dc403815 	stw	r17,224(sp)
  801740:	dc003715 	stw	r16,220(sp)
  801744:	08063cc0 	call	8063cc <_localeconv_r>
  801748:	10800017 	ldw	r2,0(r2)
  80174c:	1009883a 	mov	r4,r2
  801750:	d8800d15 	stw	r2,52(sp)
  801754:	08016700 	call	801670 <strlen>
  801758:	d8800b15 	stw	r2,44(sp)
  80175c:	98000226 	beq	r19,zero,801768 <___vfprintf_internal_r+0x60>
  801760:	98800e17 	ldw	r2,56(r19)
  801764:	1001d726 	beq	r2,zero,801ec4 <___vfprintf_internal_r+0x7bc>
  801768:	9080030b 	ldhu	r2,12(r18)
  80176c:	10c8000c 	andi	r3,r2,8192
  801770:	1800061e 	bne	r3,zero,80178c <___vfprintf_internal_r+0x84>
  801774:	90c01917 	ldw	r3,100(r18)
  801778:	0137ffc4 	movi	r4,-8193
  80177c:	10880014 	ori	r2,r2,8192
  801780:	1906703a 	and	r3,r3,r4
  801784:	9080030d 	sth	r2,12(r18)
  801788:	90c01915 	stw	r3,100(r18)
  80178c:	10c0020c 	andi	r3,r2,8
  801790:	1800fc26 	beq	r3,zero,801b84 <___vfprintf_internal_r+0x47c>
  801794:	90c00417 	ldw	r3,16(r18)
  801798:	1800fa26 	beq	r3,zero,801b84 <___vfprintf_internal_r+0x47c>
  80179c:	1080068c 	andi	r2,r2,26
  8017a0:	10800298 	cmpnei	r2,r2,10
  8017a4:	1000ff26 	beq	r2,zero,801ba4 <___vfprintf_internal_r+0x49c>
  8017a8:	d8802704 	addi	r2,sp,156
  8017ac:	b02f883a 	mov	r23,r22
  8017b0:	d8801a15 	stw	r2,104(sp)
  8017b4:	d8001c15 	stw	zero,112(sp)
  8017b8:	d8001b15 	stw	zero,108(sp)
  8017bc:	d8000815 	stw	zero,32(sp)
  8017c0:	d8000915 	stw	zero,36(sp)
  8017c4:	d8000a15 	stw	zero,40(sp)
  8017c8:	d8000c15 	stw	zero,48(sp)
  8017cc:	d8001015 	stw	zero,64(sp)
  8017d0:	d8000515 	stw	zero,20(sp)
  8017d4:	102d883a 	mov	r22,r2
  8017d8:	b8800007 	ldb	r2,0(r23)
  8017dc:	1000d726 	beq	r2,zero,801b3c <___vfprintf_internal_r+0x434>
  8017e0:	b821883a 	mov	r16,r23
  8017e4:	00000306 	br	8017f4 <___vfprintf_internal_r+0xec>
  8017e8:	80800047 	ldb	r2,1(r16)
  8017ec:	84000044 	addi	r16,r16,1
  8017f0:	10011926 	beq	r2,zero,801c58 <___vfprintf_internal_r+0x550>
  8017f4:	10800958 	cmpnei	r2,r2,37
  8017f8:	103ffb1e 	bne	r2,zero,8017e8 <___vfprintf_internal_r+0xe0>
  8017fc:	85e3c83a 	sub	r17,r16,r23
  801800:	85c1171e 	bne	r16,r23,801c60 <___vfprintf_internal_r+0x558>
  801804:	80800003 	ldbu	r2,0(r16)
  801808:	10803fcc 	andi	r2,r2,255
  80180c:	1080201c 	xori	r2,r2,128
  801810:	10bfe004 	addi	r2,r2,-128
  801814:	1000c926 	beq	r2,zero,801b3c <___vfprintf_internal_r+0x434>
  801818:	82c00047 	ldb	r11,1(r16)
  80181c:	85c00044 	addi	r23,r16,1
  801820:	d8001345 	stb	zero,77(sp)
  801824:	0009883a 	mov	r4,zero
  801828:	000b883a 	mov	r5,zero
  80182c:	023fffc4 	movi	r8,-1
  801830:	0021883a 	mov	r16,zero
  801834:	0019883a 	mov	r12,zero
  801838:	bdc00044 	addi	r23,r23,1
  80183c:	5839883a 	mov	fp,r11
  801840:	e0bff804 	addi	r2,fp,-32
  801844:	10c01668 	cmpgeui	r3,r2,89
  801848:	18006c1e 	bne	r3,zero,8019fc <___vfprintf_internal_r+0x2f4>
  80184c:	100490ba 	slli	r2,r2,2
  801850:	00c02034 	movhi	r3,128
  801854:	10c7883a 	add	r3,r2,r3
  801858:	18861817 	ldw	r2,6240(r3)
  80185c:	1000683a 	jmp	r2
  801860:	0080224c 	andi	r2,zero,137
  801864:	008019fc 	xorhi	r2,zero,103
  801868:	008019fc 	xorhi	r2,zero,103
  80186c:	00802240 	call	80224 <__alt_mem_sdram-0x77fddc>
  801870:	008019fc 	xorhi	r2,zero,103
  801874:	008019fc 	xorhi	r2,zero,103
  801878:	008019fc 	xorhi	r2,zero,103
  80187c:	008019fc 	xorhi	r2,zero,103
  801880:	008019fc 	xorhi	r2,zero,103
  801884:	008019fc 	xorhi	r2,zero,103
  801888:	00802218 	cmpnei	r2,zero,136
  80188c:	00802208 	cmpgei	r2,zero,136
  801890:	008019fc 	xorhi	r2,zero,103
  801894:	008021f0 	cmpltui	r2,zero,135
  801898:	008021a4 	muli	r2,zero,134
  80189c:	008019fc 	xorhi	r2,zero,103
  8018a0:	00802198 	cmpnei	r2,zero,134
  8018a4:	008019c4 	movi	r2,103
  8018a8:	008019c4 	movi	r2,103
  8018ac:	008019c4 	movi	r2,103
  8018b0:	008019c4 	movi	r2,103
  8018b4:	008019c4 	movi	r2,103
  8018b8:	008019c4 	movi	r2,103
  8018bc:	008019c4 	movi	r2,103
  8018c0:	008019c4 	movi	r2,103
  8018c4:	008019c4 	movi	r2,103
  8018c8:	008019fc 	xorhi	r2,zero,103
  8018cc:	008019fc 	xorhi	r2,zero,103
  8018d0:	008019fc 	xorhi	r2,zero,103
  8018d4:	008019fc 	xorhi	r2,zero,103
  8018d8:	008019fc 	xorhi	r2,zero,103
  8018dc:	008019fc 	xorhi	r2,zero,103
  8018e0:	008019fc 	xorhi	r2,zero,103
  8018e4:	008019fc 	xorhi	r2,zero,103
  8018e8:	008019fc 	xorhi	r2,zero,103
  8018ec:	008019fc 	xorhi	r2,zero,103
  8018f0:	0080208c 	andi	r2,zero,130
  8018f4:	00801cbc 	xorhi	r2,zero,114
  8018f8:	008019fc 	xorhi	r2,zero,103
  8018fc:	00801cbc 	xorhi	r2,zero,114
  801900:	008019fc 	xorhi	r2,zero,103
  801904:	008019fc 	xorhi	r2,zero,103
  801908:	008019fc 	xorhi	r2,zero,103
  80190c:	008019fc 	xorhi	r2,zero,103
  801910:	00802278 	rdprs	r2,zero,137
  801914:	008019fc 	xorhi	r2,zero,103
  801918:	008019fc 	xorhi	r2,zero,103
  80191c:	00801bf0 	cmpltui	r2,zero,111
  801920:	008019fc 	xorhi	r2,zero,103
  801924:	008019fc 	xorhi	r2,zero,103
  801928:	008019fc 	xorhi	r2,zero,103
  80192c:	008019fc 	xorhi	r2,zero,103
  801930:	008019fc 	xorhi	r2,zero,103
  801934:	00801bc8 	cmpgei	r2,zero,111
  801938:	008019fc 	xorhi	r2,zero,103
  80193c:	008019fc 	xorhi	r2,zero,103
  801940:	008022ac 	andhi	r2,zero,138
  801944:	008019fc 	xorhi	r2,zero,103
  801948:	008019fc 	xorhi	r2,zero,103
  80194c:	008019fc 	xorhi	r2,zero,103
  801950:	008019fc 	xorhi	r2,zero,103
  801954:	008019fc 	xorhi	r2,zero,103
  801958:	008019fc 	xorhi	r2,zero,103
  80195c:	008019fc 	xorhi	r2,zero,103
  801960:	008019fc 	xorhi	r2,zero,103
  801964:	008019fc 	xorhi	r2,zero,103
  801968:	008019fc 	xorhi	r2,zero,103
  80196c:	00802284 	movi	r2,138
  801970:	00801ed0 	cmplti	r2,zero,123
  801974:	00801cbc 	xorhi	r2,zero,114
  801978:	00801cbc 	xorhi	r2,zero,114
  80197c:	00801cbc 	xorhi	r2,zero,114
  801980:	00801f44 	movi	r2,125
  801984:	00801ed0 	cmplti	r2,zero,123
  801988:	008019fc 	xorhi	r2,zero,103
  80198c:	008019fc 	xorhi	r2,zero,103
  801990:	00802078 	rdprs	r2,zero,129
  801994:	008019fc 	xorhi	r2,zero,103
  801998:	0080203c 	xorhi	r2,zero,128
  80199c:	00801bf4 	movhi	r2,111
  8019a0:	00801ffc 	xorhi	r2,zero,127
  8019a4:	00801ff0 	cmpltui	r2,zero,127
  8019a8:	008019fc 	xorhi	r2,zero,103
  8019ac:	00801f98 	cmpnei	r2,zero,126
  8019b0:	008019fc 	xorhi	r2,zero,103
  8019b4:	00801bcc 	andi	r2,zero,111
  8019b8:	008019fc 	xorhi	r2,zero,103
  8019bc:	008019fc 	xorhi	r2,zero,103
  8019c0:	00801f50 	cmplti	r2,zero,125
  8019c4:	0021883a 	mov	r16,zero
  8019c8:	e0fff404 	addi	r3,fp,-48
  8019cc:	800490ba 	slli	r2,r16,2
  8019d0:	bf000007 	ldb	fp,0(r23)
  8019d4:	bdc00044 	addi	r23,r23,1
  8019d8:	1421883a 	add	r16,r2,r16
  8019dc:	8421883a 	add	r16,r16,r16
  8019e0:	1c21883a 	add	r16,r3,r16
  8019e4:	e0fff404 	addi	r3,fp,-48
  8019e8:	188002b0 	cmpltui	r2,r3,10
  8019ec:	103ff71e 	bne	r2,zero,8019cc <___vfprintf_internal_r+0x2c4>
  8019f0:	e0bff804 	addi	r2,fp,-32
  8019f4:	10c01668 	cmpgeui	r3,r2,89
  8019f8:	183f9426 	beq	r3,zero,80184c <___vfprintf_internal_r+0x144>
  8019fc:	21003fcc 	andi	r4,r4,255
  801a00:	20068f1e 	bne	r4,zero,803440 <___vfprintf_internal_r+0x1d38>
  801a04:	e0004d26 	beq	fp,zero,801b3c <___vfprintf_internal_r+0x434>
  801a08:	df001d05 	stb	fp,116(sp)
  801a0c:	d8001345 	stb	zero,77(sp)
  801a10:	05000044 	movi	r20,1
  801a14:	05400044 	movi	r21,1
  801a18:	dc401d04 	addi	r17,sp,116
  801a1c:	db000415 	stw	r12,16(sp)
  801a20:	0011883a 	mov	r8,zero
  801a24:	d8000715 	stw	zero,28(sp)
  801a28:	d8800417 	ldw	r2,16(sp)
  801a2c:	1380008c 	andi	r14,r2,2
  801a30:	70000126 	beq	r14,zero,801a38 <___vfprintf_internal_r+0x330>
  801a34:	a5000084 	addi	r20,r20,2
  801a38:	d8800417 	ldw	r2,16(sp)
  801a3c:	d8c01c17 	ldw	r3,112(sp)
  801a40:	1340210c 	andi	r13,r2,132
  801a44:	6800021e 	bne	r13,zero,801a50 <___vfprintf_internal_r+0x348>
  801a48:	850fc83a 	sub	r7,r16,r20
  801a4c:	01c36016 	blt	zero,r7,8027d0 <___vfprintf_internal_r+0x10c8>
  801a50:	d8801347 	ldb	r2,77(sp)
  801a54:	10000c26 	beq	r2,zero,801a88 <___vfprintf_internal_r+0x380>
  801a58:	d8801b17 	ldw	r2,108(sp)
  801a5c:	d9001344 	addi	r4,sp,77
  801a60:	18c00044 	addi	r3,r3,1
  801a64:	10800044 	addi	r2,r2,1
  801a68:	b1000015 	stw	r4,0(r22)
  801a6c:	01000044 	movi	r4,1
  801a70:	d8801b15 	stw	r2,108(sp)
  801a74:	b1000115 	stw	r4,4(r22)
  801a78:	d8c01c15 	stw	r3,112(sp)
  801a7c:	10800208 	cmpgei	r2,r2,8
  801a80:	1003a01e 	bne	r2,zero,802904 <___vfprintf_internal_r+0x11fc>
  801a84:	b5800204 	addi	r22,r22,8
  801a88:	70000c26 	beq	r14,zero,801abc <___vfprintf_internal_r+0x3b4>
  801a8c:	d8801b17 	ldw	r2,108(sp)
  801a90:	d9001384 	addi	r4,sp,78
  801a94:	18c00084 	addi	r3,r3,2
  801a98:	10800044 	addi	r2,r2,1
  801a9c:	b1000015 	stw	r4,0(r22)
  801aa0:	01000084 	movi	r4,2
  801aa4:	d8801b15 	stw	r2,108(sp)
  801aa8:	b1000115 	stw	r4,4(r22)
  801aac:	d8c01c15 	stw	r3,112(sp)
  801ab0:	10800208 	cmpgei	r2,r2,8
  801ab4:	1003871e 	bne	r2,zero,8028d4 <___vfprintf_internal_r+0x11cc>
  801ab8:	b5800204 	addi	r22,r22,8
  801abc:	6b402018 	cmpnei	r13,r13,128
  801ac0:	68025226 	beq	r13,zero,80240c <___vfprintf_internal_r+0xd04>
  801ac4:	4551c83a 	sub	r8,r8,r21
  801ac8:	02028a16 	blt	zero,r8,8024f4 <___vfprintf_internal_r+0xdec>
  801acc:	d8800417 	ldw	r2,16(sp)
  801ad0:	1080400c 	andi	r2,r2,256
  801ad4:	1002071e 	bne	r2,zero,8022f4 <___vfprintf_internal_r+0xbec>
  801ad8:	d8801b17 	ldw	r2,108(sp)
  801adc:	1d47883a 	add	r3,r3,r21
  801ae0:	b4400015 	stw	r17,0(r22)
  801ae4:	10800044 	addi	r2,r2,1
  801ae8:	b5400115 	stw	r21,4(r22)
  801aec:	d8801b15 	stw	r2,108(sp)
  801af0:	d8c01c15 	stw	r3,112(sp)
  801af4:	10800208 	cmpgei	r2,r2,8
  801af8:	1002ee1e 	bne	r2,zero,8026b4 <___vfprintf_internal_r+0xfac>
  801afc:	b5800204 	addi	r22,r22,8
  801b00:	d8800417 	ldw	r2,16(sp)
  801b04:	1440010c 	andi	r17,r2,4
  801b08:	88000226 	beq	r17,zero,801b14 <___vfprintf_internal_r+0x40c>
  801b0c:	8523c83a 	sub	r17,r16,r20
  801b10:	0440bd16 	blt	zero,r17,801e08 <___vfprintf_internal_r+0x700>
  801b14:	8500010e 	bge	r16,r20,801b1c <___vfprintf_internal_r+0x414>
  801b18:	a021883a 	mov	r16,r20
  801b1c:	d8800517 	ldw	r2,20(sp)
  801b20:	1405883a 	add	r2,r2,r16
  801b24:	d8800515 	stw	r2,20(sp)
  801b28:	1802b91e 	bne	r3,zero,802610 <___vfprintf_internal_r+0xf08>
  801b2c:	b8800007 	ldb	r2,0(r23)
  801b30:	d8001b15 	stw	zero,108(sp)
  801b34:	dd802704 	addi	r22,sp,156
  801b38:	103f291e 	bne	r2,zero,8017e0 <___vfprintf_internal_r+0xd8>
  801b3c:	d8801c17 	ldw	r2,112(sp)
  801b40:	10063a1e 	bne	r2,zero,80342c <___vfprintf_internal_r+0x1d24>
  801b44:	9080030b 	ldhu	r2,12(r18)
  801b48:	1080100c 	andi	r2,r2,64
  801b4c:	1006c91e 	bne	r2,zero,803674 <___vfprintf_internal_r+0x1f6c>
  801b50:	d8800517 	ldw	r2,20(sp)
  801b54:	dfc04017 	ldw	ra,256(sp)
  801b58:	df003f17 	ldw	fp,252(sp)
  801b5c:	ddc03e17 	ldw	r23,248(sp)
  801b60:	dd803d17 	ldw	r22,244(sp)
  801b64:	dd403c17 	ldw	r21,240(sp)
  801b68:	dd003b17 	ldw	r20,236(sp)
  801b6c:	dcc03a17 	ldw	r19,232(sp)
  801b70:	dc803917 	ldw	r18,228(sp)
  801b74:	dc403817 	ldw	r17,224(sp)
  801b78:	dc003717 	ldw	r16,220(sp)
  801b7c:	dec04104 	addi	sp,sp,260
  801b80:	f800283a 	ret
  801b84:	900b883a 	mov	r5,r18
  801b88:	9809883a 	mov	r4,r19
  801b8c:	08038d00 	call	8038d0 <__swsetup_r>
  801b90:	1006b81e 	bne	r2,zero,803674 <___vfprintf_internal_r+0x1f6c>
  801b94:	9080030b 	ldhu	r2,12(r18)
  801b98:	1080068c 	andi	r2,r2,26
  801b9c:	10800298 	cmpnei	r2,r2,10
  801ba0:	103f011e 	bne	r2,zero,8017a8 <___vfprintf_internal_r+0xa0>
  801ba4:	9080038f 	ldh	r2,14(r18)
  801ba8:	103eff16 	blt	r2,zero,8017a8 <___vfprintf_internal_r+0xa0>
  801bac:	d9c00617 	ldw	r7,24(sp)
  801bb0:	b00d883a 	mov	r6,r22
  801bb4:	900b883a 	mov	r5,r18
  801bb8:	9809883a 	mov	r4,r19
  801bbc:	08038100 	call	803810 <__sbprintf>
  801bc0:	d8800515 	stw	r2,20(sp)
  801bc4:	003fe206 	br	801b50 <___vfprintf_internal_r+0x448>
  801bc8:	63000414 	ori	r12,r12,16
  801bcc:	6080080c 	andi	r2,r12,32
  801bd0:	10008126 	beq	r2,zero,801dd8 <___vfprintf_internal_r+0x6d0>
  801bd4:	d8c00617 	ldw	r3,24(sp)
  801bd8:	00800044 	movi	r2,1
  801bdc:	1d000017 	ldw	r20,0(r3)
  801be0:	1d400117 	ldw	r21,4(r3)
  801be4:	18c00204 	addi	r3,r3,8
  801be8:	d8c00615 	stw	r3,24(sp)
  801bec:	00000906 	br	801c14 <___vfprintf_internal_r+0x50c>
  801bf0:	63000414 	ori	r12,r12,16
  801bf4:	6080080c 	andi	r2,r12,32
  801bf8:	10006b26 	beq	r2,zero,801da8 <___vfprintf_internal_r+0x6a0>
  801bfc:	d8c00617 	ldw	r3,24(sp)
  801c00:	0005883a 	mov	r2,zero
  801c04:	1d000017 	ldw	r20,0(r3)
  801c08:	1d400117 	ldw	r21,4(r3)
  801c0c:	18c00204 	addi	r3,r3,8
  801c10:	d8c00615 	stw	r3,24(sp)
  801c14:	d8001345 	stb	zero,77(sp)
  801c18:	40ffffe0 	cmpeqi	r3,r8,-1
  801c1c:	001b883a 	mov	r13,zero
  801c20:	1801351e 	bne	r3,zero,8020f8 <___vfprintf_internal_r+0x9f0>
  801c24:	047fdfc4 	movi	r17,-129
  801c28:	6448703a 	and	r4,r12,r17
  801c2c:	a546b03a 	or	r3,r20,r21
  801c30:	d9000415 	stw	r4,16(sp)
  801c34:	1802e41e 	bne	r3,zero,8027c8 <___vfprintf_internal_r+0x10c0>
  801c38:	40025f1e 	bne	r8,zero,8025b8 <___vfprintf_internal_r+0xeb0>
  801c3c:	1003a61e 	bne	r2,zero,802ad8 <___vfprintf_internal_r+0x13d0>
  801c40:	6540004c 	andi	r21,r12,1
  801c44:	a803d426 	beq	r21,zero,802b98 <___vfprintf_internal_r+0x1490>
  801c48:	00800c04 	movi	r2,48
  801c4c:	d88026c5 	stb	r2,155(sp)
  801c50:	dc4026c4 	addi	r17,sp,155
  801c54:	00014606 	br	802170 <___vfprintf_internal_r+0xa68>
  801c58:	85e3c83a 	sub	r17,r16,r23
  801c5c:	85ffb726 	beq	r16,r23,801b3c <___vfprintf_internal_r+0x434>
  801c60:	d8c01c17 	ldw	r3,112(sp)
  801c64:	d8801b17 	ldw	r2,108(sp)
  801c68:	b5c00015 	stw	r23,0(r22)
  801c6c:	1c47883a 	add	r3,r3,r17
  801c70:	10800044 	addi	r2,r2,1
  801c74:	d8801b15 	stw	r2,108(sp)
  801c78:	b4400115 	stw	r17,4(r22)
  801c7c:	d8c01c15 	stw	r3,112(sp)
  801c80:	10800208 	cmpgei	r2,r2,8
  801c84:	1000061e 	bne	r2,zero,801ca0 <___vfprintf_internal_r+0x598>
  801c88:	b5800204 	addi	r22,r22,8
  801c8c:	d8c00517 	ldw	r3,20(sp)
  801c90:	80800003 	ldbu	r2,0(r16)
  801c94:	1c47883a 	add	r3,r3,r17
  801c98:	d8c00515 	stw	r3,20(sp)
  801c9c:	003eda06 	br	801808 <___vfprintf_internal_r+0x100>
  801ca0:	d9801a04 	addi	r6,sp,104
  801ca4:	900b883a 	mov	r5,r18
  801ca8:	9809883a 	mov	r4,r19
  801cac:	0808ab40 	call	808ab4 <__sprint_r>
  801cb0:	103fa41e 	bne	r2,zero,801b44 <___vfprintf_internal_r+0x43c>
  801cb4:	dd802704 	addi	r22,sp,156
  801cb8:	003ff406 	br	801c8c <___vfprintf_internal_r+0x584>
  801cbc:	21003fcc 	andi	r4,r4,255
  801cc0:	20066a1e 	bne	r4,zero,80366c <___vfprintf_internal_r+0x1f64>
  801cc4:	d8c00617 	ldw	r3,24(sp)
  801cc8:	6080020c 	andi	r2,r12,8
  801ccc:	19000204 	addi	r4,r3,8
  801cd0:	d9000e15 	stw	r4,56(sp)
  801cd4:	1003d01e 	bne	r2,zero,802c18 <___vfprintf_internal_r+0x1510>
  801cd8:	d8800617 	ldw	r2,24(sp)
  801cdc:	10c00017 	ldw	r3,0(r2)
  801ce0:	10800117 	ldw	r2,4(r2)
  801ce4:	d8c00915 	stw	r3,36(sp)
  801ce8:	d8800a15 	stw	r2,40(sp)
  801cec:	dd400a17 	ldw	r21,40(sp)
  801cf0:	dd000917 	ldw	r20,36(sp)
  801cf4:	00a00034 	movhi	r2,32768
  801cf8:	10bfffc4 	addi	r2,r2,-1
  801cfc:	a8a2703a 	and	r17,r21,r2
  801d00:	01dffc34 	movhi	r7,32752
  801d04:	01bfffc4 	movi	r6,-1
  801d08:	39ffffc4 	addi	r7,r7,-1
  801d0c:	a009883a 	mov	r4,r20
  801d10:	880b883a 	mov	r5,r17
  801d14:	da000615 	stw	r8,24(sp)
  801d18:	db000415 	stw	r12,16(sp)
  801d1c:	080e0740 	call	80e074 <__unorddf2>
  801d20:	db000417 	ldw	r12,16(sp)
  801d24:	da000617 	ldw	r8,24(sp)
  801d28:	1004701e 	bne	r2,zero,802eec <___vfprintf_internal_r+0x17e4>
  801d2c:	01dffc34 	movhi	r7,32752
  801d30:	01bfffc4 	movi	r6,-1
  801d34:	39ffffc4 	addi	r7,r7,-1
  801d38:	a009883a 	mov	r4,r20
  801d3c:	880b883a 	mov	r5,r17
  801d40:	080cea80 	call	80cea8 <__ledf2>
  801d44:	db000417 	ldw	r12,16(sp)
  801d48:	da000617 	ldw	r8,24(sp)
  801d4c:	0084670e 	bge	zero,r2,802eec <___vfprintf_internal_r+0x17e4>
  801d50:	000d883a 	mov	r6,zero
  801d54:	000f883a 	mov	r7,zero
  801d58:	a009883a 	mov	r4,r20
  801d5c:	a80b883a 	mov	r5,r21
  801d60:	080cea80 	call	80cea8 <__ledf2>
  801d64:	db000417 	ldw	r12,16(sp)
  801d68:	10059d16 	blt	r2,zero,8033e0 <___vfprintf_internal_r+0x1cd8>
  801d6c:	db401343 	ldbu	r13,77(sp)
  801d70:	e0801210 	cmplti	r2,fp,72
  801d74:	1005741e 	bne	r2,zero,803348 <___vfprintf_internal_r+0x1c40>
  801d78:	04402074 	movhi	r17,129
  801d7c:	8c437604 	addi	r17,r17,3544
  801d80:	00bfdfc4 	movi	r2,-129
  801d84:	6084703a 	and	r2,r12,r2
  801d88:	d8800415 	stw	r2,16(sp)
  801d8c:	d8800e17 	ldw	r2,56(sp)
  801d90:	050000c4 	movi	r20,3
  801d94:	054000c4 	movi	r21,3
  801d98:	d8800615 	stw	r2,24(sp)
  801d9c:	0011883a 	mov	r8,zero
  801da0:	d8000715 	stw	zero,28(sp)
  801da4:	0000f606 	br	802180 <___vfprintf_internal_r+0xa78>
  801da8:	d9000617 	ldw	r4,24(sp)
  801dac:	6080040c 	andi	r2,r12,16
  801db0:	20c00104 	addi	r3,r4,4
  801db4:	1003891e 	bne	r2,zero,802bdc <___vfprintf_internal_r+0x14d4>
  801db8:	6080100c 	andi	r2,r12,64
  801dbc:	10056b26 	beq	r2,zero,80336c <___vfprintf_internal_r+0x1c64>
  801dc0:	d8800617 	ldw	r2,24(sp)
  801dc4:	002b883a 	mov	r21,zero
  801dc8:	d8c00615 	stw	r3,24(sp)
  801dcc:	1500000b 	ldhu	r20,0(r2)
  801dd0:	0005883a 	mov	r2,zero
  801dd4:	003f8f06 	br	801c14 <___vfprintf_internal_r+0x50c>
  801dd8:	d9000617 	ldw	r4,24(sp)
  801ddc:	6080040c 	andi	r2,r12,16
  801de0:	20c00104 	addi	r3,r4,4
  801de4:	1003821e 	bne	r2,zero,802bf0 <___vfprintf_internal_r+0x14e8>
  801de8:	6080100c 	andi	r2,r12,64
  801dec:	10056526 	beq	r2,zero,803384 <___vfprintf_internal_r+0x1c7c>
  801df0:	d8800617 	ldw	r2,24(sp)
  801df4:	002b883a 	mov	r21,zero
  801df8:	d8c00615 	stw	r3,24(sp)
  801dfc:	1500000b 	ldhu	r20,0(r2)
  801e00:	00800044 	movi	r2,1
  801e04:	003f8306 	br	801c14 <___vfprintf_internal_r+0x50c>
  801e08:	03002074 	movhi	r12,129
  801e0c:	89000450 	cmplti	r4,r17,17
  801e10:	d8801b17 	ldw	r2,108(sp)
  801e14:	63038a04 	addi	r12,r12,3624
  801e18:	20001b1e 	bne	r4,zero,801e88 <___vfprintf_internal_r+0x780>
  801e1c:	05400404 	movi	r21,16
  801e20:	6039883a 	mov	fp,r12
  801e24:	00000406 	br	801e38 <___vfprintf_internal_r+0x730>
  801e28:	8c7ffc04 	addi	r17,r17,-16
  801e2c:	89000448 	cmpgei	r4,r17,17
  801e30:	b5800204 	addi	r22,r22,8
  801e34:	20001326 	beq	r4,zero,801e84 <___vfprintf_internal_r+0x77c>
  801e38:	10800044 	addi	r2,r2,1
  801e3c:	18c00404 	addi	r3,r3,16
  801e40:	b7000015 	stw	fp,0(r22)
  801e44:	b5400115 	stw	r21,4(r22)
  801e48:	d8c01c15 	stw	r3,112(sp)
  801e4c:	d8801b15 	stw	r2,108(sp)
  801e50:	11000208 	cmpgei	r4,r2,8
  801e54:	203ff426 	beq	r4,zero,801e28 <___vfprintf_internal_r+0x720>
  801e58:	d9801a04 	addi	r6,sp,104
  801e5c:	900b883a 	mov	r5,r18
  801e60:	9809883a 	mov	r4,r19
  801e64:	0808ab40 	call	808ab4 <__sprint_r>
  801e68:	103f361e 	bne	r2,zero,801b44 <___vfprintf_internal_r+0x43c>
  801e6c:	8c7ffc04 	addi	r17,r17,-16
  801e70:	89000448 	cmpgei	r4,r17,17
  801e74:	d8c01c17 	ldw	r3,112(sp)
  801e78:	d8801b17 	ldw	r2,108(sp)
  801e7c:	dd802704 	addi	r22,sp,156
  801e80:	203fed1e 	bne	r4,zero,801e38 <___vfprintf_internal_r+0x730>
  801e84:	e019883a 	mov	r12,fp
  801e88:	10800044 	addi	r2,r2,1
  801e8c:	1c47883a 	add	r3,r3,r17
  801e90:	d8801b15 	stw	r2,108(sp)
  801e94:	b3000015 	stw	r12,0(r22)
  801e98:	b4400115 	stw	r17,4(r22)
  801e9c:	d8c01c15 	stw	r3,112(sp)
  801ea0:	10800210 	cmplti	r2,r2,8
  801ea4:	103f1b1e 	bne	r2,zero,801b14 <___vfprintf_internal_r+0x40c>
  801ea8:	d9801a04 	addi	r6,sp,104
  801eac:	900b883a 	mov	r5,r18
  801eb0:	9809883a 	mov	r4,r19
  801eb4:	0808ab40 	call	808ab4 <__sprint_r>
  801eb8:	103f221e 	bne	r2,zero,801b44 <___vfprintf_internal_r+0x43c>
  801ebc:	d8c01c17 	ldw	r3,112(sp)
  801ec0:	003f1406 	br	801b14 <___vfprintf_internal_r+0x40c>
  801ec4:	9809883a 	mov	r4,r19
  801ec8:	08059580 	call	805958 <__sinit>
  801ecc:	003e2606 	br	801768 <___vfprintf_internal_r+0x60>
  801ed0:	21003fcc 	andi	r4,r4,255
  801ed4:	2005db1e 	bne	r4,zero,803644 <___vfprintf_internal_r+0x1f3c>
  801ed8:	6080080c 	andi	r2,r12,32
  801edc:	10007026 	beq	r2,zero,8020a0 <___vfprintf_internal_r+0x998>
  801ee0:	d8c00617 	ldw	r3,24(sp)
  801ee4:	18800117 	ldw	r2,4(r3)
  801ee8:	1d000017 	ldw	r20,0(r3)
  801eec:	18c00204 	addi	r3,r3,8
  801ef0:	d8c00615 	stw	r3,24(sp)
  801ef4:	102b883a 	mov	r21,r2
  801ef8:	10007516 	blt	r2,zero,8020d0 <___vfprintf_internal_r+0x9c8>
  801efc:	40bfffd8 	cmpnei	r2,r8,-1
  801f00:	10034a26 	beq	r2,zero,802c2c <___vfprintf_internal_r+0x1524>
  801f04:	047fdfc4 	movi	r17,-129
  801f08:	6446703a 	and	r3,r12,r17
  801f0c:	a544b03a 	or	r2,r20,r21
  801f10:	d8c00415 	stw	r3,16(sp)
  801f14:	db401343 	ldbu	r13,77(sp)
  801f18:	1002ee26 	beq	r2,zero,802ad4 <___vfprintf_internal_r+0x13cc>
  801f1c:	db000417 	ldw	r12,16(sp)
  801f20:	a803441e 	bne	r21,zero,802c34 <___vfprintf_internal_r+0x152c>
  801f24:	a08002a8 	cmpgeui	r2,r20,10
  801f28:	1003421e 	bne	r2,zero,802c34 <___vfprintf_internal_r+0x152c>
  801f2c:	a5000c04 	addi	r20,r20,48
  801f30:	dd0026c5 	stb	r20,155(sp)
  801f34:	db000415 	stw	r12,16(sp)
  801f38:	05400044 	movi	r21,1
  801f3c:	dc4026c4 	addi	r17,sp,155
  801f40:	00008b06 	br	802170 <___vfprintf_internal_r+0xa68>
  801f44:	bac00007 	ldb	r11,0(r23)
  801f48:	63001014 	ori	r12,r12,64
  801f4c:	003e3a06 	br	801838 <___vfprintf_internal_r+0x130>
  801f50:	21003fcc 	andi	r4,r4,255
  801f54:	2005c11e 	bne	r4,zero,80365c <___vfprintf_internal_r+0x1f54>
  801f58:	00802074 	movhi	r2,129
  801f5c:	10837e04 	addi	r2,r2,3576
  801f60:	d8800c15 	stw	r2,48(sp)
  801f64:	6080080c 	andi	r2,r12,32
  801f68:	1000d726 	beq	r2,zero,8022c8 <___vfprintf_internal_r+0xbc0>
  801f6c:	d8800617 	ldw	r2,24(sp)
  801f70:	15000017 	ldw	r20,0(r2)
  801f74:	15400117 	ldw	r21,4(r2)
  801f78:	10800204 	addi	r2,r2,8
  801f7c:	d8800615 	stw	r2,24(sp)
  801f80:	6080004c 	andi	r2,r12,1
  801f84:	10000226 	beq	r2,zero,801f90 <___vfprintf_internal_r+0x888>
  801f88:	a544b03a 	or	r2,r20,r21
  801f8c:	1003091e 	bne	r2,zero,802bb4 <___vfprintf_internal_r+0x14ac>
  801f90:	00800084 	movi	r2,2
  801f94:	003f1f06 	br	801c14 <___vfprintf_internal_r+0x50c>
  801f98:	d8800617 	ldw	r2,24(sp)
  801f9c:	d8001345 	stb	zero,77(sp)
  801fa0:	14400017 	ldw	r17,0(r2)
  801fa4:	10c00104 	addi	r3,r2,4
  801fa8:	88037726 	beq	r17,zero,802d88 <___vfprintf_internal_r+0x1680>
  801fac:	40bfffe0 	cmpeqi	r2,r8,-1
  801fb0:	1004661e 	bne	r2,zero,80314c <___vfprintf_internal_r+0x1a44>
  801fb4:	400d883a 	mov	r6,r8
  801fb8:	000b883a 	mov	r5,zero
  801fbc:	8809883a 	mov	r4,r17
  801fc0:	d8c00715 	stw	r3,28(sp)
  801fc4:	db000615 	stw	r12,24(sp)
  801fc8:	da000415 	stw	r8,16(sp)
  801fcc:	0806d9c0 	call	806d9c <memchr>
  801fd0:	da000417 	ldw	r8,16(sp)
  801fd4:	db000617 	ldw	r12,24(sp)
  801fd8:	d8c00717 	ldw	r3,28(sp)
  801fdc:	10058926 	beq	r2,zero,803604 <___vfprintf_internal_r+0x1efc>
  801fe0:	146bc83a 	sub	r21,r2,r17
  801fe4:	a829883a 	mov	r20,r21
  801fe8:	d8c00615 	stw	r3,24(sp)
  801fec:	003e8b06 	br	801a1c <___vfprintf_internal_r+0x314>
  801ff0:	bac00007 	ldb	r11,0(r23)
  801ff4:	63000814 	ori	r12,r12,32
  801ff8:	003e0f06 	br	801838 <___vfprintf_internal_r+0x130>
  801ffc:	d8c00617 	ldw	r3,24(sp)
  802000:	00800c04 	movi	r2,48
  802004:	d8801385 	stb	r2,78(sp)
  802008:	00801e04 	movi	r2,120
  80200c:	01002074 	movhi	r4,129
  802010:	d88013c5 	stb	r2,79(sp)
  802014:	18800104 	addi	r2,r3,4
  802018:	d8800615 	stw	r2,24(sp)
  80201c:	20837e04 	addi	r2,r4,3576
  802020:	d8800c15 	stw	r2,48(sp)
  802024:	1d000017 	ldw	r20,0(r3)
  802028:	002b883a 	mov	r21,zero
  80202c:	63000094 	ori	r12,r12,2
  802030:	00800084 	movi	r2,2
  802034:	07001e04 	movi	fp,120
  802038:	003ef606 	br	801c14 <___vfprintf_internal_r+0x50c>
  80203c:	21003fcc 	andi	r4,r4,255
  802040:	2005881e 	bne	r4,zero,803664 <___vfprintf_internal_r+0x1f5c>
  802044:	d9000617 	ldw	r4,24(sp)
  802048:	6080080c 	andi	r2,r12,32
  80204c:	20c00017 	ldw	r3,0(r4)
  802050:	21000104 	addi	r4,r4,4
  802054:	d9000615 	stw	r4,24(sp)
  802058:	1002d11e 	bne	r2,zero,802ba0 <___vfprintf_internal_r+0x1498>
  80205c:	6080040c 	andi	r2,r12,16
  802060:	10036f1e 	bne	r2,zero,802e20 <___vfprintf_internal_r+0x1718>
  802064:	6300100c 	andi	r12,r12,64
  802068:	60036d26 	beq	r12,zero,802e20 <___vfprintf_internal_r+0x1718>
  80206c:	d8800517 	ldw	r2,20(sp)
  802070:	1880000d 	sth	r2,0(r3)
  802074:	003dd806 	br	8017d8 <___vfprintf_internal_r+0xd0>
  802078:	bac00007 	ldb	r11,0(r23)
  80207c:	58801b18 	cmpnei	r2,r11,108
  802080:	10033026 	beq	r2,zero,802d44 <___vfprintf_internal_r+0x163c>
  802084:	63000414 	ori	r12,r12,16
  802088:	003deb06 	br	801838 <___vfprintf_internal_r+0x130>
  80208c:	21003fcc 	andi	r4,r4,255
  802090:	2005701e 	bne	r4,zero,803654 <___vfprintf_internal_r+0x1f4c>
  802094:	63000414 	ori	r12,r12,16
  802098:	6080080c 	andi	r2,r12,32
  80209c:	103f901e 	bne	r2,zero,801ee0 <___vfprintf_internal_r+0x7d8>
  8020a0:	d9000617 	ldw	r4,24(sp)
  8020a4:	6080040c 	andi	r2,r12,16
  8020a8:	20c00104 	addi	r3,r4,4
  8020ac:	1002d51e 	bne	r2,zero,802c04 <___vfprintf_internal_r+0x14fc>
  8020b0:	6080100c 	andi	r2,r12,64
  8020b4:	1004a726 	beq	r2,zero,803354 <___vfprintf_internal_r+0x1c4c>
  8020b8:	d8800617 	ldw	r2,24(sp)
  8020bc:	d8c00615 	stw	r3,24(sp)
  8020c0:	1500000f 	ldh	r20,0(r2)
  8020c4:	a02bd7fa 	srai	r21,r20,31
  8020c8:	a805883a 	mov	r2,r21
  8020cc:	103f8b0e 	bge	r2,zero,801efc <___vfprintf_internal_r+0x7f4>
  8020d0:	a004c03a 	cmpne	r2,r20,zero
  8020d4:	056bc83a 	sub	r21,zero,r21
  8020d8:	a8abc83a 	sub	r21,r21,r2
  8020dc:	00800b44 	movi	r2,45
  8020e0:	d8801345 	stb	r2,77(sp)
  8020e4:	40ffffe0 	cmpeqi	r3,r8,-1
  8020e8:	0529c83a 	sub	r20,zero,r20
  8020ec:	03400b44 	movi	r13,45
  8020f0:	00800044 	movi	r2,1
  8020f4:	183ecb26 	beq	r3,zero,801c24 <___vfprintf_internal_r+0x51c>
  8020f8:	10c00060 	cmpeqi	r3,r2,1
  8020fc:	183f881e 	bne	r3,zero,801f20 <___vfprintf_internal_r+0x818>
  802100:	108000a0 	cmpeqi	r2,r2,2
  802104:	1001311e 	bne	r2,zero,8025cc <___vfprintf_internal_r+0xec4>
  802108:	dc402704 	addi	r17,sp,156
  80210c:	a004d0fa 	srli	r2,r20,3
  802110:	a806977a 	slli	r3,r21,29
  802114:	a82ad0fa 	srli	r21,r21,3
  802118:	a50001cc 	andi	r20,r20,7
  80211c:	a1000c04 	addi	r4,r20,48
  802120:	18a8b03a 	or	r20,r3,r2
  802124:	893fffc5 	stb	r4,-1(r17)
  802128:	a544b03a 	or	r2,r20,r21
  80212c:	880b883a 	mov	r5,r17
  802130:	8c7fffc4 	addi	r17,r17,-1
  802134:	103ff51e 	bne	r2,zero,80210c <___vfprintf_internal_r+0xa04>
  802138:	6080004c 	andi	r2,r12,1
  80213c:	10013026 	beq	r2,zero,802600 <___vfprintf_internal_r+0xef8>
  802140:	21003fcc 	andi	r4,r4,255
  802144:	2100201c 	xori	r4,r4,128
  802148:	213fe004 	addi	r4,r4,-128
  80214c:	20800c18 	cmpnei	r2,r4,48
  802150:	10012b26 	beq	r2,zero,802600 <___vfprintf_internal_r+0xef8>
  802154:	00800c04 	movi	r2,48
  802158:	297fff84 	addi	r5,r5,-2
  80215c:	88bfffc5 	stb	r2,-1(r17)
  802160:	d8802704 	addi	r2,sp,156
  802164:	116bc83a 	sub	r21,r2,r5
  802168:	db000415 	stw	r12,16(sp)
  80216c:	2823883a 	mov	r17,r5
  802170:	4029883a 	mov	r20,r8
  802174:	4540010e 	bge	r8,r21,80217c <___vfprintf_internal_r+0xa74>
  802178:	a829883a 	mov	r20,r21
  80217c:	d8000715 	stw	zero,28(sp)
  802180:	6b403fcc 	andi	r13,r13,255
  802184:	6b40201c 	xori	r13,r13,128
  802188:	6b7fe004 	addi	r13,r13,-128
  80218c:	683e2626 	beq	r13,zero,801a28 <___vfprintf_internal_r+0x320>
  802190:	a5000044 	addi	r20,r20,1
  802194:	003e2406 	br	801a28 <___vfprintf_internal_r+0x320>
  802198:	bac00007 	ldb	r11,0(r23)
  80219c:	63002014 	ori	r12,r12,128
  8021a0:	003da506 	br	801838 <___vfprintf_internal_r+0x130>
  8021a4:	bf000007 	ldb	fp,0(r23)
  8021a8:	b8800044 	addi	r2,r23,1
  8021ac:	e0c00aa0 	cmpeqi	r3,fp,42
  8021b0:	1805841e 	bne	r3,zero,8037c4 <___vfprintf_internal_r+0x20bc>
  8021b4:	e0fff404 	addi	r3,fp,-48
  8021b8:	198002b0 	cmpltui	r6,r3,10
  8021bc:	102f883a 	mov	r23,r2
  8021c0:	0011883a 	mov	r8,zero
  8021c4:	303d9e26 	beq	r6,zero,801840 <___vfprintf_internal_r+0x138>
  8021c8:	400490ba 	slli	r2,r8,2
  8021cc:	bf000007 	ldb	fp,0(r23)
  8021d0:	bdc00044 	addi	r23,r23,1
  8021d4:	1211883a 	add	r8,r2,r8
  8021d8:	4211883a 	add	r8,r8,r8
  8021dc:	40d1883a 	add	r8,r8,r3
  8021e0:	e0fff404 	addi	r3,fp,-48
  8021e4:	188002b0 	cmpltui	r2,r3,10
  8021e8:	103ff71e 	bne	r2,zero,8021c8 <___vfprintf_internal_r+0xac0>
  8021ec:	003d9406 	br	801840 <___vfprintf_internal_r+0x138>
  8021f0:	bf000003 	ldbu	fp,0(r23)
  8021f4:	e2c03fcc 	andi	r11,fp,255
  8021f8:	5ac0201c 	xori	r11,r11,128
  8021fc:	63000114 	ori	r12,r12,4
  802200:	5affe004 	addi	r11,r11,-128
  802204:	003d8c06 	br	801838 <___vfprintf_internal_r+0x130>
  802208:	bac00007 	ldb	r11,0(r23)
  80220c:	01000044 	movi	r4,1
  802210:	01400ac4 	movi	r5,43
  802214:	003d8806 	br	801838 <___vfprintf_internal_r+0x130>
  802218:	d8800617 	ldw	r2,24(sp)
  80221c:	bf000003 	ldbu	fp,0(r23)
  802220:	14000017 	ldw	r16,0(r2)
  802224:	10800104 	addi	r2,r2,4
  802228:	8002aa16 	blt	r16,zero,802cd4 <___vfprintf_internal_r+0x15cc>
  80222c:	d8800615 	stw	r2,24(sp)
  802230:	e2c03fcc 	andi	r11,fp,255
  802234:	5ac0201c 	xori	r11,r11,128
  802238:	5affe004 	addi	r11,r11,-128
  80223c:	003d7e06 	br	801838 <___vfprintf_internal_r+0x130>
  802240:	bac00007 	ldb	r11,0(r23)
  802244:	63000054 	ori	r12,r12,1
  802248:	003d7b06 	br	801838 <___vfprintf_internal_r+0x130>
  80224c:	28803fcc 	andi	r2,r5,255
  802250:	1080201c 	xori	r2,r2,128
  802254:	10bfe004 	addi	r2,r2,-128
  802258:	bf000003 	ldbu	fp,0(r23)
  80225c:	103ff41e 	bne	r2,zero,802230 <___vfprintf_internal_r+0xb28>
  802260:	e2c03fcc 	andi	r11,fp,255
  802264:	5ac0201c 	xori	r11,r11,128
  802268:	01000044 	movi	r4,1
  80226c:	01400804 	movi	r5,32
  802270:	5affe004 	addi	r11,r11,-128
  802274:	003d7006 	br	801838 <___vfprintf_internal_r+0x130>
  802278:	bac00007 	ldb	r11,0(r23)
  80227c:	63000214 	ori	r12,r12,8
  802280:	003d6d06 	br	801838 <___vfprintf_internal_r+0x130>
  802284:	d8c00617 	ldw	r3,24(sp)
  802288:	d8001345 	stb	zero,77(sp)
  80228c:	05000044 	movi	r20,1
  802290:	18800017 	ldw	r2,0(r3)
  802294:	18c00104 	addi	r3,r3,4
  802298:	d8c00615 	stw	r3,24(sp)
  80229c:	d8801d05 	stb	r2,116(sp)
  8022a0:	05400044 	movi	r21,1
  8022a4:	dc401d04 	addi	r17,sp,116
  8022a8:	003ddc06 	br	801a1c <___vfprintf_internal_r+0x314>
  8022ac:	21003fcc 	andi	r4,r4,255
  8022b0:	2004e61e 	bne	r4,zero,80364c <___vfprintf_internal_r+0x1f44>
  8022b4:	00802074 	movhi	r2,129
  8022b8:	10837904 	addi	r2,r2,3556
  8022bc:	d8800c15 	stw	r2,48(sp)
  8022c0:	6080080c 	andi	r2,r12,32
  8022c4:	103f291e 	bne	r2,zero,801f6c <___vfprintf_internal_r+0x864>
  8022c8:	d9000617 	ldw	r4,24(sp)
  8022cc:	6080040c 	andi	r2,r12,16
  8022d0:	20c00104 	addi	r3,r4,4
  8022d4:	10023d1e 	bne	r2,zero,802bcc <___vfprintf_internal_r+0x14c4>
  8022d8:	6080100c 	andi	r2,r12,64
  8022dc:	10042f26 	beq	r2,zero,80339c <___vfprintf_internal_r+0x1c94>
  8022e0:	d8800617 	ldw	r2,24(sp)
  8022e4:	002b883a 	mov	r21,zero
  8022e8:	d8c00615 	stw	r3,24(sp)
  8022ec:	1500000b 	ldhu	r20,0(r2)
  8022f0:	003f2306 	br	801f80 <___vfprintf_internal_r+0x878>
  8022f4:	e2c01990 	cmplti	r11,fp,102
  8022f8:	5800f61e 	bne	r11,zero,8026d4 <___vfprintf_internal_r+0xfcc>
  8022fc:	d9000917 	ldw	r4,36(sp)
  802300:	d9400a17 	ldw	r5,40(sp)
  802304:	000d883a 	mov	r6,zero
  802308:	000f883a 	mov	r7,zero
  80230c:	d8c00e15 	stw	r3,56(sp)
  802310:	080cd380 	call	80cd38 <__eqdf2>
  802314:	d8c00e17 	ldw	r3,56(sp)
  802318:	1001881e 	bne	r2,zero,80293c <___vfprintf_internal_r+0x1234>
  80231c:	d8801b17 	ldw	r2,108(sp)
  802320:	01002074 	movhi	r4,129
  802324:	21038504 	addi	r4,r4,3604
  802328:	10800044 	addi	r2,r2,1
  80232c:	18c00044 	addi	r3,r3,1
  802330:	b1000015 	stw	r4,0(r22)
  802334:	01000044 	movi	r4,1
  802338:	d8801b15 	stw	r2,108(sp)
  80233c:	b1000115 	stw	r4,4(r22)
  802340:	d8c01c15 	stw	r3,112(sp)
  802344:	10800208 	cmpgei	r2,r2,8
  802348:	10036e1e 	bne	r2,zero,803104 <___vfprintf_internal_r+0x19fc>
  80234c:	b5800204 	addi	r22,r22,8
  802350:	d8801417 	ldw	r2,80(sp)
  802354:	d9000817 	ldw	r4,32(sp)
  802358:	11020b0e 	bge	r2,r4,802b88 <___vfprintf_internal_r+0x1480>
  80235c:	d8800d17 	ldw	r2,52(sp)
  802360:	d9000b17 	ldw	r4,44(sp)
  802364:	b0800015 	stw	r2,0(r22)
  802368:	d8801b17 	ldw	r2,108(sp)
  80236c:	1907883a 	add	r3,r3,r4
  802370:	b1000115 	stw	r4,4(r22)
  802374:	10800044 	addi	r2,r2,1
  802378:	d8801b15 	stw	r2,108(sp)
  80237c:	d8c01c15 	stw	r3,112(sp)
  802380:	10800208 	cmpgei	r2,r2,8
  802384:	1002761e 	bne	r2,zero,802d60 <___vfprintf_internal_r+0x1658>
  802388:	b5800204 	addi	r22,r22,8
  80238c:	d8800817 	ldw	r2,32(sp)
  802390:	157fffc4 	addi	r21,r2,-1
  802394:	057dda0e 	bge	zero,r21,801b00 <___vfprintf_internal_r+0x3f8>
  802398:	01c02074 	movhi	r7,129
  80239c:	a9000450 	cmplti	r4,r21,17
  8023a0:	d8801b17 	ldw	r2,108(sp)
  8023a4:	39c38604 	addi	r7,r7,3608
  8023a8:	2003521e 	bne	r4,zero,8030f4 <___vfprintf_internal_r+0x19ec>
  8023ac:	07000404 	movi	fp,16
  8023b0:	3823883a 	mov	r17,r7
  8023b4:	00000406 	br	8023c8 <___vfprintf_internal_r+0xcc0>
  8023b8:	b5800204 	addi	r22,r22,8
  8023bc:	ad7ffc04 	addi	r21,r21,-16
  8023c0:	a9000448 	cmpgei	r4,r21,17
  8023c4:	20034a26 	beq	r4,zero,8030f0 <___vfprintf_internal_r+0x19e8>
  8023c8:	10800044 	addi	r2,r2,1
  8023cc:	18c00404 	addi	r3,r3,16
  8023d0:	b4400015 	stw	r17,0(r22)
  8023d4:	b7000115 	stw	fp,4(r22)
  8023d8:	d8c01c15 	stw	r3,112(sp)
  8023dc:	d8801b15 	stw	r2,108(sp)
  8023e0:	11000208 	cmpgei	r4,r2,8
  8023e4:	203ff426 	beq	r4,zero,8023b8 <___vfprintf_internal_r+0xcb0>
  8023e8:	d9801a04 	addi	r6,sp,104
  8023ec:	900b883a 	mov	r5,r18
  8023f0:	9809883a 	mov	r4,r19
  8023f4:	0808ab40 	call	808ab4 <__sprint_r>
  8023f8:	103dd21e 	bne	r2,zero,801b44 <___vfprintf_internal_r+0x43c>
  8023fc:	d8c01c17 	ldw	r3,112(sp)
  802400:	d8801b17 	ldw	r2,108(sp)
  802404:	dd802704 	addi	r22,sp,156
  802408:	003fec06 	br	8023bc <___vfprintf_internal_r+0xcb4>
  80240c:	8519c83a 	sub	r12,r16,r20
  802410:	033dac0e 	bge	zero,r12,801ac4 <___vfprintf_internal_r+0x3bc>
  802414:	01c02074 	movhi	r7,129
  802418:	61000450 	cmplti	r4,r12,17
  80241c:	d8801b17 	ldw	r2,108(sp)
  802420:	39c38604 	addi	r7,r7,3608
  802424:	2000281e 	bne	r4,zero,8024c8 <___vfprintf_internal_r+0xdc0>
  802428:	dc400e15 	stw	r17,56(sp)
  80242c:	dc000f15 	stw	r16,60(sp)
  802430:	b009883a 	mov	r4,r22
  802434:	03400404 	movi	r13,16
  802438:	a02d883a 	mov	r22,r20
  80243c:	6021883a 	mov	r16,r12
  802440:	4029883a 	mov	r20,r8
  802444:	3823883a 	mov	r17,r7
  802448:	00000406 	br	80245c <___vfprintf_internal_r+0xd54>
  80244c:	843ffc04 	addi	r16,r16,-16
  802450:	81400448 	cmpgei	r5,r16,17
  802454:	21000204 	addi	r4,r4,8
  802458:	28001426 	beq	r5,zero,8024ac <___vfprintf_internal_r+0xda4>
  80245c:	10800044 	addi	r2,r2,1
  802460:	18c00404 	addi	r3,r3,16
  802464:	24400015 	stw	r17,0(r4)
  802468:	23400115 	stw	r13,4(r4)
  80246c:	d8c01c15 	stw	r3,112(sp)
  802470:	d8801b15 	stw	r2,108(sp)
  802474:	11400208 	cmpgei	r5,r2,8
  802478:	283ff426 	beq	r5,zero,80244c <___vfprintf_internal_r+0xd44>
  80247c:	d9801a04 	addi	r6,sp,104
  802480:	900b883a 	mov	r5,r18
  802484:	9809883a 	mov	r4,r19
  802488:	0808ab40 	call	808ab4 <__sprint_r>
  80248c:	103dad1e 	bne	r2,zero,801b44 <___vfprintf_internal_r+0x43c>
  802490:	843ffc04 	addi	r16,r16,-16
  802494:	81400448 	cmpgei	r5,r16,17
  802498:	d8c01c17 	ldw	r3,112(sp)
  80249c:	d8801b17 	ldw	r2,108(sp)
  8024a0:	d9002704 	addi	r4,sp,156
  8024a4:	03400404 	movi	r13,16
  8024a8:	283fec1e 	bne	r5,zero,80245c <___vfprintf_internal_r+0xd54>
  8024ac:	8019883a 	mov	r12,r16
  8024b0:	880f883a 	mov	r7,r17
  8024b4:	dc000f17 	ldw	r16,60(sp)
  8024b8:	dc400e17 	ldw	r17,56(sp)
  8024bc:	a011883a 	mov	r8,r20
  8024c0:	b029883a 	mov	r20,r22
  8024c4:	202d883a 	mov	r22,r4
  8024c8:	10800044 	addi	r2,r2,1
  8024cc:	1b07883a 	add	r3,r3,r12
  8024d0:	d8801b15 	stw	r2,108(sp)
  8024d4:	b1c00015 	stw	r7,0(r22)
  8024d8:	b3000115 	stw	r12,4(r22)
  8024dc:	d8c01c15 	stw	r3,112(sp)
  8024e0:	10800208 	cmpgei	r2,r2,8
  8024e4:	10030f1e 	bne	r2,zero,803124 <___vfprintf_internal_r+0x1a1c>
  8024e8:	4551c83a 	sub	r8,r8,r21
  8024ec:	b5800204 	addi	r22,r22,8
  8024f0:	023d760e 	bge	zero,r8,801acc <___vfprintf_internal_r+0x3c4>
  8024f4:	01c02074 	movhi	r7,129
  8024f8:	41000450 	cmplti	r4,r8,17
  8024fc:	d8801b17 	ldw	r2,108(sp)
  802500:	39c38604 	addi	r7,r7,3608
  802504:	2000221e 	bne	r4,zero,802590 <___vfprintf_internal_r+0xe88>
  802508:	dc400e15 	stw	r17,56(sp)
  80250c:	dc000f15 	stw	r16,60(sp)
  802510:	03000404 	movi	r12,16
  802514:	4021883a 	mov	r16,r8
  802518:	3823883a 	mov	r17,r7
  80251c:	00000406 	br	802530 <___vfprintf_internal_r+0xe28>
  802520:	843ffc04 	addi	r16,r16,-16
  802524:	81000448 	cmpgei	r4,r16,17
  802528:	b5800204 	addi	r22,r22,8
  80252c:	20001426 	beq	r4,zero,802580 <___vfprintf_internal_r+0xe78>
  802530:	10800044 	addi	r2,r2,1
  802534:	18c00404 	addi	r3,r3,16
  802538:	b4400015 	stw	r17,0(r22)
  80253c:	b3000115 	stw	r12,4(r22)
  802540:	d8c01c15 	stw	r3,112(sp)
  802544:	d8801b15 	stw	r2,108(sp)
  802548:	11000208 	cmpgei	r4,r2,8
  80254c:	203ff426 	beq	r4,zero,802520 <___vfprintf_internal_r+0xe18>
  802550:	d9801a04 	addi	r6,sp,104
  802554:	900b883a 	mov	r5,r18
  802558:	9809883a 	mov	r4,r19
  80255c:	0808ab40 	call	808ab4 <__sprint_r>
  802560:	103d781e 	bne	r2,zero,801b44 <___vfprintf_internal_r+0x43c>
  802564:	843ffc04 	addi	r16,r16,-16
  802568:	81000448 	cmpgei	r4,r16,17
  80256c:	d8c01c17 	ldw	r3,112(sp)
  802570:	d8801b17 	ldw	r2,108(sp)
  802574:	dd802704 	addi	r22,sp,156
  802578:	03000404 	movi	r12,16
  80257c:	203fec1e 	bne	r4,zero,802530 <___vfprintf_internal_r+0xe28>
  802580:	8011883a 	mov	r8,r16
  802584:	880f883a 	mov	r7,r17
  802588:	dc000f17 	ldw	r16,60(sp)
  80258c:	dc400e17 	ldw	r17,56(sp)
  802590:	10800044 	addi	r2,r2,1
  802594:	1a07883a 	add	r3,r3,r8
  802598:	d8801b15 	stw	r2,108(sp)
  80259c:	b1c00015 	stw	r7,0(r22)
  8025a0:	b2000115 	stw	r8,4(r22)
  8025a4:	d8c01c15 	stw	r3,112(sp)
  8025a8:	10800208 	cmpgei	r2,r2,8
  8025ac:	10016e1e 	bne	r2,zero,802b68 <___vfprintf_internal_r+0x1460>
  8025b0:	b5800204 	addi	r22,r22,8
  8025b4:	003d4506 	br	801acc <___vfprintf_internal_r+0x3c4>
  8025b8:	10c00060 	cmpeqi	r3,r2,1
  8025bc:	1803c81e 	bne	r3,zero,8034e0 <___vfprintf_internal_r+0x1dd8>
  8025c0:	108000a0 	cmpeqi	r2,r2,2
  8025c4:	db000417 	ldw	r12,16(sp)
  8025c8:	103ecf26 	beq	r2,zero,802108 <___vfprintf_internal_r+0xa00>
  8025cc:	d9000c17 	ldw	r4,48(sp)
  8025d0:	dc402704 	addi	r17,sp,156
  8025d4:	a08003cc 	andi	r2,r20,15
  8025d8:	a806973a 	slli	r3,r21,28
  8025dc:	a028d13a 	srli	r20,r20,4
  8025e0:	2085883a 	add	r2,r4,r2
  8025e4:	10800003 	ldbu	r2,0(r2)
  8025e8:	a82ad13a 	srli	r21,r21,4
  8025ec:	1d28b03a 	or	r20,r3,r20
  8025f0:	88bfffc5 	stb	r2,-1(r17)
  8025f4:	a544b03a 	or	r2,r20,r21
  8025f8:	8c7fffc4 	addi	r17,r17,-1
  8025fc:	103ff51e 	bne	r2,zero,8025d4 <___vfprintf_internal_r+0xecc>
  802600:	d8802704 	addi	r2,sp,156
  802604:	146bc83a 	sub	r21,r2,r17
  802608:	db000415 	stw	r12,16(sp)
  80260c:	003ed806 	br	802170 <___vfprintf_internal_r+0xa68>
  802610:	d9801a04 	addi	r6,sp,104
  802614:	900b883a 	mov	r5,r18
  802618:	9809883a 	mov	r4,r19
  80261c:	0808ab40 	call	808ab4 <__sprint_r>
  802620:	103d4226 	beq	r2,zero,801b2c <___vfprintf_internal_r+0x424>
  802624:	003d4706 	br	801b44 <___vfprintf_internal_r+0x43c>
  802628:	d9801a04 	addi	r6,sp,104
  80262c:	900b883a 	mov	r5,r18
  802630:	9809883a 	mov	r4,r19
  802634:	0808ab40 	call	808ab4 <__sprint_r>
  802638:	103d421e 	bne	r2,zero,801b44 <___vfprintf_internal_r+0x43c>
  80263c:	d9401417 	ldw	r5,80(sp)
  802640:	d8c01c17 	ldw	r3,112(sp)
  802644:	dd802704 	addi	r22,sp,156
  802648:	2802c81e 	bne	r5,zero,80316c <___vfprintf_internal_r+0x1a64>
  80264c:	d8800417 	ldw	r2,16(sp)
  802650:	d9000817 	ldw	r4,32(sp)
  802654:	1080004c 	andi	r2,r2,1
  802658:	1104b03a 	or	r2,r2,r4
  80265c:	103d2826 	beq	r2,zero,801b00 <___vfprintf_internal_r+0x3f8>
  802660:	d8800d17 	ldw	r2,52(sp)
  802664:	d9000b17 	ldw	r4,44(sp)
  802668:	b0800015 	stw	r2,0(r22)
  80266c:	d8801b17 	ldw	r2,108(sp)
  802670:	20c7883a 	add	r3,r4,r3
  802674:	b1000115 	stw	r4,4(r22)
  802678:	10800044 	addi	r2,r2,1
  80267c:	d8c01c15 	stw	r3,112(sp)
  802680:	d8801b15 	stw	r2,108(sp)
  802684:	11000208 	cmpgei	r4,r2,8
  802688:	2003821e 	bne	r4,zero,803494 <___vfprintf_internal_r+0x1d8c>
  80268c:	b5800204 	addi	r22,r22,8
  802690:	d9000817 	ldw	r4,32(sp)
  802694:	10800044 	addi	r2,r2,1
  802698:	d8801b15 	stw	r2,108(sp)
  80269c:	20c7883a 	add	r3,r4,r3
  8026a0:	b4400015 	stw	r17,0(r22)
  8026a4:	b1000115 	stw	r4,4(r22)
  8026a8:	d8c01c15 	stw	r3,112(sp)
  8026ac:	10800208 	cmpgei	r2,r2,8
  8026b0:	103d1226 	beq	r2,zero,801afc <___vfprintf_internal_r+0x3f4>
  8026b4:	d9801a04 	addi	r6,sp,104
  8026b8:	900b883a 	mov	r5,r18
  8026bc:	9809883a 	mov	r4,r19
  8026c0:	0808ab40 	call	808ab4 <__sprint_r>
  8026c4:	103d1f1e 	bne	r2,zero,801b44 <___vfprintf_internal_r+0x43c>
  8026c8:	d8c01c17 	ldw	r3,112(sp)
  8026cc:	dd802704 	addi	r22,sp,156
  8026d0:	003d0b06 	br	801b00 <___vfprintf_internal_r+0x3f8>
  8026d4:	d8800817 	ldw	r2,32(sp)
  8026d8:	da001b17 	ldw	r8,108(sp)
  8026dc:	18c00044 	addi	r3,r3,1
  8026e0:	10800088 	cmpgei	r2,r2,2
  8026e4:	45400044 	addi	r21,r8,1
  8026e8:	b7000204 	addi	fp,r22,8
  8026ec:	1000ec26 	beq	r2,zero,802aa0 <___vfprintf_internal_r+0x1398>
  8026f0:	00800044 	movi	r2,1
  8026f4:	b0800115 	stw	r2,4(r22)
  8026f8:	b4400015 	stw	r17,0(r22)
  8026fc:	d8c01c15 	stw	r3,112(sp)
  802700:	dd401b15 	stw	r21,108(sp)
  802704:	a8800210 	cmplti	r2,r21,8
  802708:	1001d126 	beq	r2,zero,802e50 <___vfprintf_internal_r+0x1748>
  80270c:	d8800b17 	ldw	r2,44(sp)
  802710:	d9000d17 	ldw	r4,52(sp)
  802714:	ad400044 	addi	r21,r21,1
  802718:	1887883a 	add	r3,r3,r2
  80271c:	e0800115 	stw	r2,4(fp)
  802720:	e1000015 	stw	r4,0(fp)
  802724:	d8c01c15 	stw	r3,112(sp)
  802728:	dd401b15 	stw	r21,108(sp)
  80272c:	a8800208 	cmpgei	r2,r21,8
  802730:	1001be1e 	bne	r2,zero,802e2c <___vfprintf_internal_r+0x1724>
  802734:	e7000204 	addi	fp,fp,8
  802738:	d9000917 	ldw	r4,36(sp)
  80273c:	d9400a17 	ldw	r5,40(sp)
  802740:	aa000044 	addi	r8,r21,1
  802744:	000d883a 	mov	r6,zero
  802748:	000f883a 	mov	r7,zero
  80274c:	d8c00e15 	stw	r3,56(sp)
  802750:	da000715 	stw	r8,28(sp)
  802754:	080cd380 	call	80cd38 <__eqdf2>
  802758:	d8c00817 	ldw	r3,32(sp)
  80275c:	da000717 	ldw	r8,28(sp)
  802760:	e5800204 	addi	r22,fp,8
  802764:	1affffc4 	addi	r11,r3,-1
  802768:	d8c00e17 	ldw	r3,56(sp)
  80276c:	1000de26 	beq	r2,zero,802ae8 <___vfprintf_internal_r+0x13e0>
  802770:	8a400044 	addi	r9,r17,1
  802774:	1ac7883a 	add	r3,r3,r11
  802778:	da001b15 	stw	r8,108(sp)
  80277c:	e2400015 	stw	r9,0(fp)
  802780:	e2c00115 	stw	r11,4(fp)
  802784:	d8c01c15 	stw	r3,112(sp)
  802788:	42000208 	cmpgei	r8,r8,8
  80278c:	4001621e 	bne	r8,zero,802d18 <___vfprintf_internal_r+0x1610>
  802790:	e0800404 	addi	r2,fp,16
  802794:	aa000084 	addi	r8,r21,2
  802798:	b039883a 	mov	fp,r22
  80279c:	102d883a 	mov	r22,r2
  8027a0:	d9001017 	ldw	r4,64(sp)
  8027a4:	d8801644 	addi	r2,sp,89
  8027a8:	da001b15 	stw	r8,108(sp)
  8027ac:	20c7883a 	add	r3,r4,r3
  8027b0:	e0800015 	stw	r2,0(fp)
  8027b4:	e1000115 	stw	r4,4(fp)
  8027b8:	d8c01c15 	stw	r3,112(sp)
  8027bc:	42000210 	cmplti	r8,r8,8
  8027c0:	403ccf1e 	bne	r8,zero,801b00 <___vfprintf_internal_r+0x3f8>
  8027c4:	003fbb06 	br	8026b4 <___vfprintf_internal_r+0xfac>
  8027c8:	db000417 	ldw	r12,16(sp)
  8027cc:	003e4a06 	br	8020f8 <___vfprintf_internal_r+0x9f0>
  8027d0:	03002074 	movhi	r12,129
  8027d4:	39000450 	cmplti	r4,r7,17
  8027d8:	d8801b17 	ldw	r2,108(sp)
  8027dc:	63038a04 	addi	r12,r12,3624
  8027e0:	2000321e 	bne	r4,zero,8028ac <___vfprintf_internal_r+0x11a4>
  8027e4:	dc401115 	stw	r17,68(sp)
  8027e8:	b009883a 	mov	r4,r22
  8027ec:	9023883a 	mov	r17,r18
  8027f0:	a82d883a 	mov	r22,r21
  8027f4:	ddc01215 	stw	r23,72(sp)
  8027f8:	03c00404 	movi	r15,16
  8027fc:	a02f883a 	mov	r23,r20
  802800:	db800e15 	stw	r14,56(sp)
  802804:	8029883a 	mov	r20,r16
  802808:	db400f15 	stw	r13,60(sp)
  80280c:	402b883a 	mov	r21,r8
  802810:	3821883a 	mov	r16,r7
  802814:	6025883a 	mov	r18,r12
  802818:	00000406 	br	80282c <___vfprintf_internal_r+0x1124>
  80281c:	843ffc04 	addi	r16,r16,-16
  802820:	81800448 	cmpgei	r6,r16,17
  802824:	21000204 	addi	r4,r4,8
  802828:	30001426 	beq	r6,zero,80287c <___vfprintf_internal_r+0x1174>
  80282c:	10800044 	addi	r2,r2,1
  802830:	18c00404 	addi	r3,r3,16
  802834:	24800015 	stw	r18,0(r4)
  802838:	23c00115 	stw	r15,4(r4)
  80283c:	d8c01c15 	stw	r3,112(sp)
  802840:	d8801b15 	stw	r2,108(sp)
  802844:	11800208 	cmpgei	r6,r2,8
  802848:	303ff426 	beq	r6,zero,80281c <___vfprintf_internal_r+0x1114>
  80284c:	d9801a04 	addi	r6,sp,104
  802850:	880b883a 	mov	r5,r17
  802854:	9809883a 	mov	r4,r19
  802858:	0808ab40 	call	808ab4 <__sprint_r>
  80285c:	1001a11e 	bne	r2,zero,802ee4 <___vfprintf_internal_r+0x17dc>
  802860:	843ffc04 	addi	r16,r16,-16
  802864:	81800448 	cmpgei	r6,r16,17
  802868:	d8c01c17 	ldw	r3,112(sp)
  80286c:	d8801b17 	ldw	r2,108(sp)
  802870:	d9002704 	addi	r4,sp,156
  802874:	03c00404 	movi	r15,16
  802878:	303fec1e 	bne	r6,zero,80282c <___vfprintf_internal_r+0x1124>
  80287c:	800f883a 	mov	r7,r16
  802880:	9019883a 	mov	r12,r18
  802884:	a021883a 	mov	r16,r20
  802888:	8825883a 	mov	r18,r17
  80288c:	b829883a 	mov	r20,r23
  802890:	db800e17 	ldw	r14,56(sp)
  802894:	db400f17 	ldw	r13,60(sp)
  802898:	ddc01217 	ldw	r23,72(sp)
  80289c:	dc401117 	ldw	r17,68(sp)
  8028a0:	a811883a 	mov	r8,r21
  8028a4:	b02b883a 	mov	r21,r22
  8028a8:	202d883a 	mov	r22,r4
  8028ac:	10800044 	addi	r2,r2,1
  8028b0:	19c7883a 	add	r3,r3,r7
  8028b4:	d8801b15 	stw	r2,108(sp)
  8028b8:	b3000015 	stw	r12,0(r22)
  8028bc:	b1c00115 	stw	r7,4(r22)
  8028c0:	d8c01c15 	stw	r3,112(sp)
  8028c4:	10800208 	cmpgei	r2,r2,8
  8028c8:	1001781e 	bne	r2,zero,802eac <___vfprintf_internal_r+0x17a4>
  8028cc:	b5800204 	addi	r22,r22,8
  8028d0:	003c5f06 	br	801a50 <___vfprintf_internal_r+0x348>
  8028d4:	d9801a04 	addi	r6,sp,104
  8028d8:	900b883a 	mov	r5,r18
  8028dc:	9809883a 	mov	r4,r19
  8028e0:	da000f15 	stw	r8,60(sp)
  8028e4:	db400e15 	stw	r13,56(sp)
  8028e8:	0808ab40 	call	808ab4 <__sprint_r>
  8028ec:	103c951e 	bne	r2,zero,801b44 <___vfprintf_internal_r+0x43c>
  8028f0:	d8c01c17 	ldw	r3,112(sp)
  8028f4:	da000f17 	ldw	r8,60(sp)
  8028f8:	db400e17 	ldw	r13,56(sp)
  8028fc:	dd802704 	addi	r22,sp,156
  802900:	003c6e06 	br	801abc <___vfprintf_internal_r+0x3b4>
  802904:	d9801a04 	addi	r6,sp,104
  802908:	900b883a 	mov	r5,r18
  80290c:	9809883a 	mov	r4,r19
  802910:	da001115 	stw	r8,68(sp)
  802914:	db400f15 	stw	r13,60(sp)
  802918:	db800e15 	stw	r14,56(sp)
  80291c:	0808ab40 	call	808ab4 <__sprint_r>
  802920:	103c881e 	bne	r2,zero,801b44 <___vfprintf_internal_r+0x43c>
  802924:	d8c01c17 	ldw	r3,112(sp)
  802928:	da001117 	ldw	r8,68(sp)
  80292c:	db400f17 	ldw	r13,60(sp)
  802930:	db800e17 	ldw	r14,56(sp)
  802934:	dd802704 	addi	r22,sp,156
  802938:	003c5306 	br	801a88 <___vfprintf_internal_r+0x380>
  80293c:	d9401417 	ldw	r5,80(sp)
  802940:	01414c0e 	bge	zero,r5,802e74 <___vfprintf_internal_r+0x176c>
  802944:	d8800717 	ldw	r2,28(sp)
  802948:	d9000817 	ldw	r4,32(sp)
  80294c:	102b883a 	mov	r21,r2
  802950:	2080e316 	blt	r4,r2,802ce0 <___vfprintf_internal_r+0x15d8>
  802954:	05400a0e 	bge	zero,r21,802980 <___vfprintf_internal_r+0x1278>
  802958:	d8801b17 	ldw	r2,108(sp)
  80295c:	1d47883a 	add	r3,r3,r21
  802960:	b4400015 	stw	r17,0(r22)
  802964:	10800044 	addi	r2,r2,1
  802968:	d8801b15 	stw	r2,108(sp)
  80296c:	b5400115 	stw	r21,4(r22)
  802970:	d8c01c15 	stw	r3,112(sp)
  802974:	10800208 	cmpgei	r2,r2,8
  802978:	10030c1e 	bne	r2,zero,8035ac <___vfprintf_internal_r+0x1ea4>
  80297c:	b5800204 	addi	r22,r22,8
  802980:	a800ff16 	blt	r21,zero,802d80 <___vfprintf_internal_r+0x1678>
  802984:	d8800717 	ldw	r2,28(sp)
  802988:	156bc83a 	sub	r21,r2,r21
  80298c:	05410616 	blt	zero,r21,802da8 <___vfprintf_internal_r+0x16a0>
  802990:	dd401417 	ldw	r21,80(sp)
  802994:	d8800817 	ldw	r2,32(sp)
  802998:	a880d40e 	bge	r21,r2,802cec <___vfprintf_internal_r+0x15e4>
  80299c:	d8800d17 	ldw	r2,52(sp)
  8029a0:	d9000b17 	ldw	r4,44(sp)
  8029a4:	b0800015 	stw	r2,0(r22)
  8029a8:	d8801b17 	ldw	r2,108(sp)
  8029ac:	1907883a 	add	r3,r3,r4
  8029b0:	b1000115 	stw	r4,4(r22)
  8029b4:	10800044 	addi	r2,r2,1
  8029b8:	d8801b15 	stw	r2,108(sp)
  8029bc:	d8c01c15 	stw	r3,112(sp)
  8029c0:	10800208 	cmpgei	r2,r2,8
  8029c4:	10028e1e 	bne	r2,zero,803400 <___vfprintf_internal_r+0x1cf8>
  8029c8:	b5800204 	addi	r22,r22,8
  8029cc:	d9000817 	ldw	r4,32(sp)
  8029d0:	d9400717 	ldw	r5,28(sp)
  8029d4:	2545c83a 	sub	r2,r4,r21
  8029d8:	2149c83a 	sub	r4,r4,r5
  8029dc:	102b883a 	mov	r21,r2
  8029e0:	2080010e 	bge	r4,r2,8029e8 <___vfprintf_internal_r+0x12e0>
  8029e4:	202b883a 	mov	r21,r4
  8029e8:	05400c0e 	bge	zero,r21,802a1c <___vfprintf_internal_r+0x1314>
  8029ec:	d9000717 	ldw	r4,28(sp)
  8029f0:	1d47883a 	add	r3,r3,r21
  8029f4:	b5400115 	stw	r21,4(r22)
  8029f8:	8913883a 	add	r9,r17,r4
  8029fc:	d9001b17 	ldw	r4,108(sp)
  802a00:	b2400015 	stw	r9,0(r22)
  802a04:	d8c01c15 	stw	r3,112(sp)
  802a08:	21000044 	addi	r4,r4,1
  802a0c:	d9001b15 	stw	r4,108(sp)
  802a10:	21000208 	cmpgei	r4,r4,8
  802a14:	2002f01e 	bne	r4,zero,8035d8 <___vfprintf_internal_r+0x1ed0>
  802a18:	b5800204 	addi	r22,r22,8
  802a1c:	a800010e 	bge	r21,zero,802a24 <___vfprintf_internal_r+0x131c>
  802a20:	002b883a 	mov	r21,zero
  802a24:	156bc83a 	sub	r21,r2,r21
  802a28:	057c350e 	bge	zero,r21,801b00 <___vfprintf_internal_r+0x3f8>
  802a2c:	01c02074 	movhi	r7,129
  802a30:	a9000450 	cmplti	r4,r21,17
  802a34:	d8801b17 	ldw	r2,108(sp)
  802a38:	39c38604 	addi	r7,r7,3608
  802a3c:	2001ad1e 	bne	r4,zero,8030f4 <___vfprintf_internal_r+0x19ec>
  802a40:	07000404 	movi	fp,16
  802a44:	3823883a 	mov	r17,r7
  802a48:	00000406 	br	802a5c <___vfprintf_internal_r+0x1354>
  802a4c:	b5800204 	addi	r22,r22,8
  802a50:	ad7ffc04 	addi	r21,r21,-16
  802a54:	a9000448 	cmpgei	r4,r21,17
  802a58:	2001a526 	beq	r4,zero,8030f0 <___vfprintf_internal_r+0x19e8>
  802a5c:	10800044 	addi	r2,r2,1
  802a60:	18c00404 	addi	r3,r3,16
  802a64:	b4400015 	stw	r17,0(r22)
  802a68:	b7000115 	stw	fp,4(r22)
  802a6c:	d8c01c15 	stw	r3,112(sp)
  802a70:	d8801b15 	stw	r2,108(sp)
  802a74:	11000208 	cmpgei	r4,r2,8
  802a78:	203ff426 	beq	r4,zero,802a4c <___vfprintf_internal_r+0x1344>
  802a7c:	d9801a04 	addi	r6,sp,104
  802a80:	900b883a 	mov	r5,r18
  802a84:	9809883a 	mov	r4,r19
  802a88:	0808ab40 	call	808ab4 <__sprint_r>
  802a8c:	103c2d1e 	bne	r2,zero,801b44 <___vfprintf_internal_r+0x43c>
  802a90:	d8c01c17 	ldw	r3,112(sp)
  802a94:	d8801b17 	ldw	r2,108(sp)
  802a98:	dd802704 	addi	r22,sp,156
  802a9c:	003fec06 	br	802a50 <___vfprintf_internal_r+0x1348>
  802aa0:	d8800417 	ldw	r2,16(sp)
  802aa4:	1080004c 	andi	r2,r2,1
  802aa8:	103f111e 	bne	r2,zero,8026f0 <___vfprintf_internal_r+0xfe8>
  802aac:	00800044 	movi	r2,1
  802ab0:	dd401b15 	stw	r21,108(sp)
  802ab4:	b4400015 	stw	r17,0(r22)
  802ab8:	b0800115 	stw	r2,4(r22)
  802abc:	d8c01c15 	stw	r3,112(sp)
  802ac0:	ad400208 	cmpgei	r21,r21,8
  802ac4:	a800941e 	bne	r21,zero,802d18 <___vfprintf_internal_r+0x1610>
  802ac8:	42000084 	addi	r8,r8,2
  802acc:	b5800404 	addi	r22,r22,16
  802ad0:	003f3306 	br	8027a0 <___vfprintf_internal_r+0x1098>
  802ad4:	4002821e 	bne	r8,zero,8034e0 <___vfprintf_internal_r+0x1dd8>
  802ad8:	0011883a 	mov	r8,zero
  802adc:	002b883a 	mov	r21,zero
  802ae0:	dc402704 	addi	r17,sp,156
  802ae4:	003da206 	br	802170 <___vfprintf_internal_r+0xa68>
  802ae8:	02ff2d0e 	bge	zero,r11,8027a0 <___vfprintf_internal_r+0x1098>
  802aec:	58800450 	cmplti	r2,r11,17
  802af0:	01c02074 	movhi	r7,129
  802af4:	1003261e 	bne	r2,zero,803790 <___vfprintf_internal_r+0x2088>
  802af8:	39c38604 	addi	r7,r7,3608
  802afc:	dc000715 	stw	r16,28(sp)
  802b00:	05800404 	movi	r22,16
  802b04:	5823883a 	mov	r17,r11
  802b08:	402b883a 	mov	r21,r8
  802b0c:	3821883a 	mov	r16,r7
  802b10:	00000506 	br	802b28 <___vfprintf_internal_r+0x1420>
  802b14:	e7000204 	addi	fp,fp,8
  802b18:	8c7ffc04 	addi	r17,r17,-16
  802b1c:	88800448 	cmpgei	r2,r17,17
  802b20:	1001be26 	beq	r2,zero,80321c <___vfprintf_internal_r+0x1b14>
  802b24:	ad400044 	addi	r21,r21,1
  802b28:	18c00404 	addi	r3,r3,16
  802b2c:	e4000015 	stw	r16,0(fp)
  802b30:	e5800115 	stw	r22,4(fp)
  802b34:	d8c01c15 	stw	r3,112(sp)
  802b38:	dd401b15 	stw	r21,108(sp)
  802b3c:	a8800208 	cmpgei	r2,r21,8
  802b40:	103ff426 	beq	r2,zero,802b14 <___vfprintf_internal_r+0x140c>
  802b44:	d9801a04 	addi	r6,sp,104
  802b48:	900b883a 	mov	r5,r18
  802b4c:	9809883a 	mov	r4,r19
  802b50:	0808ab40 	call	808ab4 <__sprint_r>
  802b54:	103bfb1e 	bne	r2,zero,801b44 <___vfprintf_internal_r+0x43c>
  802b58:	dd401b17 	ldw	r21,108(sp)
  802b5c:	d8c01c17 	ldw	r3,112(sp)
  802b60:	df002704 	addi	fp,sp,156
  802b64:	003fec06 	br	802b18 <___vfprintf_internal_r+0x1410>
  802b68:	d9801a04 	addi	r6,sp,104
  802b6c:	900b883a 	mov	r5,r18
  802b70:	9809883a 	mov	r4,r19
  802b74:	0808ab40 	call	808ab4 <__sprint_r>
  802b78:	103bf21e 	bne	r2,zero,801b44 <___vfprintf_internal_r+0x43c>
  802b7c:	d8c01c17 	ldw	r3,112(sp)
  802b80:	dd802704 	addi	r22,sp,156
  802b84:	003bd106 	br	801acc <___vfprintf_internal_r+0x3c4>
  802b88:	d8800417 	ldw	r2,16(sp)
  802b8c:	1080004c 	andi	r2,r2,1
  802b90:	103bdb26 	beq	r2,zero,801b00 <___vfprintf_internal_r+0x3f8>
  802b94:	003df106 	br	80235c <___vfprintf_internal_r+0xc54>
  802b98:	dc402704 	addi	r17,sp,156
  802b9c:	003d7406 	br	802170 <___vfprintf_internal_r+0xa68>
  802ba0:	d9000517 	ldw	r4,20(sp)
  802ba4:	2005d7fa 	srai	r2,r4,31
  802ba8:	19000015 	stw	r4,0(r3)
  802bac:	18800115 	stw	r2,4(r3)
  802bb0:	003b0906 	br	8017d8 <___vfprintf_internal_r+0xd0>
  802bb4:	00800c04 	movi	r2,48
  802bb8:	d8801385 	stb	r2,78(sp)
  802bbc:	df0013c5 	stb	fp,79(sp)
  802bc0:	63000094 	ori	r12,r12,2
  802bc4:	00800084 	movi	r2,2
  802bc8:	003c1206 	br	801c14 <___vfprintf_internal_r+0x50c>
  802bcc:	25000017 	ldw	r20,0(r4)
  802bd0:	002b883a 	mov	r21,zero
  802bd4:	d8c00615 	stw	r3,24(sp)
  802bd8:	003ce906 	br	801f80 <___vfprintf_internal_r+0x878>
  802bdc:	25000017 	ldw	r20,0(r4)
  802be0:	002b883a 	mov	r21,zero
  802be4:	d8c00615 	stw	r3,24(sp)
  802be8:	0005883a 	mov	r2,zero
  802bec:	003c0906 	br	801c14 <___vfprintf_internal_r+0x50c>
  802bf0:	25000017 	ldw	r20,0(r4)
  802bf4:	002b883a 	mov	r21,zero
  802bf8:	d8c00615 	stw	r3,24(sp)
  802bfc:	00800044 	movi	r2,1
  802c00:	003c0406 	br	801c14 <___vfprintf_internal_r+0x50c>
  802c04:	25000017 	ldw	r20,0(r4)
  802c08:	d8c00615 	stw	r3,24(sp)
  802c0c:	a02bd7fa 	srai	r21,r20,31
  802c10:	a805883a 	mov	r2,r21
  802c14:	003cb806 	br	801ef8 <___vfprintf_internal_r+0x7f0>
  802c18:	18800017 	ldw	r2,0(r3)
  802c1c:	d8800915 	stw	r2,36(sp)
  802c20:	18800117 	ldw	r2,4(r3)
  802c24:	d8800a15 	stw	r2,40(sp)
  802c28:	003c3006 	br	801cec <___vfprintf_internal_r+0x5e4>
  802c2c:	db401343 	ldbu	r13,77(sp)
  802c30:	a83cbc26 	beq	r21,zero,801f24 <___vfprintf_internal_r+0x81c>
  802c34:	dc402704 	addi	r17,sp,156
  802c38:	a805883a 	mov	r2,r21
  802c3c:	dc000715 	stw	r16,28(sp)
  802c40:	902b883a 	mov	r21,r18
  802c44:	8821883a 	mov	r16,r17
  802c48:	db000415 	stw	r12,16(sp)
  802c4c:	a023883a 	mov	r17,r20
  802c50:	da000e15 	stw	r8,56(sp)
  802c54:	9829883a 	mov	r20,r19
  802c58:	1025883a 	mov	r18,r2
  802c5c:	6827883a 	mov	r19,r13
  802c60:	8809883a 	mov	r4,r17
  802c64:	900b883a 	mov	r5,r18
  802c68:	01800284 	movi	r6,10
  802c6c:	000f883a 	mov	r7,zero
  802c70:	080b3140 	call	80b314 <__umoddi3>
  802c74:	10800c04 	addi	r2,r2,48
  802c78:	8809883a 	mov	r4,r17
  802c7c:	900b883a 	mov	r5,r18
  802c80:	01800284 	movi	r6,10
  802c84:	000f883a 	mov	r7,zero
  802c88:	80bfffc5 	stb	r2,-1(r16)
  802c8c:	080acf80 	call	80acf8 <__udivdi3>
  802c90:	900d883a 	mov	r6,r18
  802c94:	880f883a 	mov	r7,r17
  802c98:	843fffc4 	addi	r16,r16,-1
  802c9c:	1023883a 	mov	r17,r2
  802ca0:	1825883a 	mov	r18,r3
  802ca4:	303fee1e 	bne	r6,zero,802c60 <___vfprintf_internal_r+0x1558>
  802ca8:	39c002a8 	cmpgeui	r7,r7,10
  802cac:	383fec1e 	bne	r7,zero,802c60 <___vfprintf_internal_r+0x1558>
  802cb0:	8023883a 	mov	r17,r16
  802cb4:	d8802704 	addi	r2,sp,156
  802cb8:	981b883a 	mov	r13,r19
  802cbc:	a825883a 	mov	r18,r21
  802cc0:	dc000717 	ldw	r16,28(sp)
  802cc4:	da000e17 	ldw	r8,56(sp)
  802cc8:	a027883a 	mov	r19,r20
  802ccc:	146bc83a 	sub	r21,r2,r17
  802cd0:	003d2706 	br	802170 <___vfprintf_internal_r+0xa68>
  802cd4:	0421c83a 	sub	r16,zero,r16
  802cd8:	d8800615 	stw	r2,24(sp)
  802cdc:	003d4506 	br	8021f4 <___vfprintf_internal_r+0xaec>
  802ce0:	202b883a 	mov	r21,r4
  802ce4:	057f1c16 	blt	zero,r21,802958 <___vfprintf_internal_r+0x1250>
  802ce8:	003f2506 	br	802980 <___vfprintf_internal_r+0x1278>
  802cec:	d8800417 	ldw	r2,16(sp)
  802cf0:	1080004c 	andi	r2,r2,1
  802cf4:	103f291e 	bne	r2,zero,80299c <___vfprintf_internal_r+0x1294>
  802cf8:	d9000817 	ldw	r4,32(sp)
  802cfc:	d9400717 	ldw	r5,28(sp)
  802d00:	2545c83a 	sub	r2,r4,r21
  802d04:	2179c83a 	sub	fp,r4,r5
  802d08:	102b883a 	mov	r21,r2
  802d0c:	e0bf430e 	bge	fp,r2,802a1c <___vfprintf_internal_r+0x1314>
  802d10:	e02b883a 	mov	r21,fp
  802d14:	003f4106 	br	802a1c <___vfprintf_internal_r+0x1314>
  802d18:	d9801a04 	addi	r6,sp,104
  802d1c:	900b883a 	mov	r5,r18
  802d20:	9809883a 	mov	r4,r19
  802d24:	0808ab40 	call	808ab4 <__sprint_r>
  802d28:	103b861e 	bne	r2,zero,801b44 <___vfprintf_internal_r+0x43c>
  802d2c:	da001b17 	ldw	r8,108(sp)
  802d30:	d8c01c17 	ldw	r3,112(sp)
  802d34:	dd802904 	addi	r22,sp,164
  802d38:	42000044 	addi	r8,r8,1
  802d3c:	df002704 	addi	fp,sp,156
  802d40:	003e9706 	br	8027a0 <___vfprintf_internal_r+0x1098>
  802d44:	bf000043 	ldbu	fp,1(r23)
  802d48:	63000814 	ori	r12,r12,32
  802d4c:	bdc00044 	addi	r23,r23,1
  802d50:	e2c03fcc 	andi	r11,fp,255
  802d54:	5ac0201c 	xori	r11,r11,128
  802d58:	5affe004 	addi	r11,r11,-128
  802d5c:	003ab606 	br	801838 <___vfprintf_internal_r+0x130>
  802d60:	d9801a04 	addi	r6,sp,104
  802d64:	900b883a 	mov	r5,r18
  802d68:	9809883a 	mov	r4,r19
  802d6c:	0808ab40 	call	808ab4 <__sprint_r>
  802d70:	103b741e 	bne	r2,zero,801b44 <___vfprintf_internal_r+0x43c>
  802d74:	d8c01c17 	ldw	r3,112(sp)
  802d78:	dd802704 	addi	r22,sp,156
  802d7c:	003d8306 	br	80238c <___vfprintf_internal_r+0xc84>
  802d80:	002b883a 	mov	r21,zero
  802d84:	003eff06 	br	802984 <___vfprintf_internal_r+0x127c>
  802d88:	408001f0 	cmpltui	r2,r8,7
  802d8c:	402b883a 	mov	r21,r8
  802d90:	1001a426 	beq	r2,zero,803424 <___vfprintf_internal_r+0x1d1c>
  802d94:	04402074 	movhi	r17,129
  802d98:	a829883a 	mov	r20,r21
  802d9c:	d8c00615 	stw	r3,24(sp)
  802da0:	8c438304 	addi	r17,r17,3596
  802da4:	003b1d06 	br	801a1c <___vfprintf_internal_r+0x314>
  802da8:	01c02074 	movhi	r7,129
  802dac:	a9000450 	cmplti	r4,r21,17
  802db0:	d8801b17 	ldw	r2,108(sp)
  802db4:	39c38604 	addi	r7,r7,3608
  802db8:	20017f1e 	bne	r4,zero,8033b8 <___vfprintf_internal_r+0x1cb0>
  802dbc:	dc000e15 	stw	r16,56(sp)
  802dc0:	07000404 	movi	fp,16
  802dc4:	3821883a 	mov	r16,r7
  802dc8:	00000406 	br	802ddc <___vfprintf_internal_r+0x16d4>
  802dcc:	b5800204 	addi	r22,r22,8
  802dd0:	ad7ffc04 	addi	r21,r21,-16
  802dd4:	a9000448 	cmpgei	r4,r21,17
  802dd8:	20017526 	beq	r4,zero,8033b0 <___vfprintf_internal_r+0x1ca8>
  802ddc:	10800044 	addi	r2,r2,1
  802de0:	18c00404 	addi	r3,r3,16
  802de4:	b4000015 	stw	r16,0(r22)
  802de8:	b7000115 	stw	fp,4(r22)
  802dec:	d8c01c15 	stw	r3,112(sp)
  802df0:	d8801b15 	stw	r2,108(sp)
  802df4:	11000208 	cmpgei	r4,r2,8
  802df8:	203ff426 	beq	r4,zero,802dcc <___vfprintf_internal_r+0x16c4>
  802dfc:	d9801a04 	addi	r6,sp,104
  802e00:	900b883a 	mov	r5,r18
  802e04:	9809883a 	mov	r4,r19
  802e08:	0808ab40 	call	808ab4 <__sprint_r>
  802e0c:	103b4d1e 	bne	r2,zero,801b44 <___vfprintf_internal_r+0x43c>
  802e10:	d8c01c17 	ldw	r3,112(sp)
  802e14:	d8801b17 	ldw	r2,108(sp)
  802e18:	dd802704 	addi	r22,sp,156
  802e1c:	003fec06 	br	802dd0 <___vfprintf_internal_r+0x16c8>
  802e20:	d8800517 	ldw	r2,20(sp)
  802e24:	18800015 	stw	r2,0(r3)
  802e28:	003a6b06 	br	8017d8 <___vfprintf_internal_r+0xd0>
  802e2c:	d9801a04 	addi	r6,sp,104
  802e30:	900b883a 	mov	r5,r18
  802e34:	9809883a 	mov	r4,r19
  802e38:	0808ab40 	call	808ab4 <__sprint_r>
  802e3c:	103b411e 	bne	r2,zero,801b44 <___vfprintf_internal_r+0x43c>
  802e40:	d8c01c17 	ldw	r3,112(sp)
  802e44:	dd401b17 	ldw	r21,108(sp)
  802e48:	df002704 	addi	fp,sp,156
  802e4c:	003e3a06 	br	802738 <___vfprintf_internal_r+0x1030>
  802e50:	d9801a04 	addi	r6,sp,104
  802e54:	900b883a 	mov	r5,r18
  802e58:	9809883a 	mov	r4,r19
  802e5c:	0808ab40 	call	808ab4 <__sprint_r>
  802e60:	103b381e 	bne	r2,zero,801b44 <___vfprintf_internal_r+0x43c>
  802e64:	d8c01c17 	ldw	r3,112(sp)
  802e68:	dd401b17 	ldw	r21,108(sp)
  802e6c:	df002704 	addi	fp,sp,156
  802e70:	003e2606 	br	80270c <___vfprintf_internal_r+0x1004>
  802e74:	d8801b17 	ldw	r2,108(sp)
  802e78:	01002074 	movhi	r4,129
  802e7c:	21038504 	addi	r4,r4,3604
  802e80:	10800044 	addi	r2,r2,1
  802e84:	18c00044 	addi	r3,r3,1
  802e88:	b1000015 	stw	r4,0(r22)
  802e8c:	01000044 	movi	r4,1
  802e90:	d8801b15 	stw	r2,108(sp)
  802e94:	b1000115 	stw	r4,4(r22)
  802e98:	d8c01c15 	stw	r3,112(sp)
  802e9c:	10800208 	cmpgei	r2,r2,8
  802ea0:	103de11e 	bne	r2,zero,802628 <___vfprintf_internal_r+0xf20>
  802ea4:	b5800204 	addi	r22,r22,8
  802ea8:	003de706 	br	802648 <___vfprintf_internal_r+0xf40>
  802eac:	d9801a04 	addi	r6,sp,104
  802eb0:	900b883a 	mov	r5,r18
  802eb4:	9809883a 	mov	r4,r19
  802eb8:	da001115 	stw	r8,68(sp)
  802ebc:	db400f15 	stw	r13,60(sp)
  802ec0:	db800e15 	stw	r14,56(sp)
  802ec4:	0808ab40 	call	808ab4 <__sprint_r>
  802ec8:	103b1e1e 	bne	r2,zero,801b44 <___vfprintf_internal_r+0x43c>
  802ecc:	d8c01c17 	ldw	r3,112(sp)
  802ed0:	da001117 	ldw	r8,68(sp)
  802ed4:	db400f17 	ldw	r13,60(sp)
  802ed8:	db800e17 	ldw	r14,56(sp)
  802edc:	dd802704 	addi	r22,sp,156
  802ee0:	003adb06 	br	801a50 <___vfprintf_internal_r+0x348>
  802ee4:	8825883a 	mov	r18,r17
  802ee8:	003b1606 	br	801b44 <___vfprintf_internal_r+0x43c>
  802eec:	d9000917 	ldw	r4,36(sp)
  802ef0:	d9400a17 	ldw	r5,40(sp)
  802ef4:	da000615 	stw	r8,24(sp)
  802ef8:	200d883a 	mov	r6,r4
  802efc:	280f883a 	mov	r7,r5
  802f00:	db000415 	stw	r12,16(sp)
  802f04:	080e0740 	call	80e074 <__unorddf2>
  802f08:	db000417 	ldw	r12,16(sp)
  802f0c:	da000617 	ldw	r8,24(sp)
  802f10:	1002091e 	bne	r2,zero,803738 <___vfprintf_internal_r+0x2030>
  802f14:	057ff7c4 	movi	r21,-33
  802f18:	40bfffe0 	cmpeqi	r2,r8,-1
  802f1c:	e56a703a 	and	r21,fp,r21
  802f20:	1001ab1e 	bne	r2,zero,8035d0 <___vfprintf_internal_r+0x1ec8>
  802f24:	a88011d8 	cmpnei	r2,r21,71
  802f28:	10015726 	beq	r2,zero,803488 <___vfprintf_internal_r+0x1d80>
  802f2c:	60804014 	ori	r2,r12,256
  802f30:	d8800415 	stw	r2,16(sp)
  802f34:	d8800a17 	ldw	r2,40(sp)
  802f38:	10012d16 	blt	r2,zero,8033f0 <___vfprintf_internal_r+0x1ce8>
  802f3c:	dd000a17 	ldw	r20,40(sp)
  802f40:	d8000605 	stb	zero,24(sp)
  802f44:	e08019a0 	cmpeqi	r2,fp,102
  802f48:	d8800f15 	stw	r2,60(sp)
  802f4c:	1000c31e 	bne	r2,zero,80325c <___vfprintf_internal_r+0x1b54>
  802f50:	e08011a0 	cmpeqi	r2,fp,70
  802f54:	1000c11e 	bne	r2,zero,80325c <___vfprintf_internal_r+0x1b54>
  802f58:	a8801158 	cmpnei	r2,r21,69
  802f5c:	10016226 	beq	r2,zero,8034e8 <___vfprintf_internal_r+0x1de0>
  802f60:	d8801804 	addi	r2,sp,96
  802f64:	d8800315 	stw	r2,12(sp)
  802f68:	d9400917 	ldw	r5,36(sp)
  802f6c:	d8801504 	addi	r2,sp,84
  802f70:	d8800215 	stw	r2,8(sp)
  802f74:	d8801404 	addi	r2,sp,80
  802f78:	da000015 	stw	r8,0(sp)
  802f7c:	9809883a 	mov	r4,r19
  802f80:	d8800115 	stw	r2,4(sp)
  802f84:	01c00084 	movi	r7,2
  802f88:	a00d883a 	mov	r6,r20
  802f8c:	db000815 	stw	r12,32(sp)
  802f90:	da000715 	stw	r8,28(sp)
  802f94:	0803c4c0 	call	803c4c <_dtoa_r>
  802f98:	da000717 	ldw	r8,28(sp)
  802f9c:	e10019d8 	cmpnei	r4,fp,103
  802fa0:	db000817 	ldw	r12,32(sp)
  802fa4:	1023883a 	mov	r17,r2
  802fa8:	4007883a 	mov	r3,r8
  802fac:	2001621e 	bne	r4,zero,803538 <___vfprintf_internal_r+0x1e30>
  802fb0:	6080004c 	andi	r2,r12,1
  802fb4:	1001621e 	bne	r2,zero,803540 <___vfprintf_internal_r+0x1e38>
  802fb8:	d8801417 	ldw	r2,80(sp)
  802fbc:	ad4011e0 	cmpeqi	r21,r21,71
  802fc0:	d8800715 	stw	r2,28(sp)
  802fc4:	d8801817 	ldw	r2,96(sp)
  802fc8:	1445c83a 	sub	r2,r2,r17
  802fcc:	d8800815 	stw	r2,32(sp)
  802fd0:	a8000526 	beq	r21,zero,802fe8 <___vfprintf_internal_r+0x18e0>
  802fd4:	d8c00717 	ldw	r3,28(sp)
  802fd8:	18bfff50 	cmplti	r2,r3,-3
  802fdc:	1000011e 	bne	r2,zero,802fe4 <___vfprintf_internal_r+0x18dc>
  802fe0:	40c1670e 	bge	r8,r3,803580 <___vfprintf_internal_r+0x1e78>
  802fe4:	e73fff84 	addi	fp,fp,-2
  802fe8:	d8800717 	ldw	r2,28(sp)
  802fec:	df001645 	stb	fp,89(sp)
  802ff0:	157fffc4 	addi	r21,r2,-1
  802ff4:	dd401415 	stw	r21,80(sp)
  802ff8:	a801c316 	blt	r21,zero,803708 <___vfprintf_internal_r+0x2000>
  802ffc:	00800ac4 	movi	r2,43
  803000:	d8801685 	stb	r2,90(sp)
  803004:	a8800290 	cmplti	r2,r21,10
  803008:	1001b81e 	bne	r2,zero,8036ec <___vfprintf_internal_r+0x1fe4>
  80300c:	d98019c4 	addi	r6,sp,103
  803010:	9029883a 	mov	r20,r18
  803014:	dc400715 	stw	r17,28(sp)
  803018:	8025883a 	mov	r18,r16
  80301c:	db000f15 	stw	r12,60(sp)
  803020:	3021883a 	mov	r16,r6
  803024:	a809883a 	mov	r4,r21
  803028:	01400284 	movi	r5,10
  80302c:	080b9580 	call	80b958 <__modsi3>
  803030:	10800c04 	addi	r2,r2,48
  803034:	a809883a 	mov	r4,r21
  803038:	80bfffc5 	stb	r2,-1(r16)
  80303c:	01400284 	movi	r5,10
  803040:	080b8d80 	call	80b8d8 <__divsi3>
  803044:	a9001908 	cmpgei	r4,r21,100
  803048:	8023883a 	mov	r17,r16
  80304c:	102b883a 	mov	r21,r2
  803050:	843fffc4 	addi	r16,r16,-1
  803054:	203ff31e 	bne	r4,zero,803024 <___vfprintf_internal_r+0x191c>
  803058:	800d883a 	mov	r6,r16
  80305c:	11000c04 	addi	r4,r2,48
  803060:	9021883a 	mov	r16,r18
  803064:	a025883a 	mov	r18,r20
  803068:	8829883a 	mov	r20,r17
  80306c:	a0bfff84 	addi	r2,r20,-2
  803070:	313fffc5 	stb	r4,-1(r6)
  803074:	d8c019c4 	addi	r3,sp,103
  803078:	db000f17 	ldw	r12,60(sp)
  80307c:	dc400717 	ldw	r17,28(sp)
  803080:	10c1cd2e 	bgeu	r2,r3,8037b8 <___vfprintf_internal_r+0x20b0>
  803084:	d8c016c4 	addi	r3,sp,91
  803088:	00000106 	br	803090 <___vfprintf_internal_r+0x1988>
  80308c:	11000003 	ldbu	r4,0(r2)
  803090:	19000005 	stb	r4,0(r3)
  803094:	10800044 	addi	r2,r2,1
  803098:	d90019c4 	addi	r4,sp,103
  80309c:	18c00044 	addi	r3,r3,1
  8030a0:	113ffa1e 	bne	r2,r4,80308c <___vfprintf_internal_r+0x1984>
  8030a4:	d8801a44 	addi	r2,sp,105
  8030a8:	d8c016c4 	addi	r3,sp,91
  8030ac:	1505c83a 	sub	r2,r2,r20
  8030b0:	1885883a 	add	r2,r3,r2
  8030b4:	d8c01644 	addi	r3,sp,89
  8030b8:	10c5c83a 	sub	r2,r2,r3
  8030bc:	d8801015 	stw	r2,64(sp)
  8030c0:	d8c00817 	ldw	r3,32(sp)
  8030c4:	d9001017 	ldw	r4,64(sp)
  8030c8:	18800088 	cmpgei	r2,r3,2
  8030cc:	20eb883a 	add	r21,r4,r3
  8030d0:	10019226 	beq	r2,zero,80371c <___vfprintf_internal_r+0x2014>
  8030d4:	d8800b17 	ldw	r2,44(sp)
  8030d8:	a8ab883a 	add	r21,r21,r2
  8030dc:	a829883a 	mov	r20,r21
  8030e0:	a800010e 	bge	r21,zero,8030e8 <___vfprintf_internal_r+0x19e0>
  8030e4:	0029883a 	mov	r20,zero
  8030e8:	d8000715 	stw	zero,28(sp)
  8030ec:	00008e06 	br	803328 <___vfprintf_internal_r+0x1c20>
  8030f0:	880f883a 	mov	r7,r17
  8030f4:	10800044 	addi	r2,r2,1
  8030f8:	1d47883a 	add	r3,r3,r21
  8030fc:	b1c00015 	stw	r7,0(r22)
  803100:	003a7906 	br	801ae8 <___vfprintf_internal_r+0x3e0>
  803104:	d9801a04 	addi	r6,sp,104
  803108:	900b883a 	mov	r5,r18
  80310c:	9809883a 	mov	r4,r19
  803110:	0808ab40 	call	808ab4 <__sprint_r>
  803114:	103a8b1e 	bne	r2,zero,801b44 <___vfprintf_internal_r+0x43c>
  803118:	d8c01c17 	ldw	r3,112(sp)
  80311c:	dd802704 	addi	r22,sp,156
  803120:	003c8b06 	br	802350 <___vfprintf_internal_r+0xc48>
  803124:	d9801a04 	addi	r6,sp,104
  803128:	900b883a 	mov	r5,r18
  80312c:	9809883a 	mov	r4,r19
  803130:	da000e15 	stw	r8,56(sp)
  803134:	0808ab40 	call	808ab4 <__sprint_r>
  803138:	103a821e 	bne	r2,zero,801b44 <___vfprintf_internal_r+0x43c>
  80313c:	d8c01c17 	ldw	r3,112(sp)
  803140:	da000e17 	ldw	r8,56(sp)
  803144:	dd802704 	addi	r22,sp,156
  803148:	003a5e06 	br	801ac4 <___vfprintf_internal_r+0x3bc>
  80314c:	8809883a 	mov	r4,r17
  803150:	db000415 	stw	r12,16(sp)
  803154:	d8c00615 	stw	r3,24(sp)
  803158:	08016700 	call	801670 <strlen>
  80315c:	db000417 	ldw	r12,16(sp)
  803160:	102b883a 	mov	r21,r2
  803164:	1029883a 	mov	r20,r2
  803168:	003a2c06 	br	801a1c <___vfprintf_internal_r+0x314>
  80316c:	d8800d17 	ldw	r2,52(sp)
  803170:	d9000b17 	ldw	r4,44(sp)
  803174:	b0800015 	stw	r2,0(r22)
  803178:	d8801b17 	ldw	r2,108(sp)
  80317c:	20c7883a 	add	r3,r4,r3
  803180:	b1000115 	stw	r4,4(r22)
  803184:	10800044 	addi	r2,r2,1
  803188:	d8c01c15 	stw	r3,112(sp)
  80318c:	d8801b15 	stw	r2,108(sp)
  803190:	11000208 	cmpgei	r4,r2,8
  803194:	2000bf1e 	bne	r4,zero,803494 <___vfprintf_internal_r+0x1d8c>
  803198:	b5800204 	addi	r22,r22,8
  80319c:	283d3c0e 	bge	r5,zero,802690 <___vfprintf_internal_r+0xf88>
  8031a0:	01c02074 	movhi	r7,129
  8031a4:	293ffc08 	cmpgei	r4,r5,-16
  8031a8:	39c38604 	addi	r7,r7,3608
  8031ac:	0179c83a 	sub	fp,zero,r5
  8031b0:	2001361e 	bne	r4,zero,80368c <___vfprintf_internal_r+0x1f84>
  8031b4:	dc000715 	stw	r16,28(sp)
  8031b8:	05400404 	movi	r21,16
  8031bc:	9021883a 	mov	r16,r18
  8031c0:	3825883a 	mov	r18,r7
  8031c4:	00000406 	br	8031d8 <___vfprintf_internal_r+0x1ad0>
  8031c8:	b5800204 	addi	r22,r22,8
  8031cc:	e73ffc04 	addi	fp,fp,-16
  8031d0:	e1800448 	cmpgei	r6,fp,17
  8031d4:	30012a26 	beq	r6,zero,803680 <___vfprintf_internal_r+0x1f78>
  8031d8:	10800044 	addi	r2,r2,1
  8031dc:	18c00404 	addi	r3,r3,16
  8031e0:	b4800015 	stw	r18,0(r22)
  8031e4:	b5400115 	stw	r21,4(r22)
  8031e8:	d8c01c15 	stw	r3,112(sp)
  8031ec:	d8801b15 	stw	r2,108(sp)
  8031f0:	11800208 	cmpgei	r6,r2,8
  8031f4:	303ff426 	beq	r6,zero,8031c8 <___vfprintf_internal_r+0x1ac0>
  8031f8:	d9801a04 	addi	r6,sp,104
  8031fc:	800b883a 	mov	r5,r16
  803200:	9809883a 	mov	r4,r19
  803204:	0808ab40 	call	808ab4 <__sprint_r>
  803208:	10015f1e 	bne	r2,zero,803788 <___vfprintf_internal_r+0x2080>
  80320c:	d8c01c17 	ldw	r3,112(sp)
  803210:	d8801b17 	ldw	r2,108(sp)
  803214:	dd802704 	addi	r22,sp,156
  803218:	003fec06 	br	8031cc <___vfprintf_internal_r+0x1ac4>
  80321c:	800f883a 	mov	r7,r16
  803220:	dc000717 	ldw	r16,28(sp)
  803224:	8817883a 	mov	r11,r17
  803228:	aa000044 	addi	r8,r21,1
  80322c:	e0800204 	addi	r2,fp,8
  803230:	1ac7883a 	add	r3,r3,r11
  803234:	e1c00015 	stw	r7,0(fp)
  803238:	e2c00115 	stw	r11,4(fp)
  80323c:	d8c01c15 	stw	r3,112(sp)
  803240:	da001b15 	stw	r8,108(sp)
  803244:	41000208 	cmpgei	r4,r8,8
  803248:	203eb31e 	bne	r4,zero,802d18 <___vfprintf_internal_r+0x1610>
  80324c:	42000044 	addi	r8,r8,1
  803250:	15800204 	addi	r22,r2,8
  803254:	1039883a 	mov	fp,r2
  803258:	003d5106 	br	8027a0 <___vfprintf_internal_r+0x1098>
  80325c:	d8801804 	addi	r2,sp,96
  803260:	d8800315 	stw	r2,12(sp)
  803264:	d9400917 	ldw	r5,36(sp)
  803268:	d8801504 	addi	r2,sp,84
  80326c:	d8800215 	stw	r2,8(sp)
  803270:	d8801404 	addi	r2,sp,80
  803274:	da000015 	stw	r8,0(sp)
  803278:	d8800115 	stw	r2,4(sp)
  80327c:	01c000c4 	movi	r7,3
  803280:	a00d883a 	mov	r6,r20
  803284:	9809883a 	mov	r4,r19
  803288:	db000815 	stw	r12,32(sp)
  80328c:	da000715 	stw	r8,28(sp)
  803290:	0803c4c0 	call	803c4c <_dtoa_r>
  803294:	da000717 	ldw	r8,28(sp)
  803298:	1023883a 	mov	r17,r2
  80329c:	db000817 	ldw	r12,32(sp)
  8032a0:	1207883a 	add	r3,r2,r8
  8032a4:	88800007 	ldb	r2,0(r17)
  8032a8:	10800c20 	cmpeqi	r2,r2,48
  8032ac:	1000661e 	bne	r2,zero,803448 <___vfprintf_internal_r+0x1d40>
  8032b0:	d8801417 	ldw	r2,80(sp)
  8032b4:	1893883a 	add	r9,r3,r2
  8032b8:	d9000917 	ldw	r4,36(sp)
  8032bc:	000d883a 	mov	r6,zero
  8032c0:	000f883a 	mov	r7,zero
  8032c4:	a00b883a 	mov	r5,r20
  8032c8:	da401115 	stw	r9,68(sp)
  8032cc:	da000815 	stw	r8,32(sp)
  8032d0:	db000715 	stw	r12,28(sp)
  8032d4:	080cd380 	call	80cd38 <__eqdf2>
  8032d8:	db000717 	ldw	r12,28(sp)
  8032dc:	da000817 	ldw	r8,32(sp)
  8032e0:	da401117 	ldw	r9,68(sp)
  8032e4:	1000981e 	bne	r2,zero,803548 <___vfprintf_internal_r+0x1e40>
  8032e8:	4805883a 	mov	r2,r9
  8032ec:	d8c01417 	ldw	r3,80(sp)
  8032f0:	1445c83a 	sub	r2,r2,r17
  8032f4:	ad4011d8 	cmpnei	r21,r21,71
  8032f8:	d8c00715 	stw	r3,28(sp)
  8032fc:	d8800815 	stw	r2,32(sp)
  803300:	a83f3426 	beq	r21,zero,802fd4 <___vfprintf_internal_r+0x18cc>
  803304:	d8800f17 	ldw	r2,60(sp)
  803308:	103f3726 	beq	r2,zero,802fe8 <___vfprintf_internal_r+0x18e0>
  80330c:	d8c00717 	ldw	r3,28(sp)
  803310:	6080004c 	andi	r2,r12,1
  803314:	1204b03a 	or	r2,r2,r8
  803318:	00c1130e 	bge	zero,r3,803768 <___vfprintf_internal_r+0x2060>
  80331c:	10010e1e 	bne	r2,zero,803758 <___vfprintf_internal_r+0x2050>
  803320:	dd400717 	ldw	r21,28(sp)
  803324:	a829883a 	mov	r20,r21
  803328:	d8800607 	ldb	r2,24(sp)
  80332c:	10008f26 	beq	r2,zero,80356c <___vfprintf_internal_r+0x1e64>
  803330:	00800b44 	movi	r2,45
  803334:	d8801345 	stb	r2,77(sp)
  803338:	d8800e17 	ldw	r2,56(sp)
  80333c:	0011883a 	mov	r8,zero
  803340:	d8800615 	stw	r2,24(sp)
  803344:	003b9206 	br	802190 <___vfprintf_internal_r+0xa88>
  803348:	04402074 	movhi	r17,129
  80334c:	8c437504 	addi	r17,r17,3540
  803350:	003a8b06 	br	801d80 <___vfprintf_internal_r+0x678>
  803354:	d8800617 	ldw	r2,24(sp)
  803358:	d8c00615 	stw	r3,24(sp)
  80335c:	15000017 	ldw	r20,0(r2)
  803360:	a02bd7fa 	srai	r21,r20,31
  803364:	a805883a 	mov	r2,r21
  803368:	003ae306 	br	801ef8 <___vfprintf_internal_r+0x7f0>
  80336c:	d8800617 	ldw	r2,24(sp)
  803370:	002b883a 	mov	r21,zero
  803374:	d8c00615 	stw	r3,24(sp)
  803378:	15000017 	ldw	r20,0(r2)
  80337c:	0005883a 	mov	r2,zero
  803380:	003a2406 	br	801c14 <___vfprintf_internal_r+0x50c>
  803384:	d8800617 	ldw	r2,24(sp)
  803388:	002b883a 	mov	r21,zero
  80338c:	d8c00615 	stw	r3,24(sp)
  803390:	15000017 	ldw	r20,0(r2)
  803394:	00800044 	movi	r2,1
  803398:	003a1e06 	br	801c14 <___vfprintf_internal_r+0x50c>
  80339c:	d8800617 	ldw	r2,24(sp)
  8033a0:	002b883a 	mov	r21,zero
  8033a4:	d8c00615 	stw	r3,24(sp)
  8033a8:	15000017 	ldw	r20,0(r2)
  8033ac:	003af406 	br	801f80 <___vfprintf_internal_r+0x878>
  8033b0:	800f883a 	mov	r7,r16
  8033b4:	dc000e17 	ldw	r16,56(sp)
  8033b8:	10800044 	addi	r2,r2,1
  8033bc:	1d47883a 	add	r3,r3,r21
  8033c0:	d8801b15 	stw	r2,108(sp)
  8033c4:	b1c00015 	stw	r7,0(r22)
  8033c8:	b5400115 	stw	r21,4(r22)
  8033cc:	d8c01c15 	stw	r3,112(sp)
  8033d0:	10800208 	cmpgei	r2,r2,8
  8033d4:	10003a1e 	bne	r2,zero,8034c0 <___vfprintf_internal_r+0x1db8>
  8033d8:	b5800204 	addi	r22,r22,8
  8033dc:	003d6c06 	br	802990 <___vfprintf_internal_r+0x1288>
  8033e0:	00800b44 	movi	r2,45
  8033e4:	d8801345 	stb	r2,77(sp)
  8033e8:	03400b44 	movi	r13,45
  8033ec:	003a6006 	br	801d70 <___vfprintf_internal_r+0x668>
  8033f0:	1520003c 	xorhi	r20,r2,32768
  8033f4:	00800b44 	movi	r2,45
  8033f8:	d8800605 	stb	r2,24(sp)
  8033fc:	003ed106 	br	802f44 <___vfprintf_internal_r+0x183c>
  803400:	d9801a04 	addi	r6,sp,104
  803404:	900b883a 	mov	r5,r18
  803408:	9809883a 	mov	r4,r19
  80340c:	0808ab40 	call	808ab4 <__sprint_r>
  803410:	1039cc1e 	bne	r2,zero,801b44 <___vfprintf_internal_r+0x43c>
  803414:	dd401417 	ldw	r21,80(sp)
  803418:	d8c01c17 	ldw	r3,112(sp)
  80341c:	dd802704 	addi	r22,sp,156
  803420:	003d6a06 	br	8029cc <___vfprintf_internal_r+0x12c4>
  803424:	05400184 	movi	r21,6
  803428:	003e5a06 	br	802d94 <___vfprintf_internal_r+0x168c>
  80342c:	d9801a04 	addi	r6,sp,104
  803430:	900b883a 	mov	r5,r18
  803434:	9809883a 	mov	r4,r19
  803438:	0808ab40 	call	808ab4 <__sprint_r>
  80343c:	0039c106 	br	801b44 <___vfprintf_internal_r+0x43c>
  803440:	d9401345 	stb	r5,77(sp)
  803444:	00396f06 	br	801a04 <___vfprintf_internal_r+0x2fc>
  803448:	d9000917 	ldw	r4,36(sp)
  80344c:	000d883a 	mov	r6,zero
  803450:	000f883a 	mov	r7,zero
  803454:	a00b883a 	mov	r5,r20
  803458:	d8c01115 	stw	r3,68(sp)
  80345c:	da000815 	stw	r8,32(sp)
  803460:	db000715 	stw	r12,28(sp)
  803464:	080cd380 	call	80cd38 <__eqdf2>
  803468:	db000717 	ldw	r12,28(sp)
  80346c:	da000817 	ldw	r8,32(sp)
  803470:	d8c01117 	ldw	r3,68(sp)
  803474:	103f8e26 	beq	r2,zero,8032b0 <___vfprintf_internal_r+0x1ba8>
  803478:	00800044 	movi	r2,1
  80347c:	1205c83a 	sub	r2,r2,r8
  803480:	d8801415 	stw	r2,80(sp)
  803484:	003f8b06 	br	8032b4 <___vfprintf_internal_r+0x1bac>
  803488:	403ea81e 	bne	r8,zero,802f2c <___vfprintf_internal_r+0x1824>
  80348c:	02000044 	movi	r8,1
  803490:	003ea606 	br	802f2c <___vfprintf_internal_r+0x1824>
  803494:	d9801a04 	addi	r6,sp,104
  803498:	900b883a 	mov	r5,r18
  80349c:	9809883a 	mov	r4,r19
  8034a0:	0808ab40 	call	808ab4 <__sprint_r>
  8034a4:	1039a71e 	bne	r2,zero,801b44 <___vfprintf_internal_r+0x43c>
  8034a8:	d9401417 	ldw	r5,80(sp)
  8034ac:	d8c01c17 	ldw	r3,112(sp)
  8034b0:	d8801b17 	ldw	r2,108(sp)
  8034b4:	dd802704 	addi	r22,sp,156
  8034b8:	283c750e 	bge	r5,zero,802690 <___vfprintf_internal_r+0xf88>
  8034bc:	003f3806 	br	8031a0 <___vfprintf_internal_r+0x1a98>
  8034c0:	d9801a04 	addi	r6,sp,104
  8034c4:	900b883a 	mov	r5,r18
  8034c8:	9809883a 	mov	r4,r19
  8034cc:	0808ab40 	call	808ab4 <__sprint_r>
  8034d0:	10399c1e 	bne	r2,zero,801b44 <___vfprintf_internal_r+0x43c>
  8034d4:	d8c01c17 	ldw	r3,112(sp)
  8034d8:	dd802704 	addi	r22,sp,156
  8034dc:	003d2c06 	br	802990 <___vfprintf_internal_r+0x1288>
  8034e0:	db000417 	ldw	r12,16(sp)
  8034e4:	003a9106 	br	801f2c <___vfprintf_internal_r+0x824>
  8034e8:	d8801804 	addi	r2,sp,96
  8034ec:	d8800315 	stw	r2,12(sp)
  8034f0:	d9400917 	ldw	r5,36(sp)
  8034f4:	d8801504 	addi	r2,sp,84
  8034f8:	40c00044 	addi	r3,r8,1
  8034fc:	d8800215 	stw	r2,8(sp)
  803500:	d8801404 	addi	r2,sp,80
  803504:	d8c00015 	stw	r3,0(sp)
  803508:	d8800115 	stw	r2,4(sp)
  80350c:	01c00084 	movi	r7,2
  803510:	a00d883a 	mov	r6,r20
  803514:	9809883a 	mov	r4,r19
  803518:	db001115 	stw	r12,68(sp)
  80351c:	da000815 	stw	r8,32(sp)
  803520:	d8c00715 	stw	r3,28(sp)
  803524:	0803c4c0 	call	803c4c <_dtoa_r>
  803528:	d8c00717 	ldw	r3,28(sp)
  80352c:	da000817 	ldw	r8,32(sp)
  803530:	db001117 	ldw	r12,68(sp)
  803534:	1023883a 	mov	r17,r2
  803538:	e08011d8 	cmpnei	r2,fp,71
  80353c:	103e9c26 	beq	r2,zero,802fb0 <___vfprintf_internal_r+0x18a8>
  803540:	88d3883a 	add	r9,r17,r3
  803544:	003f5c06 	br	8032b8 <___vfprintf_internal_r+0x1bb0>
  803548:	d8801817 	ldw	r2,96(sp)
  80354c:	127f672e 	bgeu	r2,r9,8032ec <___vfprintf_internal_r+0x1be4>
  803550:	01000c04 	movi	r4,48
  803554:	10c00044 	addi	r3,r2,1
  803558:	d8c01815 	stw	r3,96(sp)
  80355c:	11000005 	stb	r4,0(r2)
  803560:	d8801817 	ldw	r2,96(sp)
  803564:	127ffb36 	bltu	r2,r9,803554 <___vfprintf_internal_r+0x1e4c>
  803568:	003f6006 	br	8032ec <___vfprintf_internal_r+0x1be4>
  80356c:	d8800e17 	ldw	r2,56(sp)
  803570:	db401343 	ldbu	r13,77(sp)
  803574:	0011883a 	mov	r8,zero
  803578:	d8800615 	stw	r2,24(sp)
  80357c:	003b0006 	br	802180 <___vfprintf_internal_r+0xa78>
  803580:	d8800717 	ldw	r2,28(sp)
  803584:	d8c00817 	ldw	r3,32(sp)
  803588:	10c02216 	blt	r2,r3,803614 <___vfprintf_internal_r+0x1f0c>
  80358c:	6300004c 	andi	r12,r12,1
  803590:	60004f1e 	bne	r12,zero,8036d0 <___vfprintf_internal_r+0x1fc8>
  803594:	1029883a 	mov	r20,r2
  803598:	1000010e 	bge	r2,zero,8035a0 <___vfprintf_internal_r+0x1e98>
  80359c:	0029883a 	mov	r20,zero
  8035a0:	dd400717 	ldw	r21,28(sp)
  8035a4:	070019c4 	movi	fp,103
  8035a8:	003f5f06 	br	803328 <___vfprintf_internal_r+0x1c20>
  8035ac:	d9801a04 	addi	r6,sp,104
  8035b0:	900b883a 	mov	r5,r18
  8035b4:	9809883a 	mov	r4,r19
  8035b8:	0808ab40 	call	808ab4 <__sprint_r>
  8035bc:	1039611e 	bne	r2,zero,801b44 <___vfprintf_internal_r+0x43c>
  8035c0:	d8c01c17 	ldw	r3,112(sp)
  8035c4:	dd802704 	addi	r22,sp,156
  8035c8:	a83cee0e 	bge	r21,zero,802984 <___vfprintf_internal_r+0x127c>
  8035cc:	003dec06 	br	802d80 <___vfprintf_internal_r+0x1678>
  8035d0:	02000184 	movi	r8,6
  8035d4:	003e5506 	br	802f2c <___vfprintf_internal_r+0x1824>
  8035d8:	d9801a04 	addi	r6,sp,104
  8035dc:	900b883a 	mov	r5,r18
  8035e0:	9809883a 	mov	r4,r19
  8035e4:	0808ab40 	call	808ab4 <__sprint_r>
  8035e8:	1039561e 	bne	r2,zero,801b44 <___vfprintf_internal_r+0x43c>
  8035ec:	d8801417 	ldw	r2,80(sp)
  8035f0:	d9000817 	ldw	r4,32(sp)
  8035f4:	d8c01c17 	ldw	r3,112(sp)
  8035f8:	dd802704 	addi	r22,sp,156
  8035fc:	2085c83a 	sub	r2,r4,r2
  803600:	003d0606 	br	802a1c <___vfprintf_internal_r+0x1314>
  803604:	4029883a 	mov	r20,r8
  803608:	d8c00615 	stw	r3,24(sp)
  80360c:	402b883a 	mov	r21,r8
  803610:	00390206 	br	801a1c <___vfprintf_internal_r+0x314>
  803614:	d8800817 	ldw	r2,32(sp)
  803618:	d8c00b17 	ldw	r3,44(sp)
  80361c:	10eb883a 	add	r21,r2,r3
  803620:	d8800717 	ldw	r2,28(sp)
  803624:	00800316 	blt	zero,r2,803634 <___vfprintf_internal_r+0x1f2c>
  803628:	d8800717 	ldw	r2,28(sp)
  80362c:	a8abc83a 	sub	r21,r21,r2
  803630:	ad400044 	addi	r21,r21,1
  803634:	a829883a 	mov	r20,r21
  803638:	a8002a16 	blt	r21,zero,8036e4 <___vfprintf_internal_r+0x1fdc>
  80363c:	070019c4 	movi	fp,103
  803640:	003f3906 	br	803328 <___vfprintf_internal_r+0x1c20>
  803644:	d9401345 	stb	r5,77(sp)
  803648:	003a2306 	br	801ed8 <___vfprintf_internal_r+0x7d0>
  80364c:	d9401345 	stb	r5,77(sp)
  803650:	003b1806 	br	8022b4 <___vfprintf_internal_r+0xbac>
  803654:	d9401345 	stb	r5,77(sp)
  803658:	003a8e06 	br	802094 <___vfprintf_internal_r+0x98c>
  80365c:	d9401345 	stb	r5,77(sp)
  803660:	003a3d06 	br	801f58 <___vfprintf_internal_r+0x850>
  803664:	d9401345 	stb	r5,77(sp)
  803668:	003a7606 	br	802044 <___vfprintf_internal_r+0x93c>
  80366c:	d9401345 	stb	r5,77(sp)
  803670:	00399406 	br	801cc4 <___vfprintf_internal_r+0x5bc>
  803674:	00bfffc4 	movi	r2,-1
  803678:	d8800515 	stw	r2,20(sp)
  80367c:	00393406 	br	801b50 <___vfprintf_internal_r+0x448>
  803680:	900f883a 	mov	r7,r18
  803684:	8025883a 	mov	r18,r16
  803688:	dc000717 	ldw	r16,28(sp)
  80368c:	10800044 	addi	r2,r2,1
  803690:	1f07883a 	add	r3,r3,fp
  803694:	b1c00015 	stw	r7,0(r22)
  803698:	b7000115 	stw	fp,4(r22)
  80369c:	d8c01c15 	stw	r3,112(sp)
  8036a0:	d8801b15 	stw	r2,108(sp)
  8036a4:	11000208 	cmpgei	r4,r2,8
  8036a8:	203bf826 	beq	r4,zero,80268c <___vfprintf_internal_r+0xf84>
  8036ac:	d9801a04 	addi	r6,sp,104
  8036b0:	900b883a 	mov	r5,r18
  8036b4:	9809883a 	mov	r4,r19
  8036b8:	0808ab40 	call	808ab4 <__sprint_r>
  8036bc:	1039211e 	bne	r2,zero,801b44 <___vfprintf_internal_r+0x43c>
  8036c0:	d8c01c17 	ldw	r3,112(sp)
  8036c4:	d8801b17 	ldw	r2,108(sp)
  8036c8:	dd802704 	addi	r22,sp,156
  8036cc:	003bf006 	br	802690 <___vfprintf_internal_r+0xf88>
  8036d0:	d8800717 	ldw	r2,28(sp)
  8036d4:	d8c00b17 	ldw	r3,44(sp)
  8036d8:	10eb883a 	add	r21,r2,r3
  8036dc:	a829883a 	mov	r20,r21
  8036e0:	a83fd60e 	bge	r21,zero,80363c <___vfprintf_internal_r+0x1f34>
  8036e4:	0029883a 	mov	r20,zero
  8036e8:	003fd406 	br	80363c <___vfprintf_internal_r+0x1f34>
  8036ec:	00800c04 	movi	r2,48
  8036f0:	ad400c04 	addi	r21,r21,48
  8036f4:	d88016c5 	stb	r2,91(sp)
  8036f8:	00800104 	movi	r2,4
  8036fc:	dd401705 	stb	r21,92(sp)
  803700:	d8801015 	stw	r2,64(sp)
  803704:	003e6e06 	br	8030c0 <___vfprintf_internal_r+0x19b8>
  803708:	05400044 	movi	r21,1
  80370c:	a8abc83a 	sub	r21,r21,r2
  803710:	00800b44 	movi	r2,45
  803714:	d8801685 	stb	r2,90(sp)
  803718:	003e3a06 	br	803004 <___vfprintf_internal_r+0x18fc>
  80371c:	6080004c 	andi	r2,r12,1
  803720:	d8800715 	stw	r2,28(sp)
  803724:	103e6b1e 	bne	r2,zero,8030d4 <___vfprintf_internal_r+0x19cc>
  803728:	a829883a 	mov	r20,r21
  80372c:	a83efe0e 	bge	r21,zero,803328 <___vfprintf_internal_r+0x1c20>
  803730:	0029883a 	mov	r20,zero
  803734:	003efc06 	br	803328 <___vfprintf_internal_r+0x1c20>
  803738:	d8800a17 	ldw	r2,40(sp)
  80373c:	10001a16 	blt	r2,zero,8037a8 <___vfprintf_internal_r+0x20a0>
  803740:	db401343 	ldbu	r13,77(sp)
  803744:	e0801210 	cmplti	r2,fp,72
  803748:	1000141e 	bne	r2,zero,80379c <___vfprintf_internal_r+0x2094>
  80374c:	04402074 	movhi	r17,129
  803750:	8c437804 	addi	r17,r17,3552
  803754:	00398a06 	br	801d80 <___vfprintf_internal_r+0x678>
  803758:	d8800b17 	ldw	r2,44(sp)
  80375c:	18ab883a 	add	r21,r3,r2
  803760:	aa2b883a 	add	r21,r21,r8
  803764:	003ff006 	br	803728 <___vfprintf_internal_r+0x2020>
  803768:	1000031e 	bne	r2,zero,803778 <___vfprintf_internal_r+0x2070>
  80376c:	05000044 	movi	r20,1
  803770:	05400044 	movi	r21,1
  803774:	003eec06 	br	803328 <___vfprintf_internal_r+0x1c20>
  803778:	d8800b17 	ldw	r2,44(sp)
  80377c:	15400044 	addi	r21,r2,1
  803780:	aa2b883a 	add	r21,r21,r8
  803784:	003fe806 	br	803728 <___vfprintf_internal_r+0x2020>
  803788:	8025883a 	mov	r18,r16
  80378c:	0038ed06 	br	801b44 <___vfprintf_internal_r+0x43c>
  803790:	b005883a 	mov	r2,r22
  803794:	39c38604 	addi	r7,r7,3608
  803798:	003ea506 	br	803230 <___vfprintf_internal_r+0x1b28>
  80379c:	04402074 	movhi	r17,129
  8037a0:	8c437704 	addi	r17,r17,3548
  8037a4:	00397606 	br	801d80 <___vfprintf_internal_r+0x678>
  8037a8:	00800b44 	movi	r2,45
  8037ac:	d8801345 	stb	r2,77(sp)
  8037b0:	03400b44 	movi	r13,45
  8037b4:	003fe306 	br	803744 <___vfprintf_internal_r+0x203c>
  8037b8:	00800084 	movi	r2,2
  8037bc:	d8801015 	stw	r2,64(sp)
  8037c0:	003e3f06 	br	8030c0 <___vfprintf_internal_r+0x19b8>
  8037c4:	d8c00617 	ldw	r3,24(sp)
  8037c8:	1a000017 	ldw	r8,0(r3)
  8037cc:	18c00104 	addi	r3,r3,4
  8037d0:	4000010e 	bge	r8,zero,8037d8 <___vfprintf_internal_r+0x20d0>
  8037d4:	023fffc4 	movi	r8,-1
  8037d8:	bf000043 	ldbu	fp,1(r23)
  8037dc:	d8c00615 	stw	r3,24(sp)
  8037e0:	102f883a 	mov	r23,r2
  8037e4:	e2c03fcc 	andi	r11,fp,255
  8037e8:	5ac0201c 	xori	r11,r11,128
  8037ec:	5affe004 	addi	r11,r11,-128
  8037f0:	00381106 	br	801838 <___vfprintf_internal_r+0x130>

008037f4 <__vfprintf_internal>:
  8037f4:	00c02074 	movhi	r3,129
  8037f8:	2005883a 	mov	r2,r4
  8037fc:	190bb617 	ldw	r4,11992(r3)
  803800:	300f883a 	mov	r7,r6
  803804:	280d883a 	mov	r6,r5
  803808:	100b883a 	mov	r5,r2
  80380c:	08017081 	jmpi	801708 <___vfprintf_internal_r>

00803810 <__sbprintf>:
  803810:	2880030b 	ldhu	r2,12(r5)
  803814:	2b001917 	ldw	r12,100(r5)
  803818:	2ac0038b 	ldhu	r11,14(r5)
  80381c:	2a800717 	ldw	r10,28(r5)
  803820:	2a400917 	ldw	r9,36(r5)
  803824:	defee204 	addi	sp,sp,-1144
  803828:	da001a04 	addi	r8,sp,104
  80382c:	00c10004 	movi	r3,1024
  803830:	dc011a15 	stw	r16,1128(sp)
  803834:	10bfff4c 	andi	r2,r2,65533
  803838:	2821883a 	mov	r16,r5
  80383c:	d80b883a 	mov	r5,sp
  803840:	dc811c15 	stw	r18,1136(sp)
  803844:	dc411b15 	stw	r17,1132(sp)
  803848:	dfc11d15 	stw	ra,1140(sp)
  80384c:	2025883a 	mov	r18,r4
  803850:	d880030d 	sth	r2,12(sp)
  803854:	db001915 	stw	r12,100(sp)
  803858:	dac0038d 	sth	r11,14(sp)
  80385c:	da800715 	stw	r10,28(sp)
  803860:	da400915 	stw	r9,36(sp)
  803864:	da000015 	stw	r8,0(sp)
  803868:	da000415 	stw	r8,16(sp)
  80386c:	d8c00215 	stw	r3,8(sp)
  803870:	d8c00515 	stw	r3,20(sp)
  803874:	d8000615 	stw	zero,24(sp)
  803878:	08017080 	call	801708 <___vfprintf_internal_r>
  80387c:	1023883a 	mov	r17,r2
  803880:	10000d0e 	bge	r2,zero,8038b8 <__sbprintf+0xa8>
  803884:	d880030b 	ldhu	r2,12(sp)
  803888:	1080100c 	andi	r2,r2,64
  80388c:	10000326 	beq	r2,zero,80389c <__sbprintf+0x8c>
  803890:	8080030b 	ldhu	r2,12(r16)
  803894:	10801014 	ori	r2,r2,64
  803898:	8080030d 	sth	r2,12(r16)
  80389c:	8805883a 	mov	r2,r17
  8038a0:	dfc11d17 	ldw	ra,1140(sp)
  8038a4:	dc811c17 	ldw	r18,1136(sp)
  8038a8:	dc411b17 	ldw	r17,1132(sp)
  8038ac:	dc011a17 	ldw	r16,1128(sp)
  8038b0:	dec11e04 	addi	sp,sp,1144
  8038b4:	f800283a 	ret
  8038b8:	d80b883a 	mov	r5,sp
  8038bc:	9009883a 	mov	r4,r18
  8038c0:	08055c40 	call	8055c4 <_fflush_r>
  8038c4:	103fef26 	beq	r2,zero,803884 <__sbprintf+0x74>
  8038c8:	047fffc4 	movi	r17,-1
  8038cc:	003fed06 	br	803884 <__sbprintf+0x74>

008038d0 <__swsetup_r>:
  8038d0:	00802074 	movhi	r2,129
  8038d4:	108bb617 	ldw	r2,11992(r2)
  8038d8:	defffd04 	addi	sp,sp,-12
  8038dc:	dc400115 	stw	r17,4(sp)
  8038e0:	dc000015 	stw	r16,0(sp)
  8038e4:	dfc00215 	stw	ra,8(sp)
  8038e8:	2023883a 	mov	r17,r4
  8038ec:	2821883a 	mov	r16,r5
  8038f0:	10000226 	beq	r2,zero,8038fc <__swsetup_r+0x2c>
  8038f4:	10c00e17 	ldw	r3,56(r2)
  8038f8:	18003326 	beq	r3,zero,8039c8 <__swsetup_r+0xf8>
  8038fc:	8180030b 	ldhu	r6,12(r16)
  803900:	30c0020c 	andi	r3,r6,8
  803904:	3005883a 	mov	r2,r6
  803908:	18000f26 	beq	r3,zero,803948 <__swsetup_r+0x78>
  80390c:	80c00417 	ldw	r3,16(r16)
  803910:	18001626 	beq	r3,zero,80396c <__swsetup_r+0x9c>
  803914:	1100004c 	andi	r4,r2,1
  803918:	20001f1e 	bne	r4,zero,803998 <__swsetup_r+0xc8>
  80391c:	1100008c 	andi	r4,r2,2
  803920:	20002c1e 	bne	r4,zero,8039d4 <__swsetup_r+0x104>
  803924:	81000517 	ldw	r4,20(r16)
  803928:	81000215 	stw	r4,8(r16)
  80392c:	18001f26 	beq	r3,zero,8039ac <__swsetup_r+0xdc>
  803930:	0005883a 	mov	r2,zero
  803934:	dfc00217 	ldw	ra,8(sp)
  803938:	dc400117 	ldw	r17,4(sp)
  80393c:	dc000017 	ldw	r16,0(sp)
  803940:	dec00304 	addi	sp,sp,12
  803944:	f800283a 	ret
  803948:	3080040c 	andi	r2,r6,16
  80394c:	10003126 	beq	r2,zero,803a14 <__swsetup_r+0x144>
  803950:	3080010c 	andi	r2,r6,4
  803954:	1000211e 	bne	r2,zero,8039dc <__swsetup_r+0x10c>
  803958:	80c00417 	ldw	r3,16(r16)
  80395c:	30800214 	ori	r2,r6,8
  803960:	8080030d 	sth	r2,12(r16)
  803964:	100d883a 	mov	r6,r2
  803968:	183fea1e 	bne	r3,zero,803914 <__swsetup_r+0x44>
  80396c:	1100a00c 	andi	r4,r2,640
  803970:	21008020 	cmpeqi	r4,r4,512
  803974:	203fe71e 	bne	r4,zero,803914 <__swsetup_r+0x44>
  803978:	8809883a 	mov	r4,r17
  80397c:	800b883a 	mov	r5,r16
  803980:	080647c0 	call	80647c <__smakebuf_r>
  803984:	8180030b 	ldhu	r6,12(r16)
  803988:	80c00417 	ldw	r3,16(r16)
  80398c:	3005883a 	mov	r2,r6
  803990:	1100004c 	andi	r4,r2,1
  803994:	203fe126 	beq	r4,zero,80391c <__swsetup_r+0x4c>
  803998:	81000517 	ldw	r4,20(r16)
  80399c:	80000215 	stw	zero,8(r16)
  8039a0:	0109c83a 	sub	r4,zero,r4
  8039a4:	81000615 	stw	r4,24(r16)
  8039a8:	183fe11e 	bne	r3,zero,803930 <__swsetup_r+0x60>
  8039ac:	10c0200c 	andi	r3,r2,128
  8039b0:	0005883a 	mov	r2,zero
  8039b4:	183fdf26 	beq	r3,zero,803934 <__swsetup_r+0x64>
  8039b8:	31801014 	ori	r6,r6,64
  8039bc:	8180030d 	sth	r6,12(r16)
  8039c0:	00bfffc4 	movi	r2,-1
  8039c4:	003fdb06 	br	803934 <__swsetup_r+0x64>
  8039c8:	1009883a 	mov	r4,r2
  8039cc:	08059580 	call	805958 <__sinit>
  8039d0:	003fca06 	br	8038fc <__swsetup_r+0x2c>
  8039d4:	0009883a 	mov	r4,zero
  8039d8:	003fd306 	br	803928 <__swsetup_r+0x58>
  8039dc:	81400c17 	ldw	r5,48(r16)
  8039e0:	28000626 	beq	r5,zero,8039fc <__swsetup_r+0x12c>
  8039e4:	80801004 	addi	r2,r16,64
  8039e8:	28800326 	beq	r5,r2,8039f8 <__swsetup_r+0x128>
  8039ec:	8809883a 	mov	r4,r17
  8039f0:	0805abc0 	call	805abc <_free_r>
  8039f4:	8180030b 	ldhu	r6,12(r16)
  8039f8:	80000c15 	stw	zero,48(r16)
  8039fc:	80c00417 	ldw	r3,16(r16)
  803a00:	00bff6c4 	movi	r2,-37
  803a04:	118c703a 	and	r6,r2,r6
  803a08:	80000115 	stw	zero,4(r16)
  803a0c:	80c00015 	stw	r3,0(r16)
  803a10:	003fd206 	br	80395c <__swsetup_r+0x8c>
  803a14:	00800244 	movi	r2,9
  803a18:	88800015 	stw	r2,0(r17)
  803a1c:	31801014 	ori	r6,r6,64
  803a20:	8180030d 	sth	r6,12(r16)
  803a24:	00bfffc4 	movi	r2,-1
  803a28:	003fc206 	br	803934 <__swsetup_r+0x64>

00803a2c <quorem>:
  803a2c:	defff204 	addi	sp,sp,-56
  803a30:	dc400515 	stw	r17,20(sp)
  803a34:	20800417 	ldw	r2,16(r4)
  803a38:	2c400417 	ldw	r17,16(r5)
  803a3c:	dfc00d15 	stw	ra,52(sp)
  803a40:	df000c15 	stw	fp,48(sp)
  803a44:	ddc00b15 	stw	r23,44(sp)
  803a48:	dd800a15 	stw	r22,40(sp)
  803a4c:	dd400915 	stw	r21,36(sp)
  803a50:	dd000815 	stw	r20,32(sp)
  803a54:	dcc00715 	stw	r19,28(sp)
  803a58:	dc800615 	stw	r18,24(sp)
  803a5c:	dc000415 	stw	r16,16(sp)
  803a60:	d9000115 	stw	r4,4(sp)
  803a64:	d9400215 	stw	r5,8(sp)
  803a68:	14407616 	blt	r2,r17,803c44 <quorem+0x218>
  803a6c:	8c7fffc4 	addi	r17,r17,-1
  803a70:	882a90ba 	slli	r21,r17,2
  803a74:	2f000504 	addi	fp,r5,20
  803a78:	25800504 	addi	r22,r4,20
  803a7c:	e565883a 	add	r18,fp,r21
  803a80:	b545883a 	add	r2,r22,r21
  803a84:	95c00017 	ldw	r23,0(r18)
  803a88:	15000017 	ldw	r20,0(r2)
  803a8c:	dd800015 	stw	r22,0(sp)
  803a90:	bdc00044 	addi	r23,r23,1
  803a94:	b80b883a 	mov	r5,r23
  803a98:	a009883a 	mov	r4,r20
  803a9c:	d8800315 	stw	r2,12(sp)
  803aa0:	080b9cc0 	call	80b9cc <__udivsi3>
  803aa4:	1021883a 	mov	r16,r2
  803aa8:	a5c02f36 	bltu	r20,r23,803b68 <quorem+0x13c>
  803aac:	e029883a 	mov	r20,fp
  803ab0:	002b883a 	mov	r21,zero
  803ab4:	002f883a 	mov	r23,zero
  803ab8:	a4c00017 	ldw	r19,0(r20)
  803abc:	800b883a 	mov	r5,r16
  803ac0:	b5800104 	addi	r22,r22,4
  803ac4:	993fffcc 	andi	r4,r19,65535
  803ac8:	08015040 	call	801504 <__mulsi3>
  803acc:	9808d43a 	srli	r4,r19,16
  803ad0:	800b883a 	mov	r5,r16
  803ad4:	156b883a 	add	r21,r2,r21
  803ad8:	08015040 	call	801504 <__mulsi3>
  803adc:	b0ffff17 	ldw	r3,-4(r22)
  803ae0:	a80ad43a 	srli	r5,r21,16
  803ae4:	a93fffcc 	andi	r4,r21,65535
  803ae8:	19bfffcc 	andi	r6,r3,65535
  803aec:	b909c83a 	sub	r4,r23,r4
  803af0:	2189883a 	add	r4,r4,r6
  803af4:	1806d43a 	srli	r3,r3,16
  803af8:	1145883a 	add	r2,r2,r5
  803afc:	200bd43a 	srai	r5,r4,16
  803b00:	11bfffcc 	andi	r6,r2,65535
  803b04:	1987c83a 	sub	r3,r3,r6
  803b08:	1947883a 	add	r3,r3,r5
  803b0c:	180a943a 	slli	r5,r3,16
  803b10:	213fffcc 	andi	r4,r4,65535
  803b14:	a5000104 	addi	r20,r20,4
  803b18:	2908b03a 	or	r4,r5,r4
  803b1c:	b13fff15 	stw	r4,-4(r22)
  803b20:	102ad43a 	srli	r21,r2,16
  803b24:	182fd43a 	srai	r23,r3,16
  803b28:	953fe32e 	bgeu	r18,r20,803ab8 <quorem+0x8c>
  803b2c:	d8c00317 	ldw	r3,12(sp)
  803b30:	18800017 	ldw	r2,0(r3)
  803b34:	10000c1e 	bne	r2,zero,803b68 <quorem+0x13c>
  803b38:	d8800017 	ldw	r2,0(sp)
  803b3c:	1d7fff04 	addi	r21,r3,-4
  803b40:	15400436 	bltu	r2,r21,803b54 <quorem+0x128>
  803b44:	00000606 	br	803b60 <quorem+0x134>
  803b48:	d8800017 	ldw	r2,0(sp)
  803b4c:	8c7fffc4 	addi	r17,r17,-1
  803b50:	1540032e 	bgeu	r2,r21,803b60 <quorem+0x134>
  803b54:	a8800017 	ldw	r2,0(r21)
  803b58:	ad7fff04 	addi	r21,r21,-4
  803b5c:	103ffa26 	beq	r2,zero,803b48 <quorem+0x11c>
  803b60:	d8800117 	ldw	r2,4(sp)
  803b64:	14400415 	stw	r17,16(r2)
  803b68:	d9400217 	ldw	r5,8(sp)
  803b6c:	d9000117 	ldw	r4,4(sp)
  803b70:	0807b9c0 	call	807b9c <__mcmp>
  803b74:	10002616 	blt	r2,zero,803c10 <quorem+0x1e4>
  803b78:	d9800017 	ldw	r6,0(sp)
  803b7c:	84000044 	addi	r16,r16,1
  803b80:	0007883a 	mov	r3,zero
  803b84:	e1000017 	ldw	r4,0(fp)
  803b88:	31400017 	ldw	r5,0(r6)
  803b8c:	31800104 	addi	r6,r6,4
  803b90:	20bfffcc 	andi	r2,r4,65535
  803b94:	1887c83a 	sub	r3,r3,r2
  803b98:	28bfffcc 	andi	r2,r5,65535
  803b9c:	1885883a 	add	r2,r3,r2
  803ba0:	2008d43a 	srli	r4,r4,16
  803ba4:	2806d43a 	srli	r3,r5,16
  803ba8:	100fd43a 	srai	r7,r2,16
  803bac:	117fffcc 	andi	r5,r2,65535
  803bb0:	1907c83a 	sub	r3,r3,r4
  803bb4:	19c7883a 	add	r3,r3,r7
  803bb8:	1804943a 	slli	r2,r3,16
  803bbc:	e7000104 	addi	fp,fp,4
  803bc0:	1807d43a 	srai	r3,r3,16
  803bc4:	1144b03a 	or	r2,r2,r5
  803bc8:	30bfff15 	stw	r2,-4(r6)
  803bcc:	973fed2e 	bgeu	r18,fp,803b84 <quorem+0x158>
  803bd0:	880490ba 	slli	r2,r17,2
  803bd4:	d9000017 	ldw	r4,0(sp)
  803bd8:	2085883a 	add	r2,r4,r2
  803bdc:	10c00017 	ldw	r3,0(r2)
  803be0:	18000b1e 	bne	r3,zero,803c10 <quorem+0x1e4>
  803be4:	10bfff04 	addi	r2,r2,-4
  803be8:	20800436 	bltu	r4,r2,803bfc <quorem+0x1d0>
  803bec:	00000606 	br	803c08 <quorem+0x1dc>
  803bf0:	d8c00017 	ldw	r3,0(sp)
  803bf4:	8c7fffc4 	addi	r17,r17,-1
  803bf8:	1880032e 	bgeu	r3,r2,803c08 <quorem+0x1dc>
  803bfc:	10c00017 	ldw	r3,0(r2)
  803c00:	10bfff04 	addi	r2,r2,-4
  803c04:	183ffa26 	beq	r3,zero,803bf0 <quorem+0x1c4>
  803c08:	d8800117 	ldw	r2,4(sp)
  803c0c:	14400415 	stw	r17,16(r2)
  803c10:	8005883a 	mov	r2,r16
  803c14:	dfc00d17 	ldw	ra,52(sp)
  803c18:	df000c17 	ldw	fp,48(sp)
  803c1c:	ddc00b17 	ldw	r23,44(sp)
  803c20:	dd800a17 	ldw	r22,40(sp)
  803c24:	dd400917 	ldw	r21,36(sp)
  803c28:	dd000817 	ldw	r20,32(sp)
  803c2c:	dcc00717 	ldw	r19,28(sp)
  803c30:	dc800617 	ldw	r18,24(sp)
  803c34:	dc400517 	ldw	r17,20(sp)
  803c38:	dc000417 	ldw	r16,16(sp)
  803c3c:	dec00e04 	addi	sp,sp,56
  803c40:	f800283a 	ret
  803c44:	0005883a 	mov	r2,zero
  803c48:	003ff206 	br	803c14 <quorem+0x1e8>

00803c4c <_dtoa_r>:
  803c4c:	20801017 	ldw	r2,64(r4)
  803c50:	deffe204 	addi	sp,sp,-120
  803c54:	ddc01b15 	stw	r23,108(sp)
  803c58:	dd001815 	stw	r20,96(sp)
  803c5c:	dc801615 	stw	r18,88(sp)
  803c60:	dc401515 	stw	r17,84(sp)
  803c64:	dc001415 	stw	r16,80(sp)
  803c68:	dfc01d15 	stw	ra,116(sp)
  803c6c:	df001c15 	stw	fp,112(sp)
  803c70:	dd801a15 	stw	r22,104(sp)
  803c74:	dd401915 	stw	r21,100(sp)
  803c78:	dcc01715 	stw	r19,92(sp)
  803c7c:	d9c00115 	stw	r7,4(sp)
  803c80:	dc002017 	ldw	r16,128(sp)
  803c84:	202f883a 	mov	r23,r4
  803c88:	3025883a 	mov	r18,r6
  803c8c:	2829883a 	mov	r20,r5
  803c90:	3023883a 	mov	r17,r6
  803c94:	10000826 	beq	r2,zero,803cb8 <_dtoa_r+0x6c>
  803c98:	21801117 	ldw	r6,68(r4)
  803c9c:	00c00044 	movi	r3,1
  803ca0:	100b883a 	mov	r5,r2
  803ca4:	1986983a 	sll	r3,r3,r6
  803ca8:	11800115 	stw	r6,4(r2)
  803cac:	10c00215 	stw	r3,8(r2)
  803cb0:	08072300 	call	807230 <_Bfree>
  803cb4:	b8001015 	stw	zero,64(r23)
  803cb8:	90018616 	blt	r18,zero,8042d4 <_dtoa_r+0x688>
  803cbc:	80000015 	stw	zero,0(r16)
  803cc0:	909ffc2c 	andhi	r2,r18,32752
  803cc4:	00dffc34 	movhi	r3,32752
  803cc8:	10c18b26 	beq	r2,r3,8042f8 <_dtoa_r+0x6ac>
  803ccc:	000d883a 	mov	r6,zero
  803cd0:	000f883a 	mov	r7,zero
  803cd4:	a009883a 	mov	r4,r20
  803cd8:	880b883a 	mov	r5,r17
  803cdc:	080cd380 	call	80cd38 <__eqdf2>
  803ce0:	1000181e 	bne	r2,zero,803d44 <_dtoa_r+0xf8>
  803ce4:	d8c01f17 	ldw	r3,124(sp)
  803ce8:	00800044 	movi	r2,1
  803cec:	18800015 	stw	r2,0(r3)
  803cf0:	d8802117 	ldw	r2,132(sp)
  803cf4:	10030b26 	beq	r2,zero,804924 <_dtoa_r+0xcd8>
  803cf8:	d8c02117 	ldw	r3,132(sp)
  803cfc:	00802074 	movhi	r2,129
  803d00:	10838544 	addi	r2,r2,3605
  803d04:	07002074 	movhi	fp,129
  803d08:	18800015 	stw	r2,0(r3)
  803d0c:	e7038504 	addi	fp,fp,3604
  803d10:	e005883a 	mov	r2,fp
  803d14:	dfc01d17 	ldw	ra,116(sp)
  803d18:	df001c17 	ldw	fp,112(sp)
  803d1c:	ddc01b17 	ldw	r23,108(sp)
  803d20:	dd801a17 	ldw	r22,104(sp)
  803d24:	dd401917 	ldw	r21,100(sp)
  803d28:	dd001817 	ldw	r20,96(sp)
  803d2c:	dcc01717 	ldw	r19,92(sp)
  803d30:	dc801617 	ldw	r18,88(sp)
  803d34:	dc401517 	ldw	r17,84(sp)
  803d38:	dc001417 	ldw	r16,80(sp)
  803d3c:	dec01e04 	addi	sp,sp,120
  803d40:	f800283a 	ret
  803d44:	d8801204 	addi	r2,sp,72
  803d48:	9020d53a 	srli	r16,r18,20
  803d4c:	d8800015 	stw	r2,0(sp)
  803d50:	d9c01304 	addi	r7,sp,76
  803d54:	a00b883a 	mov	r5,r20
  803d58:	880d883a 	mov	r6,r17
  803d5c:	b809883a 	mov	r4,r23
  803d60:	0807f800 	call	807f80 <__d2b>
  803d64:	102d883a 	mov	r22,r2
  803d68:	8001741e 	bne	r16,zero,80433c <_dtoa_r+0x6f0>
  803d6c:	df001217 	ldw	fp,72(sp)
  803d70:	dc001317 	ldw	r16,76(sp)
  803d74:	e421883a 	add	r16,fp,r16
  803d78:	80810c84 	addi	r2,r16,1074
  803d7c:	10c00850 	cmplti	r3,r2,33
  803d80:	1802f81e 	bne	r3,zero,804964 <_dtoa_r+0xd18>
  803d84:	01001004 	movi	r4,64
  803d88:	2085c83a 	sub	r2,r4,r2
  803d8c:	81010484 	addi	r4,r16,1042
  803d90:	90a4983a 	sll	r18,r18,r2
  803d94:	a108d83a 	srl	r4,r20,r4
  803d98:	9108b03a 	or	r4,r18,r4
  803d9c:	080e2040 	call	80e204 <__floatunsidf>
  803da0:	1009883a 	mov	r4,r2
  803da4:	017f8434 	movhi	r5,65040
  803da8:	00800044 	movi	r2,1
  803dac:	194b883a 	add	r5,r3,r5
  803db0:	843fffc4 	addi	r16,r16,-1
  803db4:	d8800915 	stw	r2,36(sp)
  803db8:	000d883a 	mov	r6,zero
  803dbc:	01cffe34 	movhi	r7,16376
  803dc0:	080d7400 	call	80d740 <__subdf3>
  803dc4:	0198dbf4 	movhi	r6,25455
  803dc8:	01cff4f4 	movhi	r7,16339
  803dcc:	3190d844 	addi	r6,r6,17249
  803dd0:	39e1e9c4 	addi	r7,r7,-30809
  803dd4:	1009883a 	mov	r4,r2
  803dd8:	180b883a 	mov	r5,r3
  803ddc:	080cf980 	call	80cf98 <__muldf3>
  803de0:	01a2d874 	movhi	r6,35681
  803de4:	01cff1f4 	movhi	r7,16327
  803de8:	31b22cc4 	addi	r6,r6,-14157
  803dec:	39e28a04 	addi	r7,r7,-30168
  803df0:	180b883a 	mov	r5,r3
  803df4:	1009883a 	mov	r4,r2
  803df8:	080ba8c0 	call	80ba8c <__adddf3>
  803dfc:	8009883a 	mov	r4,r16
  803e00:	1027883a 	mov	r19,r2
  803e04:	1825883a 	mov	r18,r3
  803e08:	080e1480 	call	80e148 <__floatsidf>
  803e0c:	019427f4 	movhi	r6,20639
  803e10:	01cff4f4 	movhi	r7,16339
  803e14:	319e7ec4 	addi	r6,r6,31227
  803e18:	39d104c4 	addi	r7,r7,17427
  803e1c:	1009883a 	mov	r4,r2
  803e20:	180b883a 	mov	r5,r3
  803e24:	080cf980 	call	80cf98 <__muldf3>
  803e28:	100d883a 	mov	r6,r2
  803e2c:	180f883a 	mov	r7,r3
  803e30:	9809883a 	mov	r4,r19
  803e34:	900b883a 	mov	r5,r18
  803e38:	080ba8c0 	call	80ba8c <__adddf3>
  803e3c:	1009883a 	mov	r4,r2
  803e40:	180b883a 	mov	r5,r3
  803e44:	1025883a 	mov	r18,r2
  803e48:	182b883a 	mov	r21,r3
  803e4c:	080e0c80 	call	80e0c8 <__fixdfsi>
  803e50:	000d883a 	mov	r6,zero
  803e54:	000f883a 	mov	r7,zero
  803e58:	9009883a 	mov	r4,r18
  803e5c:	a80b883a 	mov	r5,r21
  803e60:	1027883a 	mov	r19,r2
  803e64:	080cea80 	call	80cea8 <__ledf2>
  803e68:	1002a416 	blt	r2,zero,8048fc <_dtoa_r+0xcb0>
  803e6c:	e439c83a 	sub	fp,fp,r16
  803e70:	e0ffffc4 	addi	r3,fp,-1
  803e74:	988005e8 	cmpgeui	r2,r19,23
  803e78:	d8c00215 	stw	r3,8(sp)
  803e7c:	1002961e 	bne	r2,zero,8048d8 <_dtoa_r+0xc8c>
  803e80:	980690fa 	slli	r3,r19,3
  803e84:	00802074 	movhi	r2,129
  803e88:	1083ce04 	addi	r2,r2,3896
  803e8c:	10c5883a 	add	r2,r2,r3
  803e90:	11800017 	ldw	r6,0(r2)
  803e94:	11c00117 	ldw	r7,4(r2)
  803e98:	a009883a 	mov	r4,r20
  803e9c:	880b883a 	mov	r5,r17
  803ea0:	080cea80 	call	80cea8 <__ledf2>
  803ea4:	1002670e 	bge	r2,zero,804844 <_dtoa_r+0xbf8>
  803ea8:	d8000815 	stw	zero,32(sp)
  803eac:	e0bfffc4 	addi	r2,fp,-1
  803eb0:	9cffffc4 	addi	r19,r19,-1
  803eb4:	10028c16 	blt	r2,zero,8048e8 <_dtoa_r+0xc9c>
  803eb8:	d8000515 	stw	zero,20(sp)
  803ebc:	9802650e 	bge	r19,zero,804854 <_dtoa_r+0xc08>
  803ec0:	d8800517 	ldw	r2,20(sp)
  803ec4:	d8c00117 	ldw	r3,4(sp)
  803ec8:	dcc00315 	stw	r19,12(sp)
  803ecc:	14c5c83a 	sub	r2,r2,r19
  803ed0:	d8800515 	stw	r2,20(sp)
  803ed4:	04c5c83a 	sub	r2,zero,r19
  803ed8:	d8800715 	stw	r2,28(sp)
  803edc:	188002a8 	cmpgeui	r2,r3,10
  803ee0:	0027883a 	mov	r19,zero
  803ee4:	1002631e 	bne	r2,zero,804874 <_dtoa_r+0xc28>
  803ee8:	18800190 	cmplti	r2,r3,6
  803eec:	1002a11e 	bne	r2,zero,804974 <_dtoa_r+0xd28>
  803ef0:	18bfff04 	addi	r2,r3,-4
  803ef4:	d8800115 	stw	r2,4(sp)
  803ef8:	0021883a 	mov	r16,zero
  803efc:	d8c00117 	ldw	r3,4(sp)
  803f00:	18800120 	cmpeqi	r2,r3,4
  803f04:	1003721e 	bne	r2,zero,804cd0 <_dtoa_r+0x1084>
  803f08:	18800160 	cmpeqi	r2,r3,5
  803f0c:	10032f1e 	bne	r2,zero,804bcc <_dtoa_r+0xf80>
  803f10:	188000a0 	cmpeqi	r2,r3,2
  803f14:	10026326 	beq	r2,zero,8048a4 <_dtoa_r+0xc58>
  803f18:	d8000615 	stw	zero,24(sp)
  803f1c:	d8801e17 	ldw	r2,120(sp)
  803f20:	00833c0e 	bge	zero,r2,804c14 <_dtoa_r+0xfc8>
  803f24:	d8800b15 	stw	r2,44(sp)
  803f28:	d8800415 	stw	r2,16(sp)
  803f2c:	100d883a 	mov	r6,r2
  803f30:	b8001115 	stw	zero,68(r23)
  803f34:	30800610 	cmplti	r2,r6,24
  803f38:	1005161e 	bne	r2,zero,805394 <_dtoa_r+0x1748>
  803f3c:	00c00044 	movi	r3,1
  803f40:	00800104 	movi	r2,4
  803f44:	1085883a 	add	r2,r2,r2
  803f48:	11000504 	addi	r4,r2,20
  803f4c:	180b883a 	mov	r5,r3
  803f50:	18c00044 	addi	r3,r3,1
  803f54:	313ffb2e 	bgeu	r6,r4,803f44 <_dtoa_r+0x2f8>
  803f58:	b9401115 	stw	r5,68(r23)
  803f5c:	b809883a 	mov	r4,r23
  803f60:	080718c0 	call	80718c <_Balloc>
  803f64:	1039883a 	mov	fp,r2
  803f68:	1004f526 	beq	r2,zero,805340 <_dtoa_r+0x16f4>
  803f6c:	b8801015 	stw	r2,64(r23)
  803f70:	d8800417 	ldw	r2,16(sp)
  803f74:	108003e8 	cmpgeui	r2,r2,15
  803f78:	10010b1e 	bne	r2,zero,8043a8 <_dtoa_r+0x75c>
  803f7c:	80010a26 	beq	r16,zero,8043a8 <_dtoa_r+0x75c>
  803f80:	d9000317 	ldw	r4,12(sp)
  803f84:	0103a30e 	bge	zero,r4,804e14 <_dtoa_r+0x11c8>
  803f88:	208003cc 	andi	r2,r4,15
  803f8c:	100690fa 	slli	r3,r2,3
  803f90:	202bd13a 	srai	r21,r4,4
  803f94:	00802074 	movhi	r2,129
  803f98:	1083ce04 	addi	r2,r2,3896
  803f9c:	10c5883a 	add	r2,r2,r3
  803fa0:	a8c0040c 	andi	r3,r21,16
  803fa4:	12800017 	ldw	r10,0(r2)
  803fa8:	12400117 	ldw	r9,4(r2)
  803fac:	18034226 	beq	r3,zero,804cb8 <_dtoa_r+0x106c>
  803fb0:	00802074 	movhi	r2,129
  803fb4:	1083c404 	addi	r2,r2,3856
  803fb8:	11800817 	ldw	r6,32(r2)
  803fbc:	11c00917 	ldw	r7,36(r2)
  803fc0:	a009883a 	mov	r4,r20
  803fc4:	880b883a 	mov	r5,r17
  803fc8:	da400e15 	stw	r9,56(sp)
  803fcc:	da800d15 	stw	r10,52(sp)
  803fd0:	080c4040 	call	80c404 <__divdf3>
  803fd4:	da800d17 	ldw	r10,52(sp)
  803fd8:	da400e17 	ldw	r9,56(sp)
  803fdc:	ad4003cc 	andi	r21,r21,15
  803fe0:	d8800a15 	stw	r2,40(sp)
  803fe4:	d8c00c15 	stw	r3,48(sp)
  803fe8:	040000c4 	movi	r16,3
  803fec:	a8001126 	beq	r21,zero,804034 <_dtoa_r+0x3e8>
  803ff0:	04802074 	movhi	r18,129
  803ff4:	9483c404 	addi	r18,r18,3856
  803ff8:	5009883a 	mov	r4,r10
  803ffc:	480b883a 	mov	r5,r9
  804000:	a980004c 	andi	r6,r21,1
  804004:	30000626 	beq	r6,zero,804020 <_dtoa_r+0x3d4>
  804008:	91800017 	ldw	r6,0(r18)
  80400c:	91c00117 	ldw	r7,4(r18)
  804010:	84000044 	addi	r16,r16,1
  804014:	080cf980 	call	80cf98 <__muldf3>
  804018:	1009883a 	mov	r4,r2
  80401c:	180b883a 	mov	r5,r3
  804020:	a82bd07a 	srai	r21,r21,1
  804024:	94800204 	addi	r18,r18,8
  804028:	a83ff51e 	bne	r21,zero,804000 <_dtoa_r+0x3b4>
  80402c:	2015883a 	mov	r10,r4
  804030:	2813883a 	mov	r9,r5
  804034:	d9000a17 	ldw	r4,40(sp)
  804038:	d9400c17 	ldw	r5,48(sp)
  80403c:	500d883a 	mov	r6,r10
  804040:	480f883a 	mov	r7,r9
  804044:	080c4040 	call	80c404 <__divdf3>
  804048:	1025883a 	mov	r18,r2
  80404c:	d8c00a15 	stw	r3,40(sp)
  804050:	d8800817 	ldw	r2,32(sp)
  804054:	10000726 	beq	r2,zero,804074 <_dtoa_r+0x428>
  804058:	dd400a17 	ldw	r21,40(sp)
  80405c:	000d883a 	mov	r6,zero
  804060:	01cffc34 	movhi	r7,16368
  804064:	9009883a 	mov	r4,r18
  804068:	a80b883a 	mov	r5,r21
  80406c:	080cea80 	call	80cea8 <__ledf2>
  804070:	10045516 	blt	r2,zero,8051c8 <_dtoa_r+0x157c>
  804074:	8009883a 	mov	r4,r16
  804078:	080e1480 	call	80e148 <__floatsidf>
  80407c:	d9c00a17 	ldw	r7,40(sp)
  804080:	900d883a 	mov	r6,r18
  804084:	1009883a 	mov	r4,r2
  804088:	180b883a 	mov	r5,r3
  80408c:	080cf980 	call	80cf98 <__muldf3>
  804090:	000d883a 	mov	r6,zero
  804094:	01d00734 	movhi	r7,16412
  804098:	1009883a 	mov	r4,r2
  80409c:	180b883a 	mov	r5,r3
  8040a0:	080ba8c0 	call	80ba8c <__adddf3>
  8040a4:	d8800c15 	stw	r2,48(sp)
  8040a8:	00bf3034 	movhi	r2,64704
  8040ac:	1885883a 	add	r2,r3,r2
  8040b0:	d8800d15 	stw	r2,52(sp)
  8040b4:	d8800417 	ldw	r2,16(sp)
  8040b8:	10033926 	beq	r2,zero,804da0 <_dtoa_r+0x1154>
  8040bc:	d8800317 	ldw	r2,12(sp)
  8040c0:	d8801115 	stw	r2,68(sp)
  8040c4:	d8800417 	ldw	r2,16(sp)
  8040c8:	d8800e15 	stw	r2,56(sp)
  8040cc:	dc000a17 	ldw	r16,40(sp)
  8040d0:	9009883a 	mov	r4,r18
  8040d4:	800b883a 	mov	r5,r16
  8040d8:	080e0c80 	call	80e0c8 <__fixdfsi>
  8040dc:	d8c00e17 	ldw	r3,56(sp)
  8040e0:	d8801015 	stw	r2,64(sp)
  8040e4:	18ffffc4 	addi	r3,r3,-1
  8040e8:	180890fa 	slli	r4,r3,3
  8040ec:	00c02074 	movhi	r3,129
  8040f0:	18c3ce04 	addi	r3,r3,3896
  8040f4:	1907883a 	add	r3,r3,r4
  8040f8:	1b000017 	ldw	r12,0(r3)
  8040fc:	1b400117 	ldw	r13,4(r3)
  804100:	1009883a 	mov	r4,r2
  804104:	db000f15 	stw	r12,60(sp)
  804108:	db400a15 	stw	r13,40(sp)
  80410c:	080e1480 	call	80e148 <__floatsidf>
  804110:	9009883a 	mov	r4,r18
  804114:	800b883a 	mov	r5,r16
  804118:	100d883a 	mov	r6,r2
  80411c:	180f883a 	mov	r7,r3
  804120:	080d7400 	call	80d740 <__subdf3>
  804124:	dac01017 	ldw	r11,64(sp)
  804128:	102b883a 	mov	r21,r2
  80412c:	d8800617 	ldw	r2,24(sp)
  804130:	db400a17 	ldw	r13,40(sp)
  804134:	db000f17 	ldw	r12,60(sp)
  804138:	e4000044 	addi	r16,fp,1
  80413c:	1825883a 	mov	r18,r3
  804140:	5ac00c04 	addi	r11,r11,48
  804144:	1003c626 	beq	r2,zero,805060 <_dtoa_r+0x1414>
  804148:	600d883a 	mov	r6,r12
  80414c:	680f883a 	mov	r7,r13
  804150:	0009883a 	mov	r4,zero
  804154:	014ff834 	movhi	r5,16352
  804158:	dac00f15 	stw	r11,60(sp)
  80415c:	080c4040 	call	80c404 <__divdf3>
  804160:	d9800c17 	ldw	r6,48(sp)
  804164:	d9c00d17 	ldw	r7,52(sp)
  804168:	1009883a 	mov	r4,r2
  80416c:	180b883a 	mov	r5,r3
  804170:	080d7400 	call	80d740 <__subdf3>
  804174:	dac00f17 	ldw	r11,60(sp)
  804178:	a80d883a 	mov	r6,r21
  80417c:	900f883a 	mov	r7,r18
  804180:	e2c00005 	stb	r11,0(fp)
  804184:	1009883a 	mov	r4,r2
  804188:	180b883a 	mov	r5,r3
  80418c:	d8800a15 	stw	r2,40(sp)
  804190:	d8c00c15 	stw	r3,48(sp)
  804194:	080cdb80 	call	80cdb8 <__gedf2>
  804198:	00844116 	blt	zero,r2,8052a0 <_dtoa_r+0x1654>
  80419c:	0005883a 	mov	r2,zero
  8041a0:	dcc00f15 	stw	r19,60(sp)
  8041a4:	dd800d15 	stw	r22,52(sp)
  8041a8:	dcc00c17 	ldw	r19,48(sp)
  8041ac:	dd800e17 	ldw	r22,56(sp)
  8041b0:	dc400c15 	stw	r17,48(sp)
  8041b4:	ddc00e15 	stw	r23,56(sp)
  8041b8:	dc400a17 	ldw	r17,40(sp)
  8041bc:	dd000a15 	stw	r20,40(sp)
  8041c0:	1029883a 	mov	r20,r2
  8041c4:	00002606 	br	804260 <_dtoa_r+0x614>
  8041c8:	a5000044 	addi	r20,r20,1
  8041cc:	a5843d0e 	bge	r20,r22,8052c4 <_dtoa_r+0x1678>
  8041d0:	8809883a 	mov	r4,r17
  8041d4:	980b883a 	mov	r5,r19
  8041d8:	000d883a 	mov	r6,zero
  8041dc:	01d00934 	movhi	r7,16420
  8041e0:	080cf980 	call	80cf98 <__muldf3>
  8041e4:	000d883a 	mov	r6,zero
  8041e8:	01d00934 	movhi	r7,16420
  8041ec:	a809883a 	mov	r4,r21
  8041f0:	900b883a 	mov	r5,r18
  8041f4:	1023883a 	mov	r17,r2
  8041f8:	1827883a 	mov	r19,r3
  8041fc:	080cf980 	call	80cf98 <__muldf3>
  804200:	180b883a 	mov	r5,r3
  804204:	1009883a 	mov	r4,r2
  804208:	1825883a 	mov	r18,r3
  80420c:	102b883a 	mov	r21,r2
  804210:	080e0c80 	call	80e0c8 <__fixdfsi>
  804214:	1009883a 	mov	r4,r2
  804218:	102f883a 	mov	r23,r2
  80421c:	080e1480 	call	80e148 <__floatsidf>
  804220:	a809883a 	mov	r4,r21
  804224:	900b883a 	mov	r5,r18
  804228:	100d883a 	mov	r6,r2
  80422c:	180f883a 	mov	r7,r3
  804230:	080d7400 	call	80d740 <__subdf3>
  804234:	84000044 	addi	r16,r16,1
  804238:	ba000c04 	addi	r8,r23,48
  80423c:	823fffc5 	stb	r8,-1(r16)
  804240:	880d883a 	mov	r6,r17
  804244:	980f883a 	mov	r7,r19
  804248:	1009883a 	mov	r4,r2
  80424c:	180b883a 	mov	r5,r3
  804250:	102b883a 	mov	r21,r2
  804254:	1825883a 	mov	r18,r3
  804258:	080cea80 	call	80cea8 <__ledf2>
  80425c:	10040e16 	blt	r2,zero,805298 <_dtoa_r+0x164c>
  804260:	a80d883a 	mov	r6,r21
  804264:	900f883a 	mov	r7,r18
  804268:	0009883a 	mov	r4,zero
  80426c:	014ffc34 	movhi	r5,16368
  804270:	080d7400 	call	80d740 <__subdf3>
  804274:	880d883a 	mov	r6,r17
  804278:	980f883a 	mov	r7,r19
  80427c:	1009883a 	mov	r4,r2
  804280:	180b883a 	mov	r5,r3
  804284:	080cea80 	call	80cea8 <__ledf2>
  804288:	103fcf0e 	bge	r2,zero,8041c8 <_dtoa_r+0x57c>
  80428c:	dd800d17 	ldw	r22,52(sp)
  804290:	ddc00e17 	ldw	r23,56(sp)
  804294:	d8801117 	ldw	r2,68(sp)
  804298:	10800044 	addi	r2,r2,1
  80429c:	d8800315 	stw	r2,12(sp)
  8042a0:	00000106 	br	8042a8 <_dtoa_r+0x65c>
  8042a4:	e403ee26 	beq	fp,r16,805260 <_dtoa_r+0x1614>
  8042a8:	80ffffc3 	ldbu	r3,-1(r16)
  8042ac:	8025883a 	mov	r18,r16
  8042b0:	843fffc4 	addi	r16,r16,-1
  8042b4:	18803fcc 	andi	r2,r3,255
  8042b8:	1080201c 	xori	r2,r2,128
  8042bc:	10bfe004 	addi	r2,r2,-128
  8042c0:	10800e60 	cmpeqi	r2,r2,57
  8042c4:	103ff71e 	bne	r2,zero,8042a4 <_dtoa_r+0x658>
  8042c8:	18c00044 	addi	r3,r3,1
  8042cc:	80c00005 	stb	r3,0(r16)
  8042d0:	00015106 	br	804818 <_dtoa_r+0xbcc>
  8042d4:	04600034 	movhi	r17,32768
  8042d8:	8c7fffc4 	addi	r17,r17,-1
  8042dc:	9462703a 	and	r17,r18,r17
  8042e0:	00800044 	movi	r2,1
  8042e4:	8825883a 	mov	r18,r17
  8042e8:	80800015 	stw	r2,0(r16)
  8042ec:	00dffc34 	movhi	r3,32752
  8042f0:	909ffc2c 	andhi	r2,r18,32752
  8042f4:	10fe751e 	bne	r2,r3,803ccc <_dtoa_r+0x80>
  8042f8:	d8c01f17 	ldw	r3,124(sp)
  8042fc:	00800434 	movhi	r2,16
  804300:	10bfffc4 	addi	r2,r2,-1
  804304:	90a4703a 	and	r18,r18,r2
  804308:	0089c3c4 	movi	r2,9999
  80430c:	18800015 	stw	r2,0(r3)
  804310:	9528b03a 	or	r20,r18,r20
  804314:	a000121e 	bne	r20,zero,804360 <_dtoa_r+0x714>
  804318:	d8802117 	ldw	r2,132(sp)
  80431c:	07002074 	movhi	fp,129
  804320:	10041526 	beq	r2,zero,805378 <_dtoa_r+0x172c>
  804324:	00802074 	movhi	r2,129
  804328:	e7038f04 	addi	fp,fp,3644
  80432c:	10839104 	addi	r2,r2,3652
  804330:	d8c02117 	ldw	r3,132(sp)
  804334:	18800015 	stw	r2,0(r3)
  804338:	003e7506 	br	803d10 <_dtoa_r+0xc4>
  80433c:	01400434 	movhi	r5,16
  804340:	297fffc4 	addi	r5,r5,-1
  804344:	894a703a 	and	r5,r17,r5
  804348:	df001217 	ldw	fp,72(sp)
  80434c:	a009883a 	mov	r4,r20
  804350:	294ffc34 	orhi	r5,r5,16368
  804354:	843f0044 	addi	r16,r16,-1023
  804358:	d8000915 	stw	zero,36(sp)
  80435c:	003e9606 	br	803db8 <_dtoa_r+0x16c>
  804360:	d8802117 	ldw	r2,132(sp)
  804364:	07002074 	movhi	fp,129
  804368:	1002141e 	bne	r2,zero,804bbc <_dtoa_r+0xf70>
  80436c:	e7038e04 	addi	fp,fp,3640
  804370:	003e6706 	br	803d10 <_dtoa_r+0xc4>
  804374:	b8001115 	stw	zero,68(r23)
  804378:	000b883a 	mov	r5,zero
  80437c:	b809883a 	mov	r4,r23
  804380:	080718c0 	call	80718c <_Balloc>
  804384:	1039883a 	mov	fp,r2
  804388:	1003ed26 	beq	r2,zero,805340 <_dtoa_r+0x16f4>
  80438c:	b8801015 	stw	r2,64(r23)
  804390:	00bfffc4 	movi	r2,-1
  804394:	d8800415 	stw	r2,16(sp)
  804398:	d8800b15 	stw	r2,44(sp)
  80439c:	00800044 	movi	r2,1
  8043a0:	d8001e15 	stw	zero,120(sp)
  8043a4:	d8800615 	stw	r2,24(sp)
  8043a8:	d8801317 	ldw	r2,76(sp)
  8043ac:	10007216 	blt	r2,zero,804578 <_dtoa_r+0x92c>
  8043b0:	d9000317 	ldw	r4,12(sp)
  8043b4:	20c003c8 	cmpgei	r3,r4,15
  8043b8:	18006f1e 	bne	r3,zero,804578 <_dtoa_r+0x92c>
  8043bc:	200690fa 	slli	r3,r4,3
  8043c0:	00802074 	movhi	r2,129
  8043c4:	1083ce04 	addi	r2,r2,3896
  8043c8:	10c5883a 	add	r2,r2,r3
  8043cc:	10c00017 	ldw	r3,0(r2)
  8043d0:	14800117 	ldw	r18,4(r2)
  8043d4:	d8801e17 	ldw	r2,120(sp)
  8043d8:	d8c00115 	stw	r3,4(sp)
  8043dc:	1000150e 	bge	r2,zero,804434 <_dtoa_r+0x7e8>
  8043e0:	d8800417 	ldw	r2,16(sp)
  8043e4:	00801316 	blt	zero,r2,804434 <_dtoa_r+0x7e8>
  8043e8:	d8800417 	ldw	r2,16(sp)
  8043ec:	1002801e 	bne	r2,zero,804df0 <_dtoa_r+0x11a4>
  8043f0:	d9000117 	ldw	r4,4(sp)
  8043f4:	000d883a 	mov	r6,zero
  8043f8:	01d00534 	movhi	r7,16404
  8043fc:	900b883a 	mov	r5,r18
  804400:	080cf980 	call	80cf98 <__muldf3>
  804404:	100d883a 	mov	r6,r2
  804408:	180f883a 	mov	r7,r3
  80440c:	a009883a 	mov	r4,r20
  804410:	880b883a 	mov	r5,r17
  804414:	080cea80 	call	80cea8 <__ledf2>
  804418:	002b883a 	mov	r21,zero
  80441c:	0021883a 	mov	r16,zero
  804420:	00820f16 	blt	zero,r2,804c60 <_dtoa_r+0x1014>
  804424:	d8801e17 	ldw	r2,120(sp)
  804428:	e025883a 	mov	r18,fp
  80442c:	00a2303a 	nor	r17,zero,r2
  804430:	00021006 	br	804c74 <_dtoa_r+0x1028>
  804434:	dd400117 	ldw	r21,4(sp)
  804438:	900f883a 	mov	r7,r18
  80443c:	a009883a 	mov	r4,r20
  804440:	a80d883a 	mov	r6,r21
  804444:	880b883a 	mov	r5,r17
  804448:	080c4040 	call	80c404 <__divdf3>
  80444c:	180b883a 	mov	r5,r3
  804450:	1009883a 	mov	r4,r2
  804454:	080e0c80 	call	80e0c8 <__fixdfsi>
  804458:	1009883a 	mov	r4,r2
  80445c:	1027883a 	mov	r19,r2
  804460:	080e1480 	call	80e148 <__floatsidf>
  804464:	a80d883a 	mov	r6,r21
  804468:	900f883a 	mov	r7,r18
  80446c:	1009883a 	mov	r4,r2
  804470:	180b883a 	mov	r5,r3
  804474:	080cf980 	call	80cf98 <__muldf3>
  804478:	100d883a 	mov	r6,r2
  80447c:	a009883a 	mov	r4,r20
  804480:	880b883a 	mov	r5,r17
  804484:	180f883a 	mov	r7,r3
  804488:	080d7400 	call	80d740 <__subdf3>
  80448c:	d9800417 	ldw	r6,16(sp)
  804490:	1009883a 	mov	r4,r2
  804494:	98800c04 	addi	r2,r19,48
  804498:	e0800005 	stb	r2,0(fp)
  80449c:	30800060 	cmpeqi	r2,r6,1
  8044a0:	180b883a 	mov	r5,r3
  8044a4:	e4000044 	addi	r16,fp,1
  8044a8:	1002a91e 	bne	r2,zero,804f50 <_dtoa_r+0x1304>
  8044ac:	04400044 	movi	r17,1
  8044b0:	3027883a 	mov	r19,r6
  8044b4:	dd800215 	stw	r22,8(sp)
  8044b8:	ddc00415 	stw	r23,16(sp)
  8044bc:	00001c06 	br	804530 <_dtoa_r+0x8e4>
  8044c0:	a80d883a 	mov	r6,r21
  8044c4:	900f883a 	mov	r7,r18
  8044c8:	b809883a 	mov	r4,r23
  8044cc:	a00b883a 	mov	r5,r20
  8044d0:	080c4040 	call	80c404 <__divdf3>
  8044d4:	180b883a 	mov	r5,r3
  8044d8:	1009883a 	mov	r4,r2
  8044dc:	080e0c80 	call	80e0c8 <__fixdfsi>
  8044e0:	1009883a 	mov	r4,r2
  8044e4:	102d883a 	mov	r22,r2
  8044e8:	080e1480 	call	80e148 <__floatsidf>
  8044ec:	a80d883a 	mov	r6,r21
  8044f0:	900f883a 	mov	r7,r18
  8044f4:	1009883a 	mov	r4,r2
  8044f8:	180b883a 	mov	r5,r3
  8044fc:	080cf980 	call	80cf98 <__muldf3>
  804500:	b809883a 	mov	r4,r23
  804504:	a00b883a 	mov	r5,r20
  804508:	100d883a 	mov	r6,r2
  80450c:	180f883a 	mov	r7,r3
  804510:	080d7400 	call	80d740 <__subdf3>
  804514:	b1000c04 	addi	r4,r22,48
  804518:	81000005 	stb	r4,0(r16)
  80451c:	8c400044 	addi	r17,r17,1
  804520:	84000044 	addi	r16,r16,1
  804524:	1009883a 	mov	r4,r2
  804528:	180b883a 	mov	r5,r3
  80452c:	9c428526 	beq	r19,r17,804f44 <_dtoa_r+0x12f8>
  804530:	000d883a 	mov	r6,zero
  804534:	01d00934 	movhi	r7,16420
  804538:	080cf980 	call	80cf98 <__muldf3>
  80453c:	000d883a 	mov	r6,zero
  804540:	000f883a 	mov	r7,zero
  804544:	1009883a 	mov	r4,r2
  804548:	180b883a 	mov	r5,r3
  80454c:	102f883a 	mov	r23,r2
  804550:	1829883a 	mov	r20,r3
  804554:	080cd380 	call	80cd38 <__eqdf2>
  804558:	103fd91e 	bne	r2,zero,8044c0 <_dtoa_r+0x874>
  80455c:	d8800317 	ldw	r2,12(sp)
  804560:	dd800217 	ldw	r22,8(sp)
  804564:	ddc00417 	ldw	r23,16(sp)
  804568:	10800044 	addi	r2,r2,1
  80456c:	d8800315 	stw	r2,12(sp)
  804570:	8025883a 	mov	r18,r16
  804574:	0000a806 	br	804818 <_dtoa_r+0xbcc>
  804578:	d8c00617 	ldw	r3,24(sp)
  80457c:	1800ec26 	beq	r3,zero,804930 <_dtoa_r+0xce4>
  804580:	d8c00117 	ldw	r3,4(sp)
  804584:	18c00088 	cmpgei	r3,r3,2
  804588:	1801e926 	beq	r3,zero,804d30 <_dtoa_r+0x10e4>
  80458c:	d8800417 	ldw	r2,16(sp)
  804590:	157fffc4 	addi	r21,r2,-1
  804594:	d8800717 	ldw	r2,28(sp)
  804598:	1541c50e 	bge	r2,r21,804cb0 <_dtoa_r+0x1064>
  80459c:	d8800717 	ldw	r2,28(sp)
  8045a0:	dd400715 	stw	r21,28(sp)
  8045a4:	a885c83a 	sub	r2,r21,r2
  8045a8:	98a7883a 	add	r19,r19,r2
  8045ac:	002b883a 	mov	r21,zero
  8045b0:	d8800417 	ldw	r2,16(sp)
  8045b4:	10029516 	blt	r2,zero,80500c <_dtoa_r+0x13c0>
  8045b8:	d8c00517 	ldw	r3,20(sp)
  8045bc:	d9000217 	ldw	r4,8(sp)
  8045c0:	1825883a 	mov	r18,r3
  8045c4:	2089883a 	add	r4,r4,r2
  8045c8:	10c5883a 	add	r2,r2,r3
  8045cc:	d9000215 	stw	r4,8(sp)
  8045d0:	d8800515 	stw	r2,20(sp)
  8045d4:	01400044 	movi	r5,1
  8045d8:	b809883a 	mov	r4,r23
  8045dc:	08075fc0 	call	8075fc <__i2b>
  8045e0:	1021883a 	mov	r16,r2
  8045e4:	04800b0e 	bge	zero,r18,804614 <_dtoa_r+0x9c8>
  8045e8:	d8c00217 	ldw	r3,8(sp)
  8045ec:	00c0090e 	bge	zero,r3,804614 <_dtoa_r+0x9c8>
  8045f0:	9005883a 	mov	r2,r18
  8045f4:	1c81a616 	blt	r3,r18,804c90 <_dtoa_r+0x1044>
  8045f8:	d8c00517 	ldw	r3,20(sp)
  8045fc:	90a5c83a 	sub	r18,r18,r2
  804600:	1887c83a 	sub	r3,r3,r2
  804604:	d8c00515 	stw	r3,20(sp)
  804608:	d8c00217 	ldw	r3,8(sp)
  80460c:	1885c83a 	sub	r2,r3,r2
  804610:	d8800215 	stw	r2,8(sp)
  804614:	d8800717 	ldw	r2,28(sp)
  804618:	10001526 	beq	r2,zero,804670 <_dtoa_r+0xa24>
  80461c:	d8800617 	ldw	r2,24(sp)
  804620:	1001f626 	beq	r2,zero,804dfc <_dtoa_r+0x11b0>
  804624:	05400f0e 	bge	zero,r21,804664 <_dtoa_r+0xa18>
  804628:	800b883a 	mov	r5,r16
  80462c:	a80d883a 	mov	r6,r21
  804630:	b809883a 	mov	r4,r23
  804634:	08078fc0 	call	8078fc <__pow5mult>
  804638:	b00d883a 	mov	r6,r22
  80463c:	100b883a 	mov	r5,r2
  804640:	b809883a 	mov	r4,r23
  804644:	1021883a 	mov	r16,r2
  804648:	08076500 	call	807650 <__multiply>
  80464c:	b00b883a 	mov	r5,r22
  804650:	b809883a 	mov	r4,r23
  804654:	d8800915 	stw	r2,36(sp)
  804658:	08072300 	call	807230 <_Bfree>
  80465c:	d8800917 	ldw	r2,36(sp)
  804660:	102d883a 	mov	r22,r2
  804664:	d8800717 	ldw	r2,28(sp)
  804668:	154dc83a 	sub	r6,r2,r21
  80466c:	1542621e 	bne	r2,r21,804ff8 <_dtoa_r+0x13ac>
  804670:	01400044 	movi	r5,1
  804674:	b809883a 	mov	r4,r23
  804678:	08075fc0 	call	8075fc <__i2b>
  80467c:	102b883a 	mov	r21,r2
  804680:	04c0be16 	blt	zero,r19,80497c <_dtoa_r+0xd30>
  804684:	d8800117 	ldw	r2,4(sp)
  804688:	10800088 	cmpgei	r2,r2,2
  80468c:	10015226 	beq	r2,zero,804bd8 <_dtoa_r+0xf8c>
  804690:	0023883a 	mov	r17,zero
  804694:	00800044 	movi	r2,1
  804698:	9800c11e 	bne	r19,zero,8049a0 <_dtoa_r+0xd54>
  80469c:	d9400217 	ldw	r5,8(sp)
  8046a0:	1145883a 	add	r2,r2,r5
  8046a4:	108007cc 	andi	r2,r2,31
  8046a8:	1000a526 	beq	r2,zero,804940 <_dtoa_r+0xcf4>
  8046ac:	00c00804 	movi	r3,32
  8046b0:	1887c83a 	sub	r3,r3,r2
  8046b4:	19000150 	cmplti	r4,r3,5
  8046b8:	2003311e 	bne	r4,zero,805380 <_dtoa_r+0x1734>
  8046bc:	00c00704 	movi	r3,28
  8046c0:	1885c83a 	sub	r2,r3,r2
  8046c4:	d8c00517 	ldw	r3,20(sp)
  8046c8:	90a5883a 	add	r18,r18,r2
  8046cc:	1887883a 	add	r3,r3,r2
  8046d0:	2885883a 	add	r2,r5,r2
  8046d4:	d8c00515 	stw	r3,20(sp)
  8046d8:	d8800215 	stw	r2,8(sp)
  8046dc:	d8800517 	ldw	r2,20(sp)
  8046e0:	0080050e 	bge	zero,r2,8046f8 <_dtoa_r+0xaac>
  8046e4:	b00b883a 	mov	r5,r22
  8046e8:	100d883a 	mov	r6,r2
  8046ec:	b809883a 	mov	r4,r23
  8046f0:	0807a140 	call	807a14 <__lshift>
  8046f4:	102d883a 	mov	r22,r2
  8046f8:	d8800217 	ldw	r2,8(sp)
  8046fc:	0080050e 	bge	zero,r2,804714 <_dtoa_r+0xac8>
  804700:	a80b883a 	mov	r5,r21
  804704:	100d883a 	mov	r6,r2
  804708:	b809883a 	mov	r4,r23
  80470c:	0807a140 	call	807a14 <__lshift>
  804710:	102b883a 	mov	r21,r2
  804714:	d8800817 	ldw	r2,32(sp)
  804718:	1001161e 	bne	r2,zero,804b74 <_dtoa_r+0xf28>
  80471c:	d8800417 	ldw	r2,16(sp)
  804720:	0081040e 	bge	zero,r2,804b34 <_dtoa_r+0xee8>
  804724:	d8800617 	ldw	r2,24(sp)
  804728:	1000b01e 	bne	r2,zero,8049ec <_dtoa_r+0xda0>
  80472c:	d8800317 	ldw	r2,12(sp)
  804730:	10800044 	addi	r2,r2,1
  804734:	d8800315 	stw	r2,12(sp)
  804738:	dc800417 	ldw	r18,16(sp)
  80473c:	04400044 	movi	r17,1
  804740:	00000706 	br	804760 <_dtoa_r+0xb14>
  804744:	b00b883a 	mov	r5,r22
  804748:	000f883a 	mov	r7,zero
  80474c:	01800284 	movi	r6,10
  804750:	b809883a 	mov	r4,r23
  804754:	08072540 	call	807254 <__multadd>
  804758:	102d883a 	mov	r22,r2
  80475c:	8c400044 	addi	r17,r17,1
  804760:	a80b883a 	mov	r5,r21
  804764:	b009883a 	mov	r4,r22
  804768:	0803a2c0 	call	803a2c <quorem>
  80476c:	10c00c04 	addi	r3,r2,48
  804770:	e445883a 	add	r2,fp,r17
  804774:	10ffffc5 	stb	r3,-1(r2)
  804778:	8cbff216 	blt	r17,r18,804744 <_dtoa_r+0xaf8>
  80477c:	d8800417 	ldw	r2,16(sp)
  804780:	0081510e 	bge	zero,r2,804cc8 <_dtoa_r+0x107c>
  804784:	e0a5883a 	add	r18,fp,r2
  804788:	0023883a 	mov	r17,zero
  80478c:	b00b883a 	mov	r5,r22
  804790:	01800044 	movi	r6,1
  804794:	b809883a 	mov	r4,r23
  804798:	d8c00115 	stw	r3,4(sp)
  80479c:	0807a140 	call	807a14 <__lshift>
  8047a0:	1009883a 	mov	r4,r2
  8047a4:	a80b883a 	mov	r5,r21
  8047a8:	102d883a 	mov	r22,r2
  8047ac:	0807b9c0 	call	807b9c <__mcmp>
  8047b0:	913fffc3 	ldbu	r4,-1(r18)
  8047b4:	00800416 	blt	zero,r2,8047c8 <_dtoa_r+0xb7c>
  8047b8:	00014806 	br	804cdc <_dtoa_r+0x1090>
  8047bc:	e0c15626 	beq	fp,r3,804d18 <_dtoa_r+0x10cc>
  8047c0:	193fffc3 	ldbu	r4,-1(r3)
  8047c4:	1825883a 	mov	r18,r3
  8047c8:	20803fcc 	andi	r2,r4,255
  8047cc:	1080201c 	xori	r2,r2,128
  8047d0:	10bfe004 	addi	r2,r2,-128
  8047d4:	10800e60 	cmpeqi	r2,r2,57
  8047d8:	90ffffc4 	addi	r3,r18,-1
  8047dc:	103ff71e 	bne	r2,zero,8047bc <_dtoa_r+0xb70>
  8047e0:	21000044 	addi	r4,r4,1
  8047e4:	19000005 	stb	r4,0(r3)
  8047e8:	a80b883a 	mov	r5,r21
  8047ec:	b809883a 	mov	r4,r23
  8047f0:	08072300 	call	807230 <_Bfree>
  8047f4:	80000826 	beq	r16,zero,804818 <_dtoa_r+0xbcc>
  8047f8:	88000426 	beq	r17,zero,80480c <_dtoa_r+0xbc0>
  8047fc:	8c000326 	beq	r17,r16,80480c <_dtoa_r+0xbc0>
  804800:	880b883a 	mov	r5,r17
  804804:	b809883a 	mov	r4,r23
  804808:	08072300 	call	807230 <_Bfree>
  80480c:	800b883a 	mov	r5,r16
  804810:	b809883a 	mov	r4,r23
  804814:	08072300 	call	807230 <_Bfree>
  804818:	b00b883a 	mov	r5,r22
  80481c:	b809883a 	mov	r4,r23
  804820:	08072300 	call	807230 <_Bfree>
  804824:	d8801f17 	ldw	r2,124(sp)
  804828:	d8c00317 	ldw	r3,12(sp)
  80482c:	90000005 	stb	zero,0(r18)
  804830:	10c00015 	stw	r3,0(r2)
  804834:	d8802117 	ldw	r2,132(sp)
  804838:	103d3526 	beq	r2,zero,803d10 <_dtoa_r+0xc4>
  80483c:	14800015 	stw	r18,0(r2)
  804840:	003d3306 	br	803d10 <_dtoa_r+0xc4>
  804844:	e0bfffc4 	addi	r2,fp,-1
  804848:	d8000815 	stw	zero,32(sp)
  80484c:	10002616 	blt	r2,zero,8048e8 <_dtoa_r+0xc9c>
  804850:	d8000515 	stw	zero,20(sp)
  804854:	d8800217 	ldw	r2,8(sp)
  804858:	d8c00117 	ldw	r3,4(sp)
  80485c:	dcc00315 	stw	r19,12(sp)
  804860:	14c5883a 	add	r2,r2,r19
  804864:	d8800215 	stw	r2,8(sp)
  804868:	d8000715 	stw	zero,28(sp)
  80486c:	188002a8 	cmpgeui	r2,r3,10
  804870:	103d9d26 	beq	r2,zero,803ee8 <_dtoa_r+0x29c>
  804874:	00800044 	movi	r2,1
  804878:	d8800615 	stw	r2,24(sp)
  80487c:	00bfffc4 	movi	r2,-1
  804880:	04000044 	movi	r16,1
  804884:	d8000115 	stw	zero,4(sp)
  804888:	d8800415 	stw	r2,16(sp)
  80488c:	d8001e15 	stw	zero,120(sp)
  804890:	d8800417 	ldw	r2,16(sp)
  804894:	b8001115 	stw	zero,68(r23)
  804898:	000b883a 	mov	r5,zero
  80489c:	d8800b15 	stw	r2,44(sp)
  8048a0:	003dae06 	br	803f5c <_dtoa_r+0x310>
  8048a4:	188000e0 	cmpeqi	r2,r3,3
  8048a8:	d8000615 	stw	zero,24(sp)
  8048ac:	103eb126 	beq	r2,zero,804374 <_dtoa_r+0x728>
  8048b0:	d8801e17 	ldw	r2,120(sp)
  8048b4:	d8c00317 	ldw	r3,12(sp)
  8048b8:	10c5883a 	add	r2,r2,r3
  8048bc:	d8800b15 	stw	r2,44(sp)
  8048c0:	10800044 	addi	r2,r2,1
  8048c4:	d8800415 	stw	r2,16(sp)
  8048c8:	100d883a 	mov	r6,r2
  8048cc:	00bd9816 	blt	zero,r2,803f30 <_dtoa_r+0x2e4>
  8048d0:	01800044 	movi	r6,1
  8048d4:	003d9606 	br	803f30 <_dtoa_r+0x2e4>
  8048d8:	00800044 	movi	r2,1
  8048dc:	d8800815 	stw	r2,32(sp)
  8048e0:	e0bfffc4 	addi	r2,fp,-1
  8048e4:	103d740e 	bge	r2,zero,803eb8 <_dtoa_r+0x26c>
  8048e8:	00800044 	movi	r2,1
  8048ec:	1705c83a 	sub	r2,r2,fp
  8048f0:	d8800515 	stw	r2,20(sp)
  8048f4:	d8000215 	stw	zero,8(sp)
  8048f8:	003d7006 	br	803ebc <_dtoa_r+0x270>
  8048fc:	9809883a 	mov	r4,r19
  804900:	080e1480 	call	80e148 <__floatsidf>
  804904:	900d883a 	mov	r6,r18
  804908:	a80f883a 	mov	r7,r21
  80490c:	1009883a 	mov	r4,r2
  804910:	180b883a 	mov	r5,r3
  804914:	080cd380 	call	80cd38 <__eqdf2>
  804918:	103d5426 	beq	r2,zero,803e6c <_dtoa_r+0x220>
  80491c:	9cffffc4 	addi	r19,r19,-1
  804920:	003d5206 	br	803e6c <_dtoa_r+0x220>
  804924:	07002074 	movhi	fp,129
  804928:	e7038504 	addi	fp,fp,3604
  80492c:	003cf806 	br	803d10 <_dtoa_r+0xc4>
  804930:	dd400717 	ldw	r21,28(sp)
  804934:	dc800517 	ldw	r18,20(sp)
  804938:	0021883a 	mov	r16,zero
  80493c:	003f2906 	br	8045e4 <_dtoa_r+0x998>
  804940:	00800704 	movi	r2,28
  804944:	d8c00517 	ldw	r3,20(sp)
  804948:	90a5883a 	add	r18,r18,r2
  80494c:	1887883a 	add	r3,r3,r2
  804950:	d8c00515 	stw	r3,20(sp)
  804954:	d8c00217 	ldw	r3,8(sp)
  804958:	1885883a 	add	r2,r3,r2
  80495c:	d8800215 	stw	r2,8(sp)
  804960:	003f5e06 	br	8046dc <_dtoa_r+0xa90>
  804964:	01000804 	movi	r4,32
  804968:	2089c83a 	sub	r4,r4,r2
  80496c:	a108983a 	sll	r4,r20,r4
  804970:	003d0a06 	br	803d9c <_dtoa_r+0x150>
  804974:	04000044 	movi	r16,1
  804978:	003d6006 	br	803efc <_dtoa_r+0x2b0>
  80497c:	100b883a 	mov	r5,r2
  804980:	980d883a 	mov	r6,r19
  804984:	b809883a 	mov	r4,r23
  804988:	08078fc0 	call	8078fc <__pow5mult>
  80498c:	d8c00117 	ldw	r3,4(sp)
  804990:	102b883a 	mov	r21,r2
  804994:	18c00090 	cmplti	r3,r3,2
  804998:	18014b1e 	bne	r3,zero,804ec8 <_dtoa_r+0x127c>
  80499c:	0023883a 	mov	r17,zero
  8049a0:	a8800417 	ldw	r2,16(r21)
  8049a4:	10800104 	addi	r2,r2,4
  8049a8:	100490ba 	slli	r2,r2,2
  8049ac:	a885883a 	add	r2,r21,r2
  8049b0:	11000017 	ldw	r4,0(r2)
  8049b4:	08074e80 	call	8074e8 <__hi0bits>
  8049b8:	00c00804 	movi	r3,32
  8049bc:	1885c83a 	sub	r2,r3,r2
  8049c0:	003f3606 	br	80469c <_dtoa_r+0xa50>
  8049c4:	800b883a 	mov	r5,r16
  8049c8:	000f883a 	mov	r7,zero
  8049cc:	01800284 	movi	r6,10
  8049d0:	b809883a 	mov	r4,r23
  8049d4:	08072540 	call	807254 <__multadd>
  8049d8:	1021883a 	mov	r16,r2
  8049dc:	d8800b17 	ldw	r2,44(sp)
  8049e0:	00824d0e 	bge	zero,r2,805318 <_dtoa_r+0x16cc>
  8049e4:	dcc00315 	stw	r19,12(sp)
  8049e8:	d8800415 	stw	r2,16(sp)
  8049ec:	0480aa16 	blt	zero,r18,804c98 <_dtoa_r+0x104c>
  8049f0:	8801701e 	bne	r17,zero,804fb4 <_dtoa_r+0x1368>
  8049f4:	8027883a 	mov	r19,r16
  8049f8:	d9000417 	ldw	r4,16(sp)
  8049fc:	e0bfffc4 	addi	r2,fp,-1
  804a00:	a0c0004c 	andi	r3,r20,1
  804a04:	1105883a 	add	r2,r2,r4
  804a08:	d8800415 	stw	r2,16(sp)
  804a0c:	d8800117 	ldw	r2,4(sp)
  804a10:	d8c00715 	stw	r3,28(sp)
  804a14:	e029883a 	mov	r20,fp
  804a18:	1884b03a 	or	r2,r3,r2
  804a1c:	d8800615 	stw	r2,24(sp)
  804a20:	df000815 	stw	fp,32(sp)
  804a24:	00002906 	br	804acc <_dtoa_r+0xe80>
  804a28:	b009883a 	mov	r4,r22
  804a2c:	0807b9c0 	call	807b9c <__mcmp>
  804a30:	900b883a 	mov	r5,r18
  804a34:	b809883a 	mov	r4,r23
  804a38:	d8800215 	stw	r2,8(sp)
  804a3c:	08072300 	call	807230 <_Bfree>
  804a40:	d8800217 	ldw	r2,8(sp)
  804a44:	1000021e 	bne	r2,zero,804a50 <_dtoa_r+0xe04>
  804a48:	d8c00617 	ldw	r3,24(sp)
  804a4c:	18022326 	beq	r3,zero,8052dc <_dtoa_r+0x1690>
  804a50:	a4800044 	addi	r18,r20,1
  804a54:	88012216 	blt	r17,zero,804ee0 <_dtoa_r+0x1294>
  804a58:	d8c00117 	ldw	r3,4(sp)
  804a5c:	1c62b03a 	or	r17,r3,r17
  804a60:	d8c00717 	ldw	r3,28(sp)
  804a64:	1c62b03a 	or	r17,r3,r17
  804a68:	88011d26 	beq	r17,zero,804ee0 <_dtoa_r+0x1294>
  804a6c:	00816b16 	blt	zero,r2,80501c <_dtoa_r+0x13d0>
  804a70:	d8800417 	ldw	r2,16(sp)
  804a74:	a7000005 	stb	fp,0(r20)
  804a78:	15017126 	beq	r2,r20,805040 <_dtoa_r+0x13f4>
  804a7c:	b00b883a 	mov	r5,r22
  804a80:	000f883a 	mov	r7,zero
  804a84:	01800284 	movi	r6,10
  804a88:	b809883a 	mov	r4,r23
  804a8c:	08072540 	call	807254 <__multadd>
  804a90:	102d883a 	mov	r22,r2
  804a94:	800b883a 	mov	r5,r16
  804a98:	000f883a 	mov	r7,zero
  804a9c:	01800284 	movi	r6,10
  804aa0:	b809883a 	mov	r4,r23
  804aa4:	84c01f26 	beq	r16,r19,804b24 <_dtoa_r+0xed8>
  804aa8:	08072540 	call	807254 <__multadd>
  804aac:	980b883a 	mov	r5,r19
  804ab0:	000f883a 	mov	r7,zero
  804ab4:	01800284 	movi	r6,10
  804ab8:	b809883a 	mov	r4,r23
  804abc:	1021883a 	mov	r16,r2
  804ac0:	08072540 	call	807254 <__multadd>
  804ac4:	1027883a 	mov	r19,r2
  804ac8:	9029883a 	mov	r20,r18
  804acc:	a80b883a 	mov	r5,r21
  804ad0:	b009883a 	mov	r4,r22
  804ad4:	0803a2c0 	call	803a2c <quorem>
  804ad8:	800b883a 	mov	r5,r16
  804adc:	b009883a 	mov	r4,r22
  804ae0:	1039883a 	mov	fp,r2
  804ae4:	d8800515 	stw	r2,20(sp)
  804ae8:	0807b9c0 	call	807b9c <__mcmp>
  804aec:	a80b883a 	mov	r5,r21
  804af0:	980d883a 	mov	r6,r19
  804af4:	b809883a 	mov	r4,r23
  804af8:	1023883a 	mov	r17,r2
  804afc:	0807bf40 	call	807bf4 <__mdiff>
  804b00:	1025883a 	mov	r18,r2
  804b04:	10800317 	ldw	r2,12(r2)
  804b08:	e7000c04 	addi	fp,fp,48
  804b0c:	900b883a 	mov	r5,r18
  804b10:	103fc526 	beq	r2,zero,804a28 <_dtoa_r+0xddc>
  804b14:	b809883a 	mov	r4,r23
  804b18:	08072300 	call	807230 <_Bfree>
  804b1c:	00800044 	movi	r2,1
  804b20:	003fcb06 	br	804a50 <_dtoa_r+0xe04>
  804b24:	08072540 	call	807254 <__multadd>
  804b28:	1021883a 	mov	r16,r2
  804b2c:	1027883a 	mov	r19,r2
  804b30:	003fe506 	br	804ac8 <_dtoa_r+0xe7c>
  804b34:	d8800117 	ldw	r2,4(sp)
  804b38:	108000d0 	cmplti	r2,r2,3
  804b3c:	10003c26 	beq	r2,zero,804c30 <_dtoa_r+0xfe4>
  804b40:	d8800617 	ldw	r2,24(sp)
  804b44:	103fa91e 	bne	r2,zero,8049ec <_dtoa_r+0xda0>
  804b48:	a80b883a 	mov	r5,r21
  804b4c:	b009883a 	mov	r4,r22
  804b50:	0803a2c0 	call	803a2c <quorem>
  804b54:	10c00c04 	addi	r3,r2,48
  804b58:	d8800317 	ldw	r2,12(sp)
  804b5c:	e4800044 	addi	r18,fp,1
  804b60:	e0c00005 	stb	r3,0(fp)
  804b64:	10800044 	addi	r2,r2,1
  804b68:	d8800315 	stw	r2,12(sp)
  804b6c:	0023883a 	mov	r17,zero
  804b70:	003f0606 	br	80478c <_dtoa_r+0xb40>
  804b74:	a80b883a 	mov	r5,r21
  804b78:	b009883a 	mov	r4,r22
  804b7c:	0807b9c0 	call	807b9c <__mcmp>
  804b80:	103ee60e 	bge	r2,zero,80471c <_dtoa_r+0xad0>
  804b84:	b00b883a 	mov	r5,r22
  804b88:	000f883a 	mov	r7,zero
  804b8c:	01800284 	movi	r6,10
  804b90:	b809883a 	mov	r4,r23
  804b94:	08072540 	call	807254 <__multadd>
  804b98:	d8c00317 	ldw	r3,12(sp)
  804b9c:	102d883a 	mov	r22,r2
  804ba0:	d8800617 	ldw	r2,24(sp)
  804ba4:	1cffffc4 	addi	r19,r3,-1
  804ba8:	103f861e 	bne	r2,zero,8049c4 <_dtoa_r+0xd78>
  804bac:	d8800b17 	ldw	r2,44(sp)
  804bb0:	0081d40e 	bge	zero,r2,805304 <_dtoa_r+0x16b8>
  804bb4:	d8800415 	stw	r2,16(sp)
  804bb8:	003edf06 	br	804738 <_dtoa_r+0xaec>
  804bbc:	00802074 	movhi	r2,129
  804bc0:	e7038e04 	addi	fp,fp,3640
  804bc4:	10838ec4 	addi	r2,r2,3643
  804bc8:	003dd906 	br	804330 <_dtoa_r+0x6e4>
  804bcc:	00800044 	movi	r2,1
  804bd0:	d8800615 	stw	r2,24(sp)
  804bd4:	003f3606 	br	8048b0 <_dtoa_r+0xc64>
  804bd8:	a03ead1e 	bne	r20,zero,804690 <_dtoa_r+0xa44>
  804bdc:	00800434 	movhi	r2,16
  804be0:	10bfffc4 	addi	r2,r2,-1
  804be4:	8884703a 	and	r2,r17,r2
  804be8:	103ea91e 	bne	r2,zero,804690 <_dtoa_r+0xa44>
  804bec:	8c5ffc2c 	andhi	r17,r17,32752
  804bf0:	883ea726 	beq	r17,zero,804690 <_dtoa_r+0xa44>
  804bf4:	d8800517 	ldw	r2,20(sp)
  804bf8:	04400044 	movi	r17,1
  804bfc:	10800044 	addi	r2,r2,1
  804c00:	d8800515 	stw	r2,20(sp)
  804c04:	d8800217 	ldw	r2,8(sp)
  804c08:	10800044 	addi	r2,r2,1
  804c0c:	d8800215 	stw	r2,8(sp)
  804c10:	003ea006 	br	804694 <_dtoa_r+0xa48>
  804c14:	00800044 	movi	r2,1
  804c18:	d8800415 	stw	r2,16(sp)
  804c1c:	d8801e15 	stw	r2,120(sp)
  804c20:	003f1b06 	br	804890 <_dtoa_r+0xc44>
  804c24:	d8800b17 	ldw	r2,44(sp)
  804c28:	dcc00315 	stw	r19,12(sp)
  804c2c:	d8800415 	stw	r2,16(sp)
  804c30:	d8800417 	ldw	r2,16(sp)
  804c34:	103dfb1e 	bne	r2,zero,804424 <_dtoa_r+0x7d8>
  804c38:	a80b883a 	mov	r5,r21
  804c3c:	b809883a 	mov	r4,r23
  804c40:	000f883a 	mov	r7,zero
  804c44:	01800144 	movi	r6,5
  804c48:	08072540 	call	807254 <__multadd>
  804c4c:	100b883a 	mov	r5,r2
  804c50:	b009883a 	mov	r4,r22
  804c54:	102b883a 	mov	r21,r2
  804c58:	0807b9c0 	call	807b9c <__mcmp>
  804c5c:	00bdf10e 	bge	zero,r2,804424 <_dtoa_r+0x7d8>
  804c60:	00800c44 	movi	r2,49
  804c64:	e0800005 	stb	r2,0(fp)
  804c68:	d8800317 	ldw	r2,12(sp)
  804c6c:	e4800044 	addi	r18,fp,1
  804c70:	14400044 	addi	r17,r2,1
  804c74:	a80b883a 	mov	r5,r21
  804c78:	b809883a 	mov	r4,r23
  804c7c:	08072300 	call	807230 <_Bfree>
  804c80:	88800044 	addi	r2,r17,1
  804c84:	d8800315 	stw	r2,12(sp)
  804c88:	803ee01e 	bne	r16,zero,80480c <_dtoa_r+0xbc0>
  804c8c:	003ee206 	br	804818 <_dtoa_r+0xbcc>
  804c90:	1805883a 	mov	r2,r3
  804c94:	003e5806 	br	8045f8 <_dtoa_r+0x9ac>
  804c98:	800b883a 	mov	r5,r16
  804c9c:	900d883a 	mov	r6,r18
  804ca0:	b809883a 	mov	r4,r23
  804ca4:	0807a140 	call	807a14 <__lshift>
  804ca8:	1021883a 	mov	r16,r2
  804cac:	003f5006 	br	8049f0 <_dtoa_r+0xda4>
  804cb0:	156bc83a 	sub	r21,r2,r21
  804cb4:	003e3e06 	br	8045b0 <_dtoa_r+0x964>
  804cb8:	dd000a15 	stw	r20,40(sp)
  804cbc:	dc400c15 	stw	r17,48(sp)
  804cc0:	04000084 	movi	r16,2
  804cc4:	003cc906 	br	803fec <_dtoa_r+0x3a0>
  804cc8:	00800044 	movi	r2,1
  804ccc:	003ead06 	br	804784 <_dtoa_r+0xb38>
  804cd0:	00800044 	movi	r2,1
  804cd4:	d8800615 	stw	r2,24(sp)
  804cd8:	003c9006 	br	803f1c <_dtoa_r+0x2d0>
  804cdc:	1000031e 	bne	r2,zero,804cec <_dtoa_r+0x10a0>
  804ce0:	d8c00117 	ldw	r3,4(sp)
  804ce4:	18c0004c 	andi	r3,r3,1
  804ce8:	183eb71e 	bne	r3,zero,8047c8 <_dtoa_r+0xb7c>
  804cec:	2005883a 	mov	r2,r4
  804cf0:	00000206 	br	804cfc <_dtoa_r+0x10b0>
  804cf4:	90bfff83 	ldbu	r2,-2(r18)
  804cf8:	1825883a 	mov	r18,r3
  804cfc:	10803fcc 	andi	r2,r2,255
  804d00:	1080201c 	xori	r2,r2,128
  804d04:	10bfe004 	addi	r2,r2,-128
  804d08:	10800c18 	cmpnei	r2,r2,48
  804d0c:	90ffffc4 	addi	r3,r18,-1
  804d10:	103ff826 	beq	r2,zero,804cf4 <_dtoa_r+0x10a8>
  804d14:	003eb406 	br	8047e8 <_dtoa_r+0xb9c>
  804d18:	00800c44 	movi	r2,49
  804d1c:	e0800005 	stb	r2,0(fp)
  804d20:	d8800317 	ldw	r2,12(sp)
  804d24:	10800044 	addi	r2,r2,1
  804d28:	d8800315 	stw	r2,12(sp)
  804d2c:	003eae06 	br	8047e8 <_dtoa_r+0xb9c>
  804d30:	d8c00917 	ldw	r3,36(sp)
  804d34:	18011826 	beq	r3,zero,805198 <_dtoa_r+0x154c>
  804d38:	d8c00517 	ldw	r3,20(sp)
  804d3c:	d9000217 	ldw	r4,8(sp)
  804d40:	10810cc4 	addi	r2,r2,1075
  804d44:	dd400717 	ldw	r21,28(sp)
  804d48:	2089883a 	add	r4,r4,r2
  804d4c:	1885883a 	add	r2,r3,r2
  804d50:	1825883a 	mov	r18,r3
  804d54:	d9000215 	stw	r4,8(sp)
  804d58:	d8800515 	stw	r2,20(sp)
  804d5c:	003e1d06 	br	8045d4 <_dtoa_r+0x988>
  804d60:	8009883a 	mov	r4,r16
  804d64:	080e1480 	call	80e148 <__floatsidf>
  804d68:	d9c00a17 	ldw	r7,40(sp)
  804d6c:	900d883a 	mov	r6,r18
  804d70:	1009883a 	mov	r4,r2
  804d74:	180b883a 	mov	r5,r3
  804d78:	080cf980 	call	80cf98 <__muldf3>
  804d7c:	000d883a 	mov	r6,zero
  804d80:	01d00734 	movhi	r7,16412
  804d84:	1009883a 	mov	r4,r2
  804d88:	180b883a 	mov	r5,r3
  804d8c:	080ba8c0 	call	80ba8c <__adddf3>
  804d90:	d8800c15 	stw	r2,48(sp)
  804d94:	00bf3034 	movhi	r2,64704
  804d98:	1885883a 	add	r2,r3,r2
  804d9c:	d8800d15 	stw	r2,52(sp)
  804da0:	d9400a17 	ldw	r5,40(sp)
  804da4:	9009883a 	mov	r4,r18
  804da8:	000d883a 	mov	r6,zero
  804dac:	01d00534 	movhi	r7,16404
  804db0:	080d7400 	call	80d740 <__subdf3>
  804db4:	dd400d17 	ldw	r21,52(sp)
  804db8:	d9800c17 	ldw	r6,48(sp)
  804dbc:	1009883a 	mov	r4,r2
  804dc0:	a80f883a 	mov	r7,r21
  804dc4:	180b883a 	mov	r5,r3
  804dc8:	1025883a 	mov	r18,r2
  804dcc:	1821883a 	mov	r16,r3
  804dd0:	080cdb80 	call	80cdb8 <__gedf2>
  804dd4:	00812d16 	blt	zero,r2,80528c <_dtoa_r+0x1640>
  804dd8:	d9800c17 	ldw	r6,48(sp)
  804ddc:	a9e0003c 	xorhi	r7,r21,32768
  804de0:	9009883a 	mov	r4,r18
  804de4:	800b883a 	mov	r5,r16
  804de8:	080cea80 	call	80cea8 <__ledf2>
  804dec:	103d6e0e 	bge	r2,zero,8043a8 <_dtoa_r+0x75c>
  804df0:	002b883a 	mov	r21,zero
  804df4:	0021883a 	mov	r16,zero
  804df8:	003d8a06 	br	804424 <_dtoa_r+0x7d8>
  804dfc:	d9800717 	ldw	r6,28(sp)
  804e00:	b00b883a 	mov	r5,r22
  804e04:	b809883a 	mov	r4,r23
  804e08:	08078fc0 	call	8078fc <__pow5mult>
  804e0c:	102d883a 	mov	r22,r2
  804e10:	003e1706 	br	804670 <_dtoa_r+0xa24>
  804e14:	d8800317 	ldw	r2,12(sp)
  804e18:	10010d26 	beq	r2,zero,805250 <_dtoa_r+0x1604>
  804e1c:	00abc83a 	sub	r21,zero,r2
  804e20:	a88003cc 	andi	r2,r21,15
  804e24:	100690fa 	slli	r3,r2,3
  804e28:	00802074 	movhi	r2,129
  804e2c:	1083ce04 	addi	r2,r2,3896
  804e30:	10c5883a 	add	r2,r2,r3
  804e34:	11800017 	ldw	r6,0(r2)
  804e38:	11c00117 	ldw	r7,4(r2)
  804e3c:	a009883a 	mov	r4,r20
  804e40:	880b883a 	mov	r5,r17
  804e44:	a82bd13a 	srai	r21,r21,4
  804e48:	080cf980 	call	80cf98 <__muldf3>
  804e4c:	d8c00a15 	stw	r3,40(sp)
  804e50:	1025883a 	mov	r18,r2
  804e54:	a8013826 	beq	r21,zero,805338 <_dtoa_r+0x16ec>
  804e58:	02002074 	movhi	r8,129
  804e5c:	04000084 	movi	r16,2
  804e60:	4203c404 	addi	r8,r8,3856
  804e64:	180b883a 	mov	r5,r3
  804e68:	dc400c15 	stw	r17,48(sp)
  804e6c:	1009883a 	mov	r4,r2
  804e70:	8023883a 	mov	r17,r16
  804e74:	0007883a 	mov	r3,zero
  804e78:	4021883a 	mov	r16,r8
  804e7c:	a980004c 	andi	r6,r21,1
  804e80:	30000726 	beq	r6,zero,804ea0 <_dtoa_r+0x1254>
  804e84:	81800017 	ldw	r6,0(r16)
  804e88:	81c00117 	ldw	r7,4(r16)
  804e8c:	8c400044 	addi	r17,r17,1
  804e90:	080cf980 	call	80cf98 <__muldf3>
  804e94:	180b883a 	mov	r5,r3
  804e98:	1009883a 	mov	r4,r2
  804e9c:	00c00044 	movi	r3,1
  804ea0:	a82bd07a 	srai	r21,r21,1
  804ea4:	84000204 	addi	r16,r16,8
  804ea8:	a83ff41e 	bne	r21,zero,804e7c <_dtoa_r+0x1230>
  804eac:	18c03fcc 	andi	r3,r3,255
  804eb0:	8821883a 	mov	r16,r17
  804eb4:	dc400c17 	ldw	r17,48(sp)
  804eb8:	183c6526 	beq	r3,zero,804050 <_dtoa_r+0x404>
  804ebc:	2025883a 	mov	r18,r4
  804ec0:	d9400a15 	stw	r5,40(sp)
  804ec4:	003c6206 	br	804050 <_dtoa_r+0x404>
  804ec8:	a03eb41e 	bne	r20,zero,80499c <_dtoa_r+0xd50>
  804ecc:	00800434 	movhi	r2,16
  804ed0:	10bfffc4 	addi	r2,r2,-1
  804ed4:	8884703a 	and	r2,r17,r2
  804ed8:	103f4426 	beq	r2,zero,804bec <_dtoa_r+0xfa0>
  804edc:	003eaf06 	br	80499c <_dtoa_r+0xd50>
  804ee0:	d9000317 	ldw	r4,12(sp)
  804ee4:	e007883a 	mov	r3,fp
  804ee8:	df000817 	ldw	fp,32(sp)
  804eec:	21000044 	addi	r4,r4,1
  804ef0:	d9000315 	stw	r4,12(sp)
  804ef4:	00800f0e 	bge	zero,r2,804f34 <_dtoa_r+0x12e8>
  804ef8:	b00b883a 	mov	r5,r22
  804efc:	01800044 	movi	r6,1
  804f00:	b809883a 	mov	r4,r23
  804f04:	d8c00115 	stw	r3,4(sp)
  804f08:	0807a140 	call	807a14 <__lshift>
  804f0c:	a80b883a 	mov	r5,r21
  804f10:	1009883a 	mov	r4,r2
  804f14:	102d883a 	mov	r22,r2
  804f18:	0807b9c0 	call	807b9c <__mcmp>
  804f1c:	d8c00117 	ldw	r3,4(sp)
  804f20:	0080e40e 	bge	zero,r2,8052b4 <_dtoa_r+0x1668>
  804f24:	18c00e60 	cmpeqi	r3,r3,57
  804f28:	1800d21e 	bne	r3,zero,805274 <_dtoa_r+0x1628>
  804f2c:	d8800517 	ldw	r2,20(sp)
  804f30:	10c00c44 	addi	r3,r2,49
  804f34:	8023883a 	mov	r17,r16
  804f38:	a0c00005 	stb	r3,0(r20)
  804f3c:	9821883a 	mov	r16,r19
  804f40:	003e2906 	br	8047e8 <_dtoa_r+0xb9c>
  804f44:	b027883a 	mov	r19,r22
  804f48:	ddc00417 	ldw	r23,16(sp)
  804f4c:	dd800217 	ldw	r22,8(sp)
  804f50:	200d883a 	mov	r6,r4
  804f54:	280f883a 	mov	r7,r5
  804f58:	080ba8c0 	call	80ba8c <__adddf3>
  804f5c:	dd400117 	ldw	r21,4(sp)
  804f60:	180b883a 	mov	r5,r3
  804f64:	900f883a 	mov	r7,r18
  804f68:	a80d883a 	mov	r6,r21
  804f6c:	1009883a 	mov	r4,r2
  804f70:	1823883a 	mov	r17,r3
  804f74:	1029883a 	mov	r20,r2
  804f78:	080cdb80 	call	80cdb8 <__gedf2>
  804f7c:	d8c00317 	ldw	r3,12(sp)
  804f80:	18c00044 	addi	r3,r3,1
  804f84:	d8c00315 	stw	r3,12(sp)
  804f88:	00bcc716 	blt	zero,r2,8042a8 <_dtoa_r+0x65c>
  804f8c:	a80d883a 	mov	r6,r21
  804f90:	900f883a 	mov	r7,r18
  804f94:	a009883a 	mov	r4,r20
  804f98:	880b883a 	mov	r5,r17
  804f9c:	080cd380 	call	80cd38 <__eqdf2>
  804fa0:	1000021e 	bne	r2,zero,804fac <_dtoa_r+0x1360>
  804fa4:	9cc0004c 	andi	r19,r19,1
  804fa8:	983cbf1e 	bne	r19,zero,8042a8 <_dtoa_r+0x65c>
  804fac:	8025883a 	mov	r18,r16
  804fb0:	003e1906 	br	804818 <_dtoa_r+0xbcc>
  804fb4:	81400117 	ldw	r5,4(r16)
  804fb8:	b809883a 	mov	r4,r23
  804fbc:	080718c0 	call	80718c <_Balloc>
  804fc0:	1023883a 	mov	r17,r2
  804fc4:	1000e526 	beq	r2,zero,80535c <_dtoa_r+0x1710>
  804fc8:	81800417 	ldw	r6,16(r16)
  804fcc:	81400304 	addi	r5,r16,12
  804fd0:	11000304 	addi	r4,r2,12
  804fd4:	31800084 	addi	r6,r6,2
  804fd8:	300c90ba 	slli	r6,r6,2
  804fdc:	0806e700 	call	806e70 <memcpy>
  804fe0:	01800044 	movi	r6,1
  804fe4:	880b883a 	mov	r5,r17
  804fe8:	b809883a 	mov	r4,r23
  804fec:	0807a140 	call	807a14 <__lshift>
  804ff0:	1027883a 	mov	r19,r2
  804ff4:	003e8006 	br	8049f8 <_dtoa_r+0xdac>
  804ff8:	b00b883a 	mov	r5,r22
  804ffc:	b809883a 	mov	r4,r23
  805000:	08078fc0 	call	8078fc <__pow5mult>
  805004:	102d883a 	mov	r22,r2
  805008:	003d9906 	br	804670 <_dtoa_r+0xa24>
  80500c:	d8800517 	ldw	r2,20(sp)
  805010:	d8c00417 	ldw	r3,16(sp)
  805014:	10e5c83a 	sub	r18,r2,r3
  805018:	003d6e06 	br	8045d4 <_dtoa_r+0x988>
  80501c:	d9000317 	ldw	r4,12(sp)
  805020:	e007883a 	mov	r3,fp
  805024:	18800e58 	cmpnei	r2,r3,57
  805028:	21000044 	addi	r4,r4,1
  80502c:	d9000315 	stw	r4,12(sp)
  805030:	df000817 	ldw	fp,32(sp)
  805034:	10008f26 	beq	r2,zero,805274 <_dtoa_r+0x1628>
  805038:	18c00044 	addi	r3,r3,1
  80503c:	003fbd06 	br	804f34 <_dtoa_r+0x12e8>
  805040:	d8800317 	ldw	r2,12(sp)
  805044:	e007883a 	mov	r3,fp
  805048:	8023883a 	mov	r17,r16
  80504c:	10800044 	addi	r2,r2,1
  805050:	df000817 	ldw	fp,32(sp)
  805054:	d8800315 	stw	r2,12(sp)
  805058:	9821883a 	mov	r16,r19
  80505c:	003dcb06 	br	80478c <_dtoa_r+0xb40>
  805060:	d9000c17 	ldw	r4,48(sp)
  805064:	d9400d17 	ldw	r5,52(sp)
  805068:	600d883a 	mov	r6,r12
  80506c:	680f883a 	mov	r7,r13
  805070:	dac00a15 	stw	r11,40(sp)
  805074:	080cf980 	call	80cf98 <__muldf3>
  805078:	dac00a17 	ldw	r11,40(sp)
  80507c:	d9400e17 	ldw	r5,56(sp)
  805080:	d8800a15 	stw	r2,40(sp)
  805084:	e2c00005 	stb	r11,0(fp)
  805088:	29000058 	cmpnei	r4,r5,1
  80508c:	d8c00c15 	stw	r3,48(sp)
  805090:	e145883a 	add	r2,fp,r5
  805094:	20002126 	beq	r4,zero,80511c <_dtoa_r+0x14d0>
  805098:	dc400e15 	stw	r17,56(sp)
  80509c:	dcc00d15 	stw	r19,52(sp)
  8050a0:	8023883a 	mov	r17,r16
  8050a4:	a809883a 	mov	r4,r21
  8050a8:	900b883a 	mov	r5,r18
  8050ac:	1021883a 	mov	r16,r2
  8050b0:	000d883a 	mov	r6,zero
  8050b4:	01d00934 	movhi	r7,16420
  8050b8:	080cf980 	call	80cf98 <__muldf3>
  8050bc:	180b883a 	mov	r5,r3
  8050c0:	1009883a 	mov	r4,r2
  8050c4:	182b883a 	mov	r21,r3
  8050c8:	1027883a 	mov	r19,r2
  8050cc:	080e0c80 	call	80e0c8 <__fixdfsi>
  8050d0:	1009883a 	mov	r4,r2
  8050d4:	1025883a 	mov	r18,r2
  8050d8:	080e1480 	call	80e148 <__floatsidf>
  8050dc:	9809883a 	mov	r4,r19
  8050e0:	a80b883a 	mov	r5,r21
  8050e4:	100d883a 	mov	r6,r2
  8050e8:	180f883a 	mov	r7,r3
  8050ec:	8c400044 	addi	r17,r17,1
  8050f0:	94800c04 	addi	r18,r18,48
  8050f4:	080d7400 	call	80d740 <__subdf3>
  8050f8:	8cbfffc5 	stb	r18,-1(r17)
  8050fc:	1009883a 	mov	r4,r2
  805100:	180b883a 	mov	r5,r3
  805104:	847fea1e 	bne	r16,r17,8050b0 <_dtoa_r+0x1464>
  805108:	8821883a 	mov	r16,r17
  80510c:	dcc00d17 	ldw	r19,52(sp)
  805110:	dc400e17 	ldw	r17,56(sp)
  805114:	102b883a 	mov	r21,r2
  805118:	1825883a 	mov	r18,r3
  80511c:	d9000a17 	ldw	r4,40(sp)
  805120:	d9400c17 	ldw	r5,48(sp)
  805124:	000d883a 	mov	r6,zero
  805128:	01cff834 	movhi	r7,16352
  80512c:	080ba8c0 	call	80ba8c <__adddf3>
  805130:	a80d883a 	mov	r6,r21
  805134:	900f883a 	mov	r7,r18
  805138:	1009883a 	mov	r4,r2
  80513c:	180b883a 	mov	r5,r3
  805140:	080cea80 	call	80cea8 <__ledf2>
  805144:	103c5316 	blt	r2,zero,804294 <_dtoa_r+0x648>
  805148:	d9800a17 	ldw	r6,40(sp)
  80514c:	d9c00c17 	ldw	r7,48(sp)
  805150:	0009883a 	mov	r4,zero
  805154:	014ff834 	movhi	r5,16352
  805158:	080d7400 	call	80d740 <__subdf3>
  80515c:	a80d883a 	mov	r6,r21
  805160:	900f883a 	mov	r7,r18
  805164:	1009883a 	mov	r4,r2
  805168:	180b883a 	mov	r5,r3
  80516c:	080cdb80 	call	80cdb8 <__gedf2>
  805170:	00bc8d0e 	bge	zero,r2,8043a8 <_dtoa_r+0x75c>
  805174:	80bfffc7 	ldb	r2,-1(r16)
  805178:	8025883a 	mov	r18,r16
  80517c:	843fffc4 	addi	r16,r16,-1
  805180:	10800c20 	cmpeqi	r2,r2,48
  805184:	103ffb1e 	bne	r2,zero,805174 <_dtoa_r+0x1528>
  805188:	d8801117 	ldw	r2,68(sp)
  80518c:	10800044 	addi	r2,r2,1
  805190:	d8800315 	stw	r2,12(sp)
  805194:	003da006 	br	804818 <_dtoa_r+0xbcc>
  805198:	d8c01217 	ldw	r3,72(sp)
  80519c:	00800d84 	movi	r2,54
  8051a0:	d9000517 	ldw	r4,20(sp)
  8051a4:	10c5c83a 	sub	r2,r2,r3
  8051a8:	d8c00217 	ldw	r3,8(sp)
  8051ac:	dd400717 	ldw	r21,28(sp)
  8051b0:	2025883a 	mov	r18,r4
  8051b4:	1887883a 	add	r3,r3,r2
  8051b8:	2085883a 	add	r2,r4,r2
  8051bc:	d8c00215 	stw	r3,8(sp)
  8051c0:	d8800515 	stw	r2,20(sp)
  8051c4:	003d0306 	br	8045d4 <_dtoa_r+0x988>
  8051c8:	d8800417 	ldw	r2,16(sp)
  8051cc:	103ee426 	beq	r2,zero,804d60 <_dtoa_r+0x1114>
  8051d0:	d8800b17 	ldw	r2,44(sp)
  8051d4:	00bc740e 	bge	zero,r2,8043a8 <_dtoa_r+0x75c>
  8051d8:	a80b883a 	mov	r5,r21
  8051dc:	9009883a 	mov	r4,r18
  8051e0:	000d883a 	mov	r6,zero
  8051e4:	01d00934 	movhi	r7,16420
  8051e8:	080cf980 	call	80cf98 <__muldf3>
  8051ec:	81000044 	addi	r4,r16,1
  8051f0:	1025883a 	mov	r18,r2
  8051f4:	182b883a 	mov	r21,r3
  8051f8:	d8c00a15 	stw	r3,40(sp)
  8051fc:	080e1480 	call	80e148 <__floatsidf>
  805200:	900d883a 	mov	r6,r18
  805204:	a80f883a 	mov	r7,r21
  805208:	1009883a 	mov	r4,r2
  80520c:	180b883a 	mov	r5,r3
  805210:	080cf980 	call	80cf98 <__muldf3>
  805214:	1009883a 	mov	r4,r2
  805218:	000d883a 	mov	r6,zero
  80521c:	01d00734 	movhi	r7,16412
  805220:	180b883a 	mov	r5,r3
  805224:	080ba8c0 	call	80ba8c <__adddf3>
  805228:	d9000317 	ldw	r4,12(sp)
  80522c:	d8800c15 	stw	r2,48(sp)
  805230:	00bf3034 	movhi	r2,64704
  805234:	1887883a 	add	r3,r3,r2
  805238:	d8800b17 	ldw	r2,44(sp)
  80523c:	213fffc4 	addi	r4,r4,-1
  805240:	d9001115 	stw	r4,68(sp)
  805244:	d8c00d15 	stw	r3,52(sp)
  805248:	d8800e15 	stw	r2,56(sp)
  80524c:	003b9f06 	br	8040cc <_dtoa_r+0x480>
  805250:	a025883a 	mov	r18,r20
  805254:	dc400a15 	stw	r17,40(sp)
  805258:	04000084 	movi	r16,2
  80525c:	003b7c06 	br	804050 <_dtoa_r+0x404>
  805260:	d8800317 	ldw	r2,12(sp)
  805264:	00c00c44 	movi	r3,49
  805268:	10800044 	addi	r2,r2,1
  80526c:	d8800315 	stw	r2,12(sp)
  805270:	003c1606 	br	8042cc <_dtoa_r+0x680>
  805274:	00800e44 	movi	r2,57
  805278:	8023883a 	mov	r17,r16
  80527c:	a0800005 	stb	r2,0(r20)
  805280:	9821883a 	mov	r16,r19
  805284:	01000e44 	movi	r4,57
  805288:	003d4f06 	br	8047c8 <_dtoa_r+0xb7c>
  80528c:	002b883a 	mov	r21,zero
  805290:	0021883a 	mov	r16,zero
  805294:	003e7206 	br	804c60 <_dtoa_r+0x1014>
  805298:	dd800d17 	ldw	r22,52(sp)
  80529c:	ddc00e17 	ldw	r23,56(sp)
  8052a0:	d8801117 	ldw	r2,68(sp)
  8052a4:	8025883a 	mov	r18,r16
  8052a8:	10800044 	addi	r2,r2,1
  8052ac:	d8800315 	stw	r2,12(sp)
  8052b0:	003d5906 	br	804818 <_dtoa_r+0xbcc>
  8052b4:	103f1f1e 	bne	r2,zero,804f34 <_dtoa_r+0x12e8>
  8052b8:	1880004c 	andi	r2,r3,1
  8052bc:	103f191e 	bne	r2,zero,804f24 <_dtoa_r+0x12d8>
  8052c0:	003f1c06 	br	804f34 <_dtoa_r+0x12e8>
  8052c4:	dcc00f17 	ldw	r19,60(sp)
  8052c8:	dd800d17 	ldw	r22,52(sp)
  8052cc:	ddc00e17 	ldw	r23,56(sp)
  8052d0:	dc400c17 	ldw	r17,48(sp)
  8052d4:	dd000a17 	ldw	r20,40(sp)
  8052d8:	003c3306 	br	8043a8 <_dtoa_r+0x75c>
  8052dc:	d9000317 	ldw	r4,12(sp)
  8052e0:	e007883a 	mov	r3,fp
  8052e4:	18800e60 	cmpeqi	r2,r3,57
  8052e8:	21000044 	addi	r4,r4,1
  8052ec:	d9000315 	stw	r4,12(sp)
  8052f0:	df000817 	ldw	fp,32(sp)
  8052f4:	a4800044 	addi	r18,r20,1
  8052f8:	103fde1e 	bne	r2,zero,805274 <_dtoa_r+0x1628>
  8052fc:	047f0b16 	blt	zero,r17,804f2c <_dtoa_r+0x12e0>
  805300:	003f0c06 	br	804f34 <_dtoa_r+0x12e8>
  805304:	d8800117 	ldw	r2,4(sp)
  805308:	108000c8 	cmpgei	r2,r2,3
  80530c:	103e451e 	bne	r2,zero,804c24 <_dtoa_r+0xfd8>
  805310:	dcc00315 	stw	r19,12(sp)
  805314:	003e0c06 	br	804b48 <_dtoa_r+0xefc>
  805318:	d8800117 	ldw	r2,4(sp)
  80531c:	108000c8 	cmpgei	r2,r2,3
  805320:	103e401e 	bne	r2,zero,804c24 <_dtoa_r+0xfd8>
  805324:	d8800b17 	ldw	r2,44(sp)
  805328:	dcc00315 	stw	r19,12(sp)
  80532c:	d8800415 	stw	r2,16(sp)
  805330:	04bdaf0e 	bge	zero,r18,8049f0 <_dtoa_r+0xda4>
  805334:	003e5806 	br	804c98 <_dtoa_r+0x104c>
  805338:	04000084 	movi	r16,2
  80533c:	003b4406 	br	804050 <_dtoa_r+0x404>
  805340:	01c02074 	movhi	r7,129
  805344:	01002074 	movhi	r4,129
  805348:	39c39204 	addi	r7,r7,3656
  80534c:	000d883a 	mov	r6,zero
  805350:	01406a84 	movi	r5,426
  805354:	21039704 	addi	r4,r4,3676
  805358:	0809f780 	call	809f78 <__assert_func>
  80535c:	01c02074 	movhi	r7,129
  805360:	01002074 	movhi	r4,129
  805364:	39c39204 	addi	r7,r7,3656
  805368:	000d883a 	mov	r6,zero
  80536c:	0140ba84 	movi	r5,746
  805370:	21039704 	addi	r4,r4,3676
  805374:	0809f780 	call	809f78 <__assert_func>
  805378:	e7038f04 	addi	fp,fp,3644
  80537c:	003a6406 	br	803d10 <_dtoa_r+0xc4>
  805380:	18c00120 	cmpeqi	r3,r3,4
  805384:	183cd51e 	bne	r3,zero,8046dc <_dtoa_r+0xa90>
  805388:	00c00f04 	movi	r3,60
  80538c:	1885c83a 	sub	r2,r3,r2
  805390:	003d6c06 	br	804944 <_dtoa_r+0xcf8>
  805394:	000b883a 	mov	r5,zero
  805398:	003af006 	br	803f5c <_dtoa_r+0x310>

0080539c <__sflush_r>:
  80539c:	2880030b 	ldhu	r2,12(r5)
  8053a0:	defffb04 	addi	sp,sp,-20
  8053a4:	dcc00315 	stw	r19,12(sp)
  8053a8:	dc000015 	stw	r16,0(sp)
  8053ac:	dfc00415 	stw	ra,16(sp)
  8053b0:	dc800215 	stw	r18,8(sp)
  8053b4:	dc400115 	stw	r17,4(sp)
  8053b8:	10c0020c 	andi	r3,r2,8
  8053bc:	2821883a 	mov	r16,r5
  8053c0:	2027883a 	mov	r19,r4
  8053c4:	18003f1e 	bne	r3,zero,8054c4 <__sflush_r+0x128>
  8053c8:	28c00117 	ldw	r3,4(r5)
  8053cc:	10820014 	ori	r2,r2,2048
  8053d0:	2880030d 	sth	r2,12(r5)
  8053d4:	00c0550e 	bge	zero,r3,80552c <__sflush_r+0x190>
  8053d8:	82000a17 	ldw	r8,40(r16)
  8053dc:	40003126 	beq	r8,zero,8054a4 <__sflush_r+0x108>
  8053e0:	9c400017 	ldw	r17,0(r19)
  8053e4:	1104000c 	andi	r4,r2,4096
  8053e8:	98000015 	stw	zero,0(r19)
  8053ec:	81400717 	ldw	r5,28(r16)
  8053f0:	1007883a 	mov	r3,r2
  8053f4:	2000521e 	bne	r4,zero,805540 <__sflush_r+0x1a4>
  8053f8:	01c00044 	movi	r7,1
  8053fc:	000d883a 	mov	r6,zero
  805400:	9809883a 	mov	r4,r19
  805404:	403ee83a 	callr	r8
  805408:	10ffffd8 	cmpnei	r3,r2,-1
  80540c:	18005826 	beq	r3,zero,805570 <__sflush_r+0x1d4>
  805410:	80c0030b 	ldhu	r3,12(r16)
  805414:	82000a17 	ldw	r8,40(r16)
  805418:	81400717 	ldw	r5,28(r16)
  80541c:	18c0010c 	andi	r3,r3,4
  805420:	18000626 	beq	r3,zero,80543c <__sflush_r+0xa0>
  805424:	81000117 	ldw	r4,4(r16)
  805428:	80c00c17 	ldw	r3,48(r16)
  80542c:	1105c83a 	sub	r2,r2,r4
  805430:	18000226 	beq	r3,zero,80543c <__sflush_r+0xa0>
  805434:	80c00f17 	ldw	r3,60(r16)
  805438:	10c5c83a 	sub	r2,r2,r3
  80543c:	100d883a 	mov	r6,r2
  805440:	000f883a 	mov	r7,zero
  805444:	9809883a 	mov	r4,r19
  805448:	403ee83a 	callr	r8
  80544c:	10ffffd8 	cmpnei	r3,r2,-1
  805450:	18003d1e 	bne	r3,zero,805548 <__sflush_r+0x1ac>
  805454:	99000017 	ldw	r4,0(r19)
  805458:	80c0030b 	ldhu	r3,12(r16)
  80545c:	20004e26 	beq	r4,zero,805598 <__sflush_r+0x1fc>
  805460:	21400760 	cmpeqi	r5,r4,29
  805464:	2800021e 	bne	r5,zero,805470 <__sflush_r+0xd4>
  805468:	210005a0 	cmpeqi	r4,r4,22
  80546c:	20002c26 	beq	r4,zero,805520 <__sflush_r+0x184>
  805470:	80800417 	ldw	r2,16(r16)
  805474:	18fdffcc 	andi	r3,r3,63487
  805478:	80c0030d 	sth	r3,12(r16)
  80547c:	80000115 	stw	zero,4(r16)
  805480:	80800015 	stw	r2,0(r16)
  805484:	81400c17 	ldw	r5,48(r16)
  805488:	9c400015 	stw	r17,0(r19)
  80548c:	28000526 	beq	r5,zero,8054a4 <__sflush_r+0x108>
  805490:	80801004 	addi	r2,r16,64
  805494:	28800226 	beq	r5,r2,8054a0 <__sflush_r+0x104>
  805498:	9809883a 	mov	r4,r19
  80549c:	0805abc0 	call	805abc <_free_r>
  8054a0:	80000c15 	stw	zero,48(r16)
  8054a4:	0005883a 	mov	r2,zero
  8054a8:	dfc00417 	ldw	ra,16(sp)
  8054ac:	dcc00317 	ldw	r19,12(sp)
  8054b0:	dc800217 	ldw	r18,8(sp)
  8054b4:	dc400117 	ldw	r17,4(sp)
  8054b8:	dc000017 	ldw	r16,0(sp)
  8054bc:	dec00504 	addi	sp,sp,20
  8054c0:	f800283a 	ret
  8054c4:	2c800417 	ldw	r18,16(r5)
  8054c8:	903ff626 	beq	r18,zero,8054a4 <__sflush_r+0x108>
  8054cc:	2c400017 	ldw	r17,0(r5)
  8054d0:	108000cc 	andi	r2,r2,3
  8054d4:	2c800015 	stw	r18,0(r5)
  8054d8:	8ca3c83a 	sub	r17,r17,r18
  8054dc:	1000161e 	bne	r2,zero,805538 <__sflush_r+0x19c>
  8054e0:	28800517 	ldw	r2,20(r5)
  8054e4:	80800215 	stw	r2,8(r16)
  8054e8:	04400316 	blt	zero,r17,8054f8 <__sflush_r+0x15c>
  8054ec:	003fed06 	br	8054a4 <__sflush_r+0x108>
  8054f0:	90a5883a 	add	r18,r18,r2
  8054f4:	047feb0e 	bge	zero,r17,8054a4 <__sflush_r+0x108>
  8054f8:	80800917 	ldw	r2,36(r16)
  8054fc:	81400717 	ldw	r5,28(r16)
  805500:	880f883a 	mov	r7,r17
  805504:	900d883a 	mov	r6,r18
  805508:	9809883a 	mov	r4,r19
  80550c:	103ee83a 	callr	r2
  805510:	88a3c83a 	sub	r17,r17,r2
  805514:	00bff616 	blt	zero,r2,8054f0 <__sflush_r+0x154>
  805518:	80c0030b 	ldhu	r3,12(r16)
  80551c:	00bfffc4 	movi	r2,-1
  805520:	18c01014 	ori	r3,r3,64
  805524:	80c0030d 	sth	r3,12(r16)
  805528:	003fdf06 	br	8054a8 <__sflush_r+0x10c>
  80552c:	28c00f17 	ldw	r3,60(r5)
  805530:	00ffa916 	blt	zero,r3,8053d8 <__sflush_r+0x3c>
  805534:	003fdb06 	br	8054a4 <__sflush_r+0x108>
  805538:	0005883a 	mov	r2,zero
  80553c:	003fe906 	br	8054e4 <__sflush_r+0x148>
  805540:	80801417 	ldw	r2,80(r16)
  805544:	003fb506 	br	80541c <__sflush_r+0x80>
  805548:	80c0030b 	ldhu	r3,12(r16)
  80554c:	81000417 	ldw	r4,16(r16)
  805550:	80000115 	stw	zero,4(r16)
  805554:	197dffcc 	andi	r5,r3,63487
  805558:	8140030d 	sth	r5,12(r16)
  80555c:	81000015 	stw	r4,0(r16)
  805560:	18c4000c 	andi	r3,r3,4096
  805564:	183fc726 	beq	r3,zero,805484 <__sflush_r+0xe8>
  805568:	80801415 	stw	r2,80(r16)
  80556c:	003fc506 	br	805484 <__sflush_r+0xe8>
  805570:	98c00017 	ldw	r3,0(r19)
  805574:	183fa626 	beq	r3,zero,805410 <__sflush_r+0x74>
  805578:	19000760 	cmpeqi	r4,r3,29
  80557c:	20000e1e 	bne	r4,zero,8055b8 <__sflush_r+0x21c>
  805580:	18c00598 	cmpnei	r3,r3,22
  805584:	18000c26 	beq	r3,zero,8055b8 <__sflush_r+0x21c>
  805588:	80c0030b 	ldhu	r3,12(r16)
  80558c:	18c01014 	ori	r3,r3,64
  805590:	80c0030d 	sth	r3,12(r16)
  805594:	003fc406 	br	8054a8 <__sflush_r+0x10c>
  805598:	81000417 	ldw	r4,16(r16)
  80559c:	197dffcc 	andi	r5,r3,63487
  8055a0:	8140030d 	sth	r5,12(r16)
  8055a4:	80000115 	stw	zero,4(r16)
  8055a8:	81000015 	stw	r4,0(r16)
  8055ac:	18c4000c 	andi	r3,r3,4096
  8055b0:	183fb426 	beq	r3,zero,805484 <__sflush_r+0xe8>
  8055b4:	003fec06 	br	805568 <__sflush_r+0x1cc>
  8055b8:	9c400015 	stw	r17,0(r19)
  8055bc:	0005883a 	mov	r2,zero
  8055c0:	003fb906 	br	8054a8 <__sflush_r+0x10c>

008055c4 <_fflush_r>:
  8055c4:	defffd04 	addi	sp,sp,-12
  8055c8:	dc000115 	stw	r16,4(sp)
  8055cc:	dfc00215 	stw	ra,8(sp)
  8055d0:	2021883a 	mov	r16,r4
  8055d4:	20000226 	beq	r4,zero,8055e0 <_fflush_r+0x1c>
  8055d8:	20800e17 	ldw	r2,56(r4)
  8055dc:	10000726 	beq	r2,zero,8055fc <_fflush_r+0x38>
  8055e0:	2880030f 	ldh	r2,12(r5)
  8055e4:	10000a1e 	bne	r2,zero,805610 <_fflush_r+0x4c>
  8055e8:	0005883a 	mov	r2,zero
  8055ec:	dfc00217 	ldw	ra,8(sp)
  8055f0:	dc000117 	ldw	r16,4(sp)
  8055f4:	dec00304 	addi	sp,sp,12
