
count_binary.elf:     file format elf32-littlenios2


Disassembly of section .entry:

00800000 <__reset>:
  800000:	00820014 	movui	r2,2048
  800004:	1001483a 	initi	r2
  800008:	10bff804 	addi	r2,r2,-32
  80000c:	00bffd16 	blt	zero,r2,800004 <__reset+0x4>
  800010:	00402034 	movhi	at,128
  800014:	08408e14 	ori	at,at,568
  800018:	0800683a 	jmp	at
  80001c:	00000000 	call	0 <__alt_mem_sdram-0x800000>

Disassembly of section .exceptions:

00800020 <alt_exception>:
  800020:	deffed04 	addi	sp,sp,-76
  800024:	dfc00015 	stw	ra,0(sp)
  800028:	d8400215 	stw	at,8(sp)
  80002c:	d8800315 	stw	r2,12(sp)
  800030:	d8c00415 	stw	r3,16(sp)
  800034:	d9000515 	stw	r4,20(sp)
  800038:	d9400615 	stw	r5,24(sp)
  80003c:	d9800715 	stw	r6,28(sp)
  800040:	d9c00815 	stw	r7,32(sp)
  800044:	000b307a 	rdctl	r5,estatus
  800048:	da000915 	stw	r8,36(sp)
  80004c:	da400a15 	stw	r9,40(sp)
  800050:	da800b15 	stw	r10,44(sp)
  800054:	dac00c15 	stw	r11,48(sp)
  800058:	db000d15 	stw	r12,52(sp)
  80005c:	db400e15 	stw	r13,56(sp)
  800060:	db800f15 	stw	r14,60(sp)
  800064:	dbc01015 	stw	r15,64(sp)
  800068:	d9401115 	stw	r5,68(sp)
  80006c:	ebffff04 	addi	r15,ea,-4
  800070:	dbc01215 	stw	r15,72(sp)
  800074:	0009313a 	rdctl	r4,ipending
  800078:	2880004c 	andi	r2,r5,1
  80007c:	10000326 	beq	r2,zero,80008c <alt_exception+0x6c>
  800080:	20000226 	beq	r4,zero,80008c <alt_exception+0x6c>
  800084:	08000fc0 	call	8000fc <alt_irq_handler>
  800088:	00000706 	br	8000a8 <alt_exception+0x88>
  80008c:	df401215 	stw	ea,72(sp)
  800090:	e8bfff17 	ldw	r2,-4(ea)
  800094:	e93fff04 	addi	r4,ea,-4
  800098:	08001c40 	call	8001c4 <alt_instruction_exception_entry>
  80009c:	1000021e 	bne	r2,zero,8000a8 <alt_exception+0x88>
  8000a0:	ebffff04 	addi	r15,ea,-4
  8000a4:	dbc01215 	stw	r15,72(sp)
  8000a8:	d9401117 	ldw	r5,68(sp)
  8000ac:	df401217 	ldw	ea,72(sp)
  8000b0:	dfc00017 	ldw	ra,0(sp)
  8000b4:	2801707a 	wrctl	estatus,r5
  8000b8:	d8400217 	ldw	at,8(sp)
  8000bc:	d8800317 	ldw	r2,12(sp)
  8000c0:	d8c00417 	ldw	r3,16(sp)
  8000c4:	d9000517 	ldw	r4,20(sp)
  8000c8:	d9400617 	ldw	r5,24(sp)
  8000cc:	d9800717 	ldw	r6,28(sp)
  8000d0:	d9c00817 	ldw	r7,32(sp)
  8000d4:	da000917 	ldw	r8,36(sp)
  8000d8:	da400a17 	ldw	r9,40(sp)
  8000dc:	da800b17 	ldw	r10,44(sp)
  8000e0:	dac00c17 	ldw	r11,48(sp)
  8000e4:	db000d17 	ldw	r12,52(sp)
  8000e8:	db400e17 	ldw	r13,56(sp)
  8000ec:	db800f17 	ldw	r14,60(sp)
  8000f0:	dbc01017 	ldw	r15,64(sp)
  8000f4:	dec01304 	addi	sp,sp,76
  8000f8:	ef80083a 	eret

008000fc <alt_irq_handler>:
  8000fc:	defff904 	addi	sp,sp,-28
  800100:	dfc00615 	stw	ra,24(sp)
  800104:	df000515 	stw	fp,20(sp)
  800108:	df000504 	addi	fp,sp,20
  80010c:	0001883a 	nop
  800110:	0005313a 	rdctl	r2,ipending
  800114:	e0bffc15 	stw	r2,-16(fp)
  800118:	e0bffc17 	ldw	r2,-16(fp)
  80011c:	e0bfff15 	stw	r2,-4(fp)
  800120:	e03ffd15 	stw	zero,-12(fp)
  800124:	00800044 	movi	r2,1
  800128:	e0bffe15 	stw	r2,-8(fp)
  80012c:	e0ffff17 	ldw	r3,-4(fp)
  800130:	e0bffe17 	ldw	r2,-8(fp)
  800134:	1884703a 	and	r2,r3,r2
  800138:	10001126 	beq	r2,zero,800180 <alt_irq_handler+0x84>
  80013c:	e0bffd17 	ldw	r2,-12(fp)
  800140:	100690fa 	slli	r3,r2,3
  800144:	00802074 	movhi	r2,129
  800148:	1885883a 	add	r2,r3,r2
  80014c:	10d13a17 	ldw	r3,17640(r2)
  800150:	e0bffd17 	ldw	r2,-12(fp)
  800154:	100890fa 	slli	r4,r2,3
  800158:	00802074 	movhi	r2,129
  80015c:	2085883a 	add	r2,r4,r2
  800160:	10913b17 	ldw	r2,17644(r2)
  800164:	1009883a 	mov	r4,r2
  800168:	183ee83a 	callr	r3
  80016c:	0001883a 	nop
  800170:	0005313a 	rdctl	r2,ipending
  800174:	e0bffb15 	stw	r2,-20(fp)
  800178:	e0bffb17 	ldw	r2,-20(fp)
  80017c:	00000706 	br	80019c <alt_irq_handler+0xa0>
  800180:	e0bffe17 	ldw	r2,-8(fp)
  800184:	1085883a 	add	r2,r2,r2
  800188:	e0bffe15 	stw	r2,-8(fp)
  80018c:	e0bffd17 	ldw	r2,-12(fp)
  800190:	10800044 	addi	r2,r2,1
  800194:	e0bffd15 	stw	r2,-12(fp)
  800198:	003fe406 	br	80012c <alt_irq_handler+0x30>
  80019c:	e0bfff15 	stw	r2,-4(fp)
  8001a0:	e0bfff17 	ldw	r2,-4(fp)
  8001a4:	103fde1e 	bne	r2,zero,800120 <alt_irq_handler+0x24>
  8001a8:	0001883a 	nop
  8001ac:	0001883a 	nop
  8001b0:	e037883a 	mov	sp,fp
  8001b4:	dfc00117 	ldw	ra,4(sp)
  8001b8:	df000017 	ldw	fp,0(sp)
  8001bc:	dec00204 	addi	sp,sp,8
  8001c0:	f800283a 	ret

008001c4 <alt_instruction_exception_entry>:
  8001c4:	defffb04 	addi	sp,sp,-20
  8001c8:	dfc00415 	stw	ra,16(sp)
  8001cc:	df000315 	stw	fp,12(sp)
  8001d0:	df000304 	addi	fp,sp,12
  8001d4:	e13ffd15 	stw	r4,-12(fp)
  8001d8:	000531fa 	rdctl	r2,exception
  8001dc:	e0bfff15 	stw	r2,-4(fp)
  8001e0:	e0bfff17 	ldw	r2,-4(fp)
  8001e4:	1004d0ba 	srli	r2,r2,2
  8001e8:	108007cc 	andi	r2,r2,31
  8001ec:	e0bfff15 	stw	r2,-4(fp)
  8001f0:	0005333a 	rdctl	r2,badaddr
  8001f4:	e0bffe15 	stw	r2,-8(fp)
  8001f8:	d0a70f17 	ldw	r2,-25540(gp)
  8001fc:	10000726 	beq	r2,zero,80021c <alt_instruction_exception_entry+0x58>
  800200:	d0a70f17 	ldw	r2,-25540(gp)
  800204:	e0ffff17 	ldw	r3,-4(fp)
  800208:	e1bffe17 	ldw	r6,-8(fp)
  80020c:	e17ffd17 	ldw	r5,-12(fp)
  800210:	1809883a 	mov	r4,r3
  800214:	103ee83a 	callr	r2
  800218:	00000206 	br	800224 <alt_instruction_exception_entry+0x60>
  80021c:	003da03a 	break	0
  800220:	0005883a 	mov	r2,zero
  800224:	e037883a 	mov	sp,fp
  800228:	dfc00117 	ldw	ra,4(sp)
  80022c:	df000017 	ldw	fp,0(sp)
  800230:	dec00204 	addi	sp,sp,8
  800234:	f800283a 	ret

Disassembly of section .text:

00800238 <_start>:
  800238:	00820014 	movui	r2,2048
  80023c:	10000033 	initd	0(r2)
  800240:	10bff804 	addi	r2,r2,-32
  800244:	00bffd16 	blt	zero,r2,80023c <_start+0x4>
  800248:	06c04034 	movhi	sp,256
  80024c:	dec00014 	ori	sp,sp,0
  800250:	06802074 	movhi	gp,129
  800254:	d6aa2014 	ori	gp,gp,43136
  800258:	00802074 	movhi	r2,129
  80025c:	10912414 	ori	r2,r2,17552
  800260:	00c02074 	movhi	r3,129
  800264:	18d17a14 	ori	r3,r3,17896
  800268:	10c00326 	beq	r2,r3,800278 <_start+0x40>
  80026c:	10000015 	stw	zero,0(r2)
  800270:	10800104 	addi	r2,r2,4
  800274:	10fffd36 	bltu	r2,r3,80026c <_start+0x34>
  800278:	080e26c0 	call	80e26c <alt_load>
  80027c:	080e40c0 	call	80e40c <alt_main>

00800280 <alt_after_alt_main>:
  800280:	003fff06 	br	800280 <alt_after_alt_main>

00800284 <generateVector>:
  800284:	defffd04 	addi	sp,sp,-12
  800288:	dc400115 	stw	r17,4(sp)
  80028c:	04400434 	movhi	r17,16
  800290:	dc000015 	stw	r16,0(sp)
  800294:	dfc00215 	stw	ra,8(sp)
  800298:	8c7c0004 	addi	r17,r17,-4096
  80029c:	20000015 	stw	zero,0(r4)
  8002a0:	24000104 	addi	r16,r4,4
  8002a4:	2463883a 	add	r17,r4,r17
  8002a8:	0005883a 	mov	r2,zero
  8002ac:	00000106 	br	8002b4 <generateVector+0x30>
  8002b0:	84000104 	addi	r16,r16,4
  8002b4:	1009883a 	mov	r4,r2
  8002b8:	014ea034 	movhi	r5,14976
  8002bc:	08004ec0 	call	8004ec <__addsf3>
  8002c0:	80800015 	stw	r2,0(r16)
  8002c4:	847ffa1e 	bne	r16,r17,8002b0 <generateVector+0x2c>
  8002c8:	dfc00217 	ldw	ra,8(sp)
  8002cc:	dc400117 	ldw	r17,4(sp)
  8002d0:	dc000017 	ldw	r16,0(sp)
  8002d4:	dec00304 	addi	sp,sp,12
  8002d8:	f800283a 	ret

008002dc <sumVector>:
  8002dc:	defffb04 	addi	sp,sp,-20
  8002e0:	dfc00415 	stw	ra,16(sp)
  8002e4:	dcc00315 	stw	r19,12(sp)
  8002e8:	dc800215 	stw	r18,8(sp)
  8002ec:	dc400115 	stw	r17,4(sp)
  8002f0:	dc000015 	stw	r16,0(sp)
  8002f4:	0140190e 	bge	zero,r5,80035c <sumVector+0x80>
  8002f8:	280a90ba 	slli	r5,r5,2
  8002fc:	2021883a 	mov	r16,r4
  800300:	0023883a 	mov	r17,zero
  800304:	2167883a 	add	r19,r4,r5
  800308:	84800017 	ldw	r18,0(r16)
  80030c:	84000104 	addi	r16,r16,4
  800310:	900b883a 	mov	r5,r18
  800314:	9009883a 	mov	r4,r18
  800318:	08009480 	call	800948 <__mulsf3>
  80031c:	900b883a 	mov	r5,r18
  800320:	1009883a 	mov	r4,r2
  800324:	08004ec0 	call	8004ec <__addsf3>
  800328:	8809883a 	mov	r4,r17
  80032c:	100b883a 	mov	r5,r2
  800330:	08004ec0 	call	8004ec <__addsf3>
  800334:	1023883a 	mov	r17,r2
  800338:	9c3ff31e 	bne	r19,r16,800308 <sumVector+0x2c>
  80033c:	8805883a 	mov	r2,r17
  800340:	dfc00417 	ldw	ra,16(sp)
  800344:	dcc00317 	ldw	r19,12(sp)
  800348:	dc800217 	ldw	r18,8(sp)
  80034c:	dc400117 	ldw	r17,4(sp)
  800350:	dc000017 	ldw	r16,0(sp)
  800354:	dec00504 	addi	sp,sp,20
  800358:	f800283a 	ret
  80035c:	0023883a 	mov	r17,zero
  800360:	003ff606 	br	80033c <sumVector+0x60>

00800364 <main>:
  800364:	023ffc34 	movhi	r8,65520
  800368:	defff904 	addi	sp,sp,-28
  80036c:	4203fe04 	addi	r8,r8,4088
  800370:	01002074 	movhi	r4,129
  800374:	dfc00615 	stw	ra,24(sp)
  800378:	dc400115 	stw	r17,4(sp)
  80037c:	dc000015 	stw	r16,0(sp)
  800380:	dd400515 	stw	r21,20(sp)
  800384:	dd000415 	stw	r20,16(sp)
  800388:	dcc00315 	stw	r19,12(sp)
  80038c:	dc800215 	stw	r18,8(sp)
  800390:	21018f04 	addi	r4,r4,1596
  800394:	da37883a 	add	sp,sp,r8
  800398:	08010e80 	call	8010e8 <puts>
  80039c:	01002074 	movhi	r4,129
  8003a0:	21019104 	addi	r4,r4,1604
  8003a4:	01400044 	movi	r5,1
  8003a8:	0800fe40 	call	800fe4 <printf>
  8003ac:	00c00434 	movhi	r3,16
  8003b0:	d9000104 	addi	r4,sp,4
  8003b4:	00bffc34 	movhi	r2,65520
  8003b8:	18fc0104 	addi	r3,r3,-4092
  8003bc:	1083ff04 	addi	r2,r2,4092
  8003c0:	1907883a 	add	r3,r3,r4
  8003c4:	1885883a 	add	r2,r3,r2
  8003c8:	d8800015 	stw	r2,0(sp)
  8003cc:	10000015 	stw	zero,0(r2)
  8003d0:	14000104 	addi	r16,r2,4
  8003d4:	00800434 	movhi	r2,16
  8003d8:	10bc0004 	addi	r2,r2,-4096
  8003dc:	20a3883a 	add	r17,r4,r2
  8003e0:	0005883a 	mov	r2,zero
  8003e4:	00000106 	br	8003ec <main+0x88>
  8003e8:	84000104 	addi	r16,r16,4
  8003ec:	1009883a 	mov	r4,r2
  8003f0:	014ea034 	movhi	r5,14976
  8003f4:	08004ec0 	call	8004ec <__addsf3>
  8003f8:	80800015 	stw	r2,0(r16)
  8003fc:	847ffa1e 	bne	r16,r17,8003e8 <main+0x84>
  800400:	d8800017 	ldw	r2,0(sp)
  800404:	04c00434 	movhi	r19,16
  800408:	d5670d17 	ldw	r21,-25548(gp)
  80040c:	9cfc0104 	addi	r19,r19,-4092
  800410:	05000104 	movi	r20,4
  800414:	14e7883a 	add	r19,r2,r19
  800418:	dc000017 	ldw	r16,0(sp)
  80041c:	0025883a 	mov	r18,zero
  800420:	84400017 	ldw	r17,0(r16)
  800424:	84000104 	addi	r16,r16,4
  800428:	880b883a 	mov	r5,r17
  80042c:	8809883a 	mov	r4,r17
  800430:	08009480 	call	800948 <__mulsf3>
  800434:	880b883a 	mov	r5,r17
  800438:	1009883a 	mov	r4,r2
  80043c:	08004ec0 	call	8004ec <__addsf3>
  800440:	9009883a 	mov	r4,r18
  800444:	100b883a 	mov	r5,r2
  800448:	08004ec0 	call	8004ec <__addsf3>
  80044c:	1025883a 	mov	r18,r2
  800450:	9c3ff31e 	bne	r19,r16,800420 <main+0xbc>
  800454:	a53fffc4 	addi	r20,r20,-1
  800458:	a03fef1e 	bne	r20,zero,800418 <main+0xb4>
  80045c:	1009883a 	mov	r4,r2
  800460:	0800e3c0 	call	800e3c <__extendsfdf2>
  800464:	01002074 	movhi	r4,129
  800468:	d4270d17 	ldw	r16,-25548(gp)
  80046c:	180d883a 	mov	r6,r3
  800470:	100b883a 	mov	r5,r2
  800474:	21019604 	addi	r4,r4,1624
  800478:	0800fe40 	call	800fe4 <printf>
  80047c:	856bc83a 	sub	r21,r16,r21
  800480:	01002074 	movhi	r4,129
  800484:	a80b883a 	mov	r5,r21
  800488:	01800104 	movi	r6,4
  80048c:	21019904 	addi	r4,r4,1636
  800490:	0800fe40 	call	800fe4 <printf>
  800494:	a809883a 	mov	r4,r21
  800498:	0800d440 	call	800d44 <__floatunsisf>
  80049c:	1009883a 	mov	r4,r2
  8004a0:	0800e3c0 	call	800e3c <__extendsfdf2>
  8004a4:	01002074 	movhi	r4,129
  8004a8:	100b883a 	mov	r5,r2
  8004ac:	180d883a 	mov	r6,r3
  8004b0:	2101a104 	addi	r4,r4,1668
  8004b4:	0800fe40 	call	800fe4 <printf>
  8004b8:	0005883a 	mov	r2,zero
  8004bc:	02000434 	movhi	r8,16
  8004c0:	423c0204 	addi	r8,r8,-4088
  8004c4:	da37883a 	add	sp,sp,r8
  8004c8:	dfc00617 	ldw	ra,24(sp)
  8004cc:	dd400517 	ldw	r21,20(sp)
  8004d0:	dd000417 	ldw	r20,16(sp)
  8004d4:	dcc00317 	ldw	r19,12(sp)
  8004d8:	dc800217 	ldw	r18,8(sp)
  8004dc:	dc400117 	ldw	r17,4(sp)
  8004e0:	dc000017 	ldw	r16,0(sp)
  8004e4:	dec00704 	addi	sp,sp,28
  8004e8:	f800283a 	ret

008004ec <__addsf3>:
  8004ec:	280cd5fa 	srli	r6,r5,23
  8004f0:	2006d5fa 	srli	r3,r4,23
  8004f4:	2010d7fa 	srli	r8,r4,31
  8004f8:	01c02034 	movhi	r7,128
  8004fc:	2818d7fa 	srli	r12,r5,31
  800500:	defffc04 	addi	sp,sp,-16
  800504:	39ffffc4 	addi	r7,r7,-1
  800508:	3914703a 	and	r10,r7,r4
  80050c:	32403fcc 	andi	r9,r6,255
  800510:	dc800215 	stw	r18,8(sp)
  800514:	dc400115 	stw	r17,4(sp)
  800518:	395a703a 	and	r13,r7,r5
  80051c:	1c403fcc 	andi	r17,r3,255
  800520:	dfc00315 	stw	ra,12(sp)
  800524:	dc000015 	stw	r16,0(sp)
  800528:	501c90fa 	slli	r14,r10,3
  80052c:	681690fa 	slli	r11,r13,3
  800530:	500d883a 	mov	r6,r10
  800534:	4025883a 	mov	r18,r8
  800538:	8a45c83a 	sub	r2,r17,r9
  80053c:	43004b26 	beq	r8,r12,80066c <__addsf3+0x180>
  800540:	0080390e 	bge	zero,r2,800628 <__addsf3+0x13c>
  800544:	48006326 	beq	r9,zero,8006d4 <__addsf3+0x1e8>
  800548:	88c03fe0 	cmpeqi	r3,r17,255
  80054c:	1800401e 	bne	r3,zero,800650 <__addsf3+0x164>
  800550:	5ac10034 	orhi	r11,r11,1024
  800554:	10c00708 	cmpgei	r3,r2,28
  800558:	1800ab1e 	bne	r3,zero,800808 <__addsf3+0x31c>
  80055c:	01000804 	movi	r4,32
  800560:	2089c83a 	sub	r4,r4,r2
  800564:	5908983a 	sll	r4,r11,r4
  800568:	5884d83a 	srl	r2,r11,r2
  80056c:	2008c03a 	cmpne	r4,r4,zero
  800570:	1104b03a 	or	r2,r2,r4
  800574:	7085c83a 	sub	r2,r14,r2
  800578:	10c1002c 	andhi	r3,r2,1024
  80057c:	18008526 	beq	r3,zero,800794 <__addsf3+0x2a8>
  800580:	04010034 	movhi	r16,1024
  800584:	843fffc4 	addi	r16,r16,-1
  800588:	1420703a 	and	r16,r2,r16
  80058c:	8009883a 	mov	r4,r16
  800590:	0800f380 	call	800f38 <__clzsi2>
  800594:	10fffec4 	addi	r3,r2,-5
  800598:	80c4983a 	sll	r2,r16,r3
  80059c:	1c409516 	blt	r3,r17,8007f4 <__addsf3+0x308>
  8005a0:	1c47c83a 	sub	r3,r3,r17
  8005a4:	1c000044 	addi	r16,r3,1
  8005a8:	01000804 	movi	r4,32
  8005ac:	2409c83a 	sub	r4,r4,r16
  8005b0:	1108983a 	sll	r4,r2,r4
  8005b4:	1404d83a 	srl	r2,r2,r16
  8005b8:	0023883a 	mov	r17,zero
  8005bc:	2008c03a 	cmpne	r4,r4,zero
  8005c0:	1104b03a 	or	r2,r2,r4
  8005c4:	10c001cc 	andi	r3,r2,7
  8005c8:	18000426 	beq	r3,zero,8005dc <__addsf3+0xf0>
  8005cc:	10c003cc 	andi	r3,r2,15
  8005d0:	18c00120 	cmpeqi	r3,r3,4
  8005d4:	1800011e 	bne	r3,zero,8005dc <__addsf3+0xf0>
  8005d8:	10800104 	addi	r2,r2,4
  8005dc:	10c1002c 	andhi	r3,r2,1024
  8005e0:	18006e26 	beq	r3,zero,80079c <__addsf3+0x2b0>
  8005e4:	88c00044 	addi	r3,r17,1
  8005e8:	19003fe0 	cmpeqi	r4,r3,255
  8005ec:	20006d1e 	bne	r4,zero,8007a4 <__addsf3+0x2b8>
  8005f0:	100491ba 	slli	r2,r2,6
  8005f4:	100cd27a 	srli	r6,r2,9
  8005f8:	18803fcc 	andi	r2,r3,255
  8005fc:	100495fa 	slli	r2,r2,23
  800600:	94803fcc 	andi	r18,r18,255
  800604:	902497fa 	slli	r18,r18,31
  800608:	1184b03a 	or	r2,r2,r6
  80060c:	1484b03a 	or	r2,r2,r18
  800610:	dfc00317 	ldw	ra,12(sp)
  800614:	dc800217 	ldw	r18,8(sp)
  800618:	dc400117 	ldw	r17,4(sp)
  80061c:	dc000017 	ldw	r16,0(sp)
  800620:	dec00404 	addi	sp,sp,16
  800624:	f800283a 	ret
  800628:	10003026 	beq	r2,zero,8006ec <__addsf3+0x200>
  80062c:	4c49c83a 	sub	r4,r9,r17
  800630:	88007f1e 	bne	r17,zero,800830 <__addsf3+0x344>
  800634:	70003f26 	beq	r14,zero,800734 <__addsf3+0x248>
  800638:	213fffc4 	addi	r4,r4,-1
  80063c:	2000b326 	beq	r4,zero,80090c <__addsf3+0x420>
  800640:	48803fe0 	cmpeqi	r2,r9,255
  800644:	10007d26 	beq	r2,zero,80083c <__addsf3+0x350>
  800648:	6025883a 	mov	r18,r12
  80064c:	6815883a 	mov	r10,r13
  800650:	50005426 	beq	r10,zero,8007a4 <__addsf3+0x2b8>
  800654:	00802034 	movhi	r2,128
  800658:	51801034 	orhi	r6,r10,64
  80065c:	10bfffc4 	addi	r2,r2,-1
  800660:	308c703a 	and	r6,r6,r2
  800664:	00ffffc4 	movi	r3,-1
  800668:	003fe306 	br	8005f8 <__addsf3+0x10c>
  80066c:	0080500e 	bge	zero,r2,8007b0 <__addsf3+0x2c4>
  800670:	48002a26 	beq	r9,zero,80071c <__addsf3+0x230>
  800674:	88c03fe0 	cmpeqi	r3,r17,255
  800678:	183ff51e 	bne	r3,zero,800650 <__addsf3+0x164>
  80067c:	5ac10034 	orhi	r11,r11,1024
  800680:	10c00708 	cmpgei	r3,r2,28
  800684:	1800741e 	bne	r3,zero,800858 <__addsf3+0x36c>
  800688:	00c00804 	movi	r3,32
  80068c:	1887c83a 	sub	r3,r3,r2
  800690:	58c6983a 	sll	r3,r11,r3
  800694:	5884d83a 	srl	r2,r11,r2
  800698:	1806c03a 	cmpne	r3,r3,zero
  80069c:	10c4b03a 	or	r2,r2,r3
  8006a0:	1385883a 	add	r2,r2,r14
  8006a4:	10c1002c 	andhi	r3,r2,1024
  8006a8:	18003a26 	beq	r3,zero,800794 <__addsf3+0x2a8>
  8006ac:	8c400044 	addi	r17,r17,1
  8006b0:	88c03fe0 	cmpeqi	r3,r17,255
  8006b4:	18003b1e 	bne	r3,zero,8007a4 <__addsf3+0x2b8>
  8006b8:	1008d07a 	srli	r4,r2,1
  8006bc:	00df8034 	movhi	r3,32256
  8006c0:	18ffffc4 	addi	r3,r3,-1
  8006c4:	1080004c 	andi	r2,r2,1
  8006c8:	20c8703a 	and	r4,r4,r3
  8006cc:	2084b03a 	or	r2,r4,r2
  8006d0:	003fbc06 	br	8005c4 <__addsf3+0xd8>
  8006d4:	58001a26 	beq	r11,zero,800740 <__addsf3+0x254>
  8006d8:	10bfffc4 	addi	r2,r2,-1
  8006dc:	10007c26 	beq	r2,zero,8008d0 <__addsf3+0x3e4>
  8006e0:	88c03fe0 	cmpeqi	r3,r17,255
  8006e4:	183f9b26 	beq	r3,zero,800554 <__addsf3+0x68>
  8006e8:	003fd906 	br	800650 <__addsf3+0x164>
  8006ec:	88800044 	addi	r2,r17,1
  8006f0:	10803f8c 	andi	r2,r2,254
  8006f4:	1000461e 	bne	r2,zero,800810 <__addsf3+0x324>
  8006f8:	88006e1e 	bne	r17,zero,8008b4 <__addsf3+0x3c8>
  8006fc:	70007f26 	beq	r14,zero,8008fc <__addsf3+0x410>
  800700:	583fbd26 	beq	r11,zero,8005f8 <__addsf3+0x10c>
  800704:	72c5c83a 	sub	r2,r14,r11
  800708:	1101002c 	andhi	r4,r2,1024
  80070c:	20008326 	beq	r4,zero,80091c <__addsf3+0x430>
  800710:	5b85c83a 	sub	r2,r11,r14
  800714:	6025883a 	mov	r18,r12
  800718:	003faa06 	br	8005c4 <__addsf3+0xd8>
  80071c:	58000826 	beq	r11,zero,800740 <__addsf3+0x254>
  800720:	10bfffc4 	addi	r2,r2,-1
  800724:	10006826 	beq	r2,zero,8008c8 <__addsf3+0x3dc>
  800728:	88c03fe0 	cmpeqi	r3,r17,255
  80072c:	183fd426 	beq	r3,zero,800680 <__addsf3+0x194>
  800730:	003fc706 	br	800650 <__addsf3+0x164>
  800734:	6025883a 	mov	r18,r12
  800738:	6815883a 	mov	r10,r13
  80073c:	4823883a 	mov	r17,r9
  800740:	88803fe0 	cmpeqi	r2,r17,255
  800744:	103fc21e 	bne	r2,zero,800650 <__addsf3+0x164>
  800748:	00802034 	movhi	r2,128
  80074c:	10bfffc4 	addi	r2,r2,-1
  800750:	508c703a 	and	r6,r10,r2
  800754:	8807883a 	mov	r3,r17
  800758:	003fa706 	br	8005f8 <__addsf3+0x10c>
  80075c:	881f883a 	mov	r15,r17
  800760:	8c400044 	addi	r17,r17,1
  800764:	88803f8c 	andi	r2,r17,254
  800768:	10004a1e 	bne	r2,zero,800894 <__addsf3+0x3a8>
  80076c:	78005a1e 	bne	r15,zero,8008d8 <__addsf3+0x3ec>
  800770:	70006e26 	beq	r14,zero,80092c <__addsf3+0x440>
  800774:	583fa026 	beq	r11,zero,8005f8 <__addsf3+0x10c>
  800778:	72c5883a 	add	r2,r14,r11
  80077c:	10c1002c 	andhi	r3,r2,1024
  800780:	18006f26 	beq	r3,zero,800940 <__addsf3+0x454>
  800784:	00ff0034 	movhi	r3,64512
  800788:	18ffffc4 	addi	r3,r3,-1
  80078c:	10c4703a 	and	r2,r2,r3
  800790:	04400044 	movi	r17,1
  800794:	10c001cc 	andi	r3,r2,7
  800798:	183f8c1e 	bne	r3,zero,8005cc <__addsf3+0xe0>
  80079c:	1014d0fa 	srli	r10,r2,3
  8007a0:	003fe706 	br	800740 <__addsf3+0x254>
  8007a4:	00ffffc4 	movi	r3,-1
  8007a8:	000d883a 	mov	r6,zero
  8007ac:	003f9206 	br	8005f8 <__addsf3+0x10c>
  8007b0:	103fea26 	beq	r2,zero,80075c <__addsf3+0x270>
  8007b4:	4c49c83a 	sub	r4,r9,r17
  8007b8:	88003026 	beq	r17,zero,80087c <__addsf3+0x390>
  8007bc:	48803fe0 	cmpeqi	r2,r9,255
  8007c0:	103fa21e 	bne	r2,zero,80064c <__addsf3+0x160>
  8007c4:	73810034 	orhi	r14,r14,1024
  8007c8:	20800708 	cmpgei	r2,r4,28
  8007cc:	1000491e 	bne	r2,zero,8008f4 <__addsf3+0x408>
  8007d0:	00800804 	movi	r2,32
  8007d4:	1105c83a 	sub	r2,r2,r4
  8007d8:	7084983a 	sll	r2,r14,r2
  8007dc:	7108d83a 	srl	r4,r14,r4
  8007e0:	1004c03a 	cmpne	r2,r2,zero
  8007e4:	2088b03a 	or	r4,r4,r2
  8007e8:	22c5883a 	add	r2,r4,r11
  8007ec:	4823883a 	mov	r17,r9
  8007f0:	003fac06 	br	8006a4 <__addsf3+0x1b8>
  8007f4:	013f0034 	movhi	r4,64512
  8007f8:	213fffc4 	addi	r4,r4,-1
  8007fc:	88e3c83a 	sub	r17,r17,r3
  800800:	1104703a 	and	r2,r2,r4
  800804:	003f6f06 	br	8005c4 <__addsf3+0xd8>
  800808:	00800044 	movi	r2,1
  80080c:	003f5906 	br	800574 <__addsf3+0x88>
  800810:	72e1c83a 	sub	r16,r14,r11
  800814:	8081002c 	andhi	r2,r16,1024
  800818:	1000231e 	bne	r2,zero,8008a8 <__addsf3+0x3bc>
  80081c:	803f5b1e 	bne	r16,zero,80058c <__addsf3+0xa0>
  800820:	0025883a 	mov	r18,zero
  800824:	0007883a 	mov	r3,zero
  800828:	000d883a 	mov	r6,zero
  80082c:	003f7206 	br	8005f8 <__addsf3+0x10c>
  800830:	48803fe0 	cmpeqi	r2,r9,255
  800834:	103f841e 	bne	r2,zero,800648 <__addsf3+0x15c>
  800838:	73810034 	orhi	r14,r14,1024
  80083c:	20800708 	cmpgei	r2,r4,28
  800840:	10000726 	beq	r2,zero,800860 <__addsf3+0x374>
  800844:	01000044 	movi	r4,1
  800848:	5905c83a 	sub	r2,r11,r4
  80084c:	6025883a 	mov	r18,r12
  800850:	4823883a 	mov	r17,r9
  800854:	003f4806 	br	800578 <__addsf3+0x8c>
  800858:	00800044 	movi	r2,1
  80085c:	003f9006 	br	8006a0 <__addsf3+0x1b4>
  800860:	00800804 	movi	r2,32
  800864:	1105c83a 	sub	r2,r2,r4
  800868:	7084983a 	sll	r2,r14,r2
  80086c:	7108d83a 	srl	r4,r14,r4
  800870:	1004c03a 	cmpne	r2,r2,zero
  800874:	2088b03a 	or	r4,r4,r2
  800878:	003ff306 	br	800848 <__addsf3+0x35c>
  80087c:	703fae26 	beq	r14,zero,800738 <__addsf3+0x24c>
  800880:	213fffc4 	addi	r4,r4,-1
  800884:	20002b26 	beq	r4,zero,800934 <__addsf3+0x448>
  800888:	48803fe0 	cmpeqi	r2,r9,255
  80088c:	103fce26 	beq	r2,zero,8007c8 <__addsf3+0x2dc>
  800890:	003f6e06 	br	80064c <__addsf3+0x160>
  800894:	88803fe0 	cmpeqi	r2,r17,255
  800898:	103fc21e 	bne	r2,zero,8007a4 <__addsf3+0x2b8>
  80089c:	72c5883a 	add	r2,r14,r11
  8008a0:	1004d07a 	srli	r2,r2,1
  8008a4:	003fbb06 	br	800794 <__addsf3+0x2a8>
  8008a8:	5ba1c83a 	sub	r16,r11,r14
  8008ac:	6025883a 	mov	r18,r12
  8008b0:	003f3606 	br	80058c <__addsf3+0xa0>
  8008b4:	7000091e 	bne	r14,zero,8008dc <__addsf3+0x3f0>
  8008b8:	583f631e 	bne	r11,zero,800648 <__addsf3+0x15c>
  8008bc:	0025883a 	mov	r18,zero
  8008c0:	380d883a 	mov	r6,r7
  8008c4:	003f6706 	br	800664 <__addsf3+0x178>
  8008c8:	72c5883a 	add	r2,r14,r11
  8008cc:	003f7506 	br	8006a4 <__addsf3+0x1b8>
  8008d0:	72c5c83a 	sub	r2,r14,r11
  8008d4:	003f2806 	br	800578 <__addsf3+0x8c>
  8008d8:	703f5c26 	beq	r14,zero,80064c <__addsf3+0x160>
  8008dc:	583f5c26 	beq	r11,zero,800650 <__addsf3+0x164>
  8008e0:	20c0102c 	andhi	r3,r4,64
  8008e4:	183f5a26 	beq	r3,zero,800650 <__addsf3+0x164>
  8008e8:	2940102c 	andhi	r5,r5,64
  8008ec:	283f581e 	bne	r5,zero,800650 <__addsf3+0x164>
  8008f0:	003f5506 	br	800648 <__addsf3+0x15c>
  8008f4:	01000044 	movi	r4,1
  8008f8:	003fbb06 	br	8007e8 <__addsf3+0x2fc>
  8008fc:	58000826 	beq	r11,zero,800920 <__addsf3+0x434>
  800900:	6025883a 	mov	r18,r12
  800904:	680d883a 	mov	r6,r13
  800908:	003f3b06 	br	8005f8 <__addsf3+0x10c>
  80090c:	5b85c83a 	sub	r2,r11,r14
  800910:	6025883a 	mov	r18,r12
  800914:	4823883a 	mov	r17,r9
  800918:	003f1706 	br	800578 <__addsf3+0x8c>
  80091c:	103f9d1e 	bne	r2,zero,800794 <__addsf3+0x2a8>
  800920:	0025883a 	mov	r18,zero
  800924:	000d883a 	mov	r6,zero
  800928:	003f3306 	br	8005f8 <__addsf3+0x10c>
  80092c:	680d883a 	mov	r6,r13
  800930:	003f3106 	br	8005f8 <__addsf3+0x10c>
  800934:	72c5883a 	add	r2,r14,r11
  800938:	4823883a 	mov	r17,r9
  80093c:	003f5906 	br	8006a4 <__addsf3+0x1b8>
  800940:	0023883a 	mov	r17,zero
  800944:	003f9306 	br	800794 <__addsf3+0x2a8>

00800948 <__mulsf3>:
  800948:	defff504 	addi	sp,sp,-44
  80094c:	dc400215 	stw	r17,8(sp)
  800950:	2022d5fa 	srli	r17,r4,23
  800954:	dc000115 	stw	r16,4(sp)
  800958:	04002034 	movhi	r16,128
  80095c:	dd800715 	stw	r22,28(sp)
  800960:	843fffc4 	addi	r16,r16,-1
  800964:	dfc00a15 	stw	ra,40(sp)
  800968:	df000915 	stw	fp,36(sp)
  80096c:	ddc00815 	stw	r23,32(sp)
  800970:	dd400615 	stw	r21,24(sp)
  800974:	dd000515 	stw	r20,20(sp)
  800978:	dcc00415 	stw	r19,16(sp)
  80097c:	dc800315 	stw	r18,12(sp)
  800980:	8c403fcc 	andi	r17,r17,255
  800984:	202cd7fa 	srli	r22,r4,31
  800988:	8120703a 	and	r16,r16,r4
  80098c:	88005026 	beq	r17,zero,800ad0 <__mulsf3+0x188>
  800990:	88803fe0 	cmpeqi	r2,r17,255
  800994:	1000531e 	bne	r2,zero,800ae4 <__mulsf3+0x19c>
  800998:	802090fa 	slli	r16,r16,3
  80099c:	8c7fe044 	addi	r17,r17,-127
  8009a0:	0025883a 	mov	r18,zero
  8009a4:	84010034 	orhi	r16,r16,1024
  8009a8:	0029883a 	mov	r20,zero
  8009ac:	2804d5fa 	srli	r2,r5,23
  8009b0:	01002034 	movhi	r4,128
  8009b4:	213fffc4 	addi	r4,r4,-1
  8009b8:	10803fcc 	andi	r2,r2,255
  8009bc:	282ed7fa 	srli	r23,r5,31
  8009c0:	2166703a 	and	r19,r4,r5
  8009c4:	10004c26 	beq	r2,zero,800af8 <__mulsf3+0x1b0>
  8009c8:	10c03fe0 	cmpeqi	r3,r2,255
  8009cc:	18001e1e 	bne	r3,zero,800a48 <__mulsf3+0x100>
  8009d0:	980890fa 	slli	r4,r19,3
  8009d4:	10bfe044 	addi	r2,r2,-127
  8009d8:	88a3883a 	add	r17,r17,r2
  8009dc:	24c10034 	orhi	r19,r4,1024
  8009e0:	0007883a 	mov	r3,zero
  8009e4:	90800428 	cmpgeui	r2,r18,16
  8009e8:	b5eaf03a 	xor	r21,r22,r23
  8009ec:	8f000044 	addi	fp,r17,1
  8009f0:	1000481e 	bne	r2,zero,800b14 <__mulsf3+0x1cc>
  8009f4:	902490ba 	slli	r18,r18,2
  8009f8:	00802034 	movhi	r2,128
  8009fc:	9085883a 	add	r2,r18,r2
  800a00:	10828217 	ldw	r2,2568(r2)
  800a04:	1000683a 	jmp	r2
  800a08:	00800b14 	movui	r2,44
  800a0c:	00800a60 	cmpeqi	r2,zero,41
  800a10:	00800a60 	cmpeqi	r2,zero,41
  800a14:	00800a5c 	xori	r2,zero,41
  800a18:	00800a68 	cmpgeui	r2,zero,41
  800a1c:	00800a68 	cmpgeui	r2,zero,41
  800a20:	00800c74 	movhi	r2,49
  800a24:	00800a5c 	xori	r2,zero,41
  800a28:	00800a68 	cmpgeui	r2,zero,41
  800a2c:	00800c74 	movhi	r2,49
  800a30:	00800a68 	cmpgeui	r2,zero,41
  800a34:	00800a5c 	xori	r2,zero,41
  800a38:	00800c04 	movi	r2,48
  800a3c:	00800c04 	movi	r2,48
  800a40:	00800c04 	movi	r2,48
  800a44:	00800cd8 	cmpnei	r2,zero,51
  800a48:	8c403fc4 	addi	r17,r17,255
  800a4c:	98006f1e 	bne	r19,zero,800c0c <__mulsf3+0x2c4>
  800a50:	94800094 	ori	r18,r18,2
  800a54:	00c00084 	movi	r3,2
  800a58:	003fe206 	br	8009e4 <__mulsf3+0x9c>
  800a5c:	b82b883a 	mov	r21,r23
  800a60:	9821883a 	mov	r16,r19
  800a64:	1829883a 	mov	r20,r3
  800a68:	a08000a0 	cmpeqi	r2,r20,2
  800a6c:	1000261e 	bne	r2,zero,800b08 <__mulsf3+0x1c0>
  800a70:	a08000e0 	cmpeqi	r2,r20,3
  800a74:	1000ae1e 	bne	r2,zero,800d30 <__mulsf3+0x3e8>
  800a78:	a0800060 	cmpeqi	r2,r20,1
  800a7c:	10004e26 	beq	r2,zero,800bb8 <__mulsf3+0x270>
  800a80:	0007883a 	mov	r3,zero
  800a84:	0009883a 	mov	r4,zero
  800a88:	1c003fcc 	andi	r16,r3,255
  800a8c:	a8803fcc 	andi	r2,r21,255
  800a90:	802095fa 	slli	r16,r16,23
  800a94:	100497fa 	slli	r2,r2,31
  800a98:	8120b03a 	or	r16,r16,r4
  800a9c:	8084b03a 	or	r2,r16,r2
  800aa0:	dfc00a17 	ldw	ra,40(sp)
  800aa4:	df000917 	ldw	fp,36(sp)
  800aa8:	ddc00817 	ldw	r23,32(sp)
  800aac:	dd800717 	ldw	r22,28(sp)
  800ab0:	dd400617 	ldw	r21,24(sp)
  800ab4:	dd000517 	ldw	r20,20(sp)
  800ab8:	dcc00417 	ldw	r19,16(sp)
  800abc:	dc800317 	ldw	r18,12(sp)
  800ac0:	dc400217 	ldw	r17,8(sp)
  800ac4:	dc000117 	ldw	r16,4(sp)
  800ac8:	dec00b04 	addi	sp,sp,44
  800acc:	f800283a 	ret
  800ad0:	80005d1e 	bne	r16,zero,800c48 <__mulsf3+0x300>
  800ad4:	04800104 	movi	r18,4
  800ad8:	0023883a 	mov	r17,zero
  800adc:	05000044 	movi	r20,1
  800ae0:	003fb206 	br	8009ac <__mulsf3+0x64>
  800ae4:	8000541e 	bne	r16,zero,800c38 <__mulsf3+0x2f0>
  800ae8:	04800204 	movi	r18,8
  800aec:	04403fc4 	movi	r17,255
  800af0:	05000084 	movi	r20,2
  800af4:	003fad06 	br	8009ac <__mulsf3+0x64>
  800af8:	9800471e 	bne	r19,zero,800c18 <__mulsf3+0x2d0>
  800afc:	94800054 	ori	r18,r18,1
  800b00:	00c00044 	movi	r3,1
  800b04:	003fb706 	br	8009e4 <__mulsf3+0x9c>
  800b08:	00ffffc4 	movi	r3,-1
  800b0c:	0009883a 	mov	r4,zero
  800b10:	003fdd06 	br	800a88 <__mulsf3+0x140>
  800b14:	8028d43a 	srli	r20,r16,16
  800b18:	9cbfffcc 	andi	r18,r19,65535
  800b1c:	843fffcc 	andi	r16,r16,65535
  800b20:	900b883a 	mov	r5,r18
  800b24:	8009883a 	mov	r4,r16
  800b28:	0800f8c0 	call	800f8c <__mulsi3>
  800b2c:	9826d43a 	srli	r19,r19,16
  800b30:	900b883a 	mov	r5,r18
  800b34:	a009883a 	mov	r4,r20
  800b38:	1025883a 	mov	r18,r2
  800b3c:	0800f8c0 	call	800f8c <__mulsi3>
  800b40:	980b883a 	mov	r5,r19
  800b44:	a009883a 	mov	r4,r20
  800b48:	1029883a 	mov	r20,r2
  800b4c:	0800f8c0 	call	800f8c <__mulsi3>
  800b50:	9809883a 	mov	r4,r19
  800b54:	800b883a 	mov	r5,r16
  800b58:	1027883a 	mov	r19,r2
  800b5c:	0800f8c0 	call	800f8c <__mulsi3>
  800b60:	9006d43a 	srli	r3,r18,16
  800b64:	1505883a 	add	r2,r2,r20
  800b68:	1887883a 	add	r3,r3,r2
  800b6c:	1d00022e 	bgeu	r3,r20,800b78 <__mulsf3+0x230>
  800b70:	00800074 	movhi	r2,1
  800b74:	98a7883a 	add	r19,r19,r2
  800b78:	1808943a 	slli	r4,r3,16
  800b7c:	1820d43a 	srli	r16,r3,16
  800b80:	94bfffcc 	andi	r18,r18,65535
  800b84:	2489883a 	add	r4,r4,r18
  800b88:	200a91ba 	slli	r5,r4,6
  800b8c:	84e1883a 	add	r16,r16,r19
  800b90:	802091ba 	slli	r16,r16,6
  800b94:	2008d6ba 	srli	r4,r4,26
  800b98:	2804c03a 	cmpne	r2,r5,zero
  800b9c:	80c2002c 	andhi	r3,r16,2048
  800ba0:	1108b03a 	or	r4,r2,r4
  800ba4:	8120b03a 	or	r16,r16,r4
  800ba8:	18005b26 	beq	r3,zero,800d18 <__mulsf3+0x3d0>
  800bac:	8004d07a 	srli	r2,r16,1
  800bb0:	8400004c 	andi	r16,r16,1
  800bb4:	1420b03a 	or	r16,r2,r16
  800bb8:	e0c01fc4 	addi	r3,fp,127
  800bbc:	00c0320e 	bge	zero,r3,800c88 <__mulsf3+0x340>
  800bc0:	808001cc 	andi	r2,r16,7
  800bc4:	10000426 	beq	r2,zero,800bd8 <__mulsf3+0x290>
  800bc8:	808003cc 	andi	r2,r16,15
  800bcc:	10800120 	cmpeqi	r2,r2,4
  800bd0:	1000011e 	bne	r2,zero,800bd8 <__mulsf3+0x290>
  800bd4:	84000104 	addi	r16,r16,4
  800bd8:	8082002c 	andhi	r2,r16,2048
  800bdc:	10000426 	beq	r2,zero,800bf0 <__mulsf3+0x2a8>
  800be0:	00be0034 	movhi	r2,63488
  800be4:	10bfffc4 	addi	r2,r2,-1
  800be8:	80a0703a 	and	r16,r16,r2
  800bec:	e0c02004 	addi	r3,fp,128
  800bf0:	18803fc8 	cmpgei	r2,r3,255
  800bf4:	103fc41e 	bne	r2,zero,800b08 <__mulsf3+0x1c0>
  800bf8:	802091ba 	slli	r16,r16,6
  800bfc:	8008d27a 	srli	r4,r16,9
  800c00:	003fa106 	br	800a88 <__mulsf3+0x140>
  800c04:	b02b883a 	mov	r21,r22
  800c08:	003f9706 	br	800a68 <__mulsf3+0x120>
  800c0c:	948000d4 	ori	r18,r18,3
  800c10:	00c000c4 	movi	r3,3
  800c14:	003f7306 	br	8009e4 <__mulsf3+0x9c>
  800c18:	9809883a 	mov	r4,r19
  800c1c:	0800f380 	call	800f38 <__clzsi2>
  800c20:	10fffec4 	addi	r3,r2,-5
  800c24:	88a3c83a 	sub	r17,r17,r2
  800c28:	98e6983a 	sll	r19,r19,r3
  800c2c:	8c7fe284 	addi	r17,r17,-118
  800c30:	0007883a 	mov	r3,zero
  800c34:	003f6b06 	br	8009e4 <__mulsf3+0x9c>
  800c38:	04800304 	movi	r18,12
  800c3c:	04403fc4 	movi	r17,255
  800c40:	050000c4 	movi	r20,3
  800c44:	003f5906 	br	8009ac <__mulsf3+0x64>
  800c48:	8009883a 	mov	r4,r16
  800c4c:	d9400015 	stw	r5,0(sp)
  800c50:	0800f380 	call	800f38 <__clzsi2>
  800c54:	10fffec4 	addi	r3,r2,-5
  800c58:	047fe284 	movi	r17,-118
  800c5c:	80e0983a 	sll	r16,r16,r3
  800c60:	d9400017 	ldw	r5,0(sp)
  800c64:	88a3c83a 	sub	r17,r17,r2
  800c68:	0025883a 	mov	r18,zero
  800c6c:	0029883a 	mov	r20,zero
  800c70:	003f4e06 	br	8009ac <__mulsf3+0x64>
  800c74:	01002034 	movhi	r4,128
  800c78:	002b883a 	mov	r21,zero
  800c7c:	213fffc4 	addi	r4,r4,-1
  800c80:	00ffffc4 	movi	r3,-1
  800c84:	003f8006 	br	800a88 <__mulsf3+0x140>
  800c88:	00800044 	movi	r2,1
  800c8c:	10c7c83a 	sub	r3,r2,r3
  800c90:	18800708 	cmpgei	r2,r3,28
  800c94:	103f7a1e 	bne	r2,zero,800a80 <__mulsf3+0x138>
  800c98:	e1002784 	addi	r4,fp,158
  800c9c:	8108983a 	sll	r4,r16,r4
  800ca0:	80e0d83a 	srl	r16,r16,r3
  800ca4:	2008c03a 	cmpne	r4,r4,zero
  800ca8:	8120b03a 	or	r16,r16,r4
  800cac:	808001cc 	andi	r2,r16,7
  800cb0:	10000426 	beq	r2,zero,800cc4 <__mulsf3+0x37c>
  800cb4:	808003cc 	andi	r2,r16,15
  800cb8:	10800120 	cmpeqi	r2,r2,4
  800cbc:	1000011e 	bne	r2,zero,800cc4 <__mulsf3+0x37c>
  800cc0:	84000104 	addi	r16,r16,4
  800cc4:	8081002c 	andhi	r2,r16,1024
  800cc8:	10001526 	beq	r2,zero,800d20 <__mulsf3+0x3d8>
  800ccc:	00c00044 	movi	r3,1
  800cd0:	0009883a 	mov	r4,zero
  800cd4:	003f6c06 	br	800a88 <__mulsf3+0x140>
  800cd8:	8080102c 	andhi	r2,r16,64
  800cdc:	10000826 	beq	r2,zero,800d00 <__mulsf3+0x3b8>
  800ce0:	9880102c 	andhi	r2,r19,64
  800ce4:	1000061e 	bne	r2,zero,800d00 <__mulsf3+0x3b8>
  800ce8:	00802034 	movhi	r2,128
  800cec:	99001034 	orhi	r4,r19,64
  800cf0:	10bfffc4 	addi	r2,r2,-1
  800cf4:	2088703a 	and	r4,r4,r2
  800cf8:	b82b883a 	mov	r21,r23
  800cfc:	003fe006 	br	800c80 <__mulsf3+0x338>
  800d00:	00802034 	movhi	r2,128
  800d04:	81001034 	orhi	r4,r16,64
  800d08:	10bfffc4 	addi	r2,r2,-1
  800d0c:	2088703a 	and	r4,r4,r2
  800d10:	b02b883a 	mov	r21,r22
  800d14:	003fda06 	br	800c80 <__mulsf3+0x338>
  800d18:	8839883a 	mov	fp,r17
  800d1c:	003fa606 	br	800bb8 <__mulsf3+0x270>
  800d20:	802091ba 	slli	r16,r16,6
  800d24:	0007883a 	mov	r3,zero
  800d28:	8008d27a 	srli	r4,r16,9
  800d2c:	003f5606 	br	800a88 <__mulsf3+0x140>
  800d30:	00802034 	movhi	r2,128
  800d34:	81001034 	orhi	r4,r16,64
  800d38:	10bfffc4 	addi	r2,r2,-1
  800d3c:	2088703a 	and	r4,r4,r2
  800d40:	003fcf06 	br	800c80 <__mulsf3+0x338>

00800d44 <__floatunsisf>:
  800d44:	defffe04 	addi	sp,sp,-8
  800d48:	dfc00115 	stw	ra,4(sp)
  800d4c:	dc000015 	stw	r16,0(sp)
  800d50:	20000f26 	beq	r4,zero,800d90 <__floatunsisf+0x4c>
  800d54:	2021883a 	mov	r16,r4
  800d58:	0800f380 	call	800f38 <__clzsi2>
  800d5c:	100b883a 	mov	r5,r2
  800d60:	00802784 	movi	r2,158
  800d64:	1145c83a 	sub	r2,r2,r5
  800d68:	10c025c8 	cmpgei	r3,r2,151
  800d6c:	1800111e 	bne	r3,zero,800db4 <__floatunsisf+0x70>
  800d70:	28c00248 	cmpgei	r3,r5,9
  800d74:	18002d26 	beq	r3,zero,800e2c <__floatunsisf+0xe8>
  800d78:	297ffe04 	addi	r5,r5,-8
  800d7c:	8160983a 	sll	r16,r16,r5
  800d80:	00c02034 	movhi	r3,128
  800d84:	18ffffc4 	addi	r3,r3,-1
  800d88:	80e0703a 	and	r16,r16,r3
  800d8c:	00000206 	br	800d98 <__floatunsisf+0x54>
  800d90:	0005883a 	mov	r2,zero
  800d94:	0021883a 	mov	r16,zero
  800d98:	10803fcc 	andi	r2,r2,255
  800d9c:	100495fa 	slli	r2,r2,23
  800da0:	1404b03a 	or	r2,r2,r16
  800da4:	dfc00117 	ldw	ra,4(sp)
  800da8:	dc000017 	ldw	r16,0(sp)
  800dac:	dec00204 	addi	sp,sp,8
  800db0:	f800283a 	ret
  800db4:	10c02690 	cmplti	r3,r2,154
  800db8:	1800071e 	bne	r3,zero,800dd8 <__floatunsisf+0x94>
  800dbc:	290006c4 	addi	r4,r5,27
  800dc0:	8106983a 	sll	r3,r16,r4
  800dc4:	01000144 	movi	r4,5
  800dc8:	2149c83a 	sub	r4,r4,r5
  800dcc:	8120d83a 	srl	r16,r16,r4
  800dd0:	1808c03a 	cmpne	r4,r3,zero
  800dd4:	2420b03a 	or	r16,r4,r16
  800dd8:	28c00190 	cmplti	r3,r5,6
  800ddc:	1800021e 	bne	r3,zero,800de8 <__floatunsisf+0xa4>
  800de0:	28fffec4 	addi	r3,r5,-5
  800de4:	80e0983a 	sll	r16,r16,r3
  800de8:	01bf0034 	movhi	r6,64512
  800dec:	31bfffc4 	addi	r6,r6,-1
  800df0:	80c001cc 	andi	r3,r16,7
  800df4:	8188703a 	and	r4,r16,r6
  800df8:	18000926 	beq	r3,zero,800e20 <__floatunsisf+0xdc>
  800dfc:	80c003cc 	andi	r3,r16,15
  800e00:	18c00120 	cmpeqi	r3,r3,4
  800e04:	1800061e 	bne	r3,zero,800e20 <__floatunsisf+0xdc>
  800e08:	21000104 	addi	r4,r4,4
  800e0c:	20c1002c 	andhi	r3,r4,1024
  800e10:	18000326 	beq	r3,zero,800e20 <__floatunsisf+0xdc>
  800e14:	00c027c4 	movi	r3,159
  800e18:	2188703a 	and	r4,r4,r6
  800e1c:	1945c83a 	sub	r2,r3,r5
  800e20:	202091ba 	slli	r16,r4,6
  800e24:	8020d27a 	srli	r16,r16,9
  800e28:	003fdb06 	br	800d98 <__floatunsisf+0x54>
  800e2c:	01002034 	movhi	r4,128
  800e30:	213fffc4 	addi	r4,r4,-1
  800e34:	8120703a 	and	r16,r16,r4
  800e38:	003fd706 	br	800d98 <__floatunsisf+0x54>

00800e3c <__extendsfdf2>:
  800e3c:	200ad5fa 	srli	r5,r4,23
  800e40:	defffd04 	addi	sp,sp,-12
  800e44:	dc000015 	stw	r16,0(sp)
  800e48:	29403fcc 	andi	r5,r5,255
  800e4c:	04002034 	movhi	r16,128
  800e50:	28800044 	addi	r2,r5,1
  800e54:	dc400115 	stw	r17,4(sp)
  800e58:	843fffc4 	addi	r16,r16,-1
  800e5c:	dfc00215 	stw	ra,8(sp)
  800e60:	10803f8c 	andi	r2,r2,254
  800e64:	2022d7fa 	srli	r17,r4,31
  800e68:	8120703a 	and	r16,r16,r4
  800e6c:	10000d26 	beq	r2,zero,800ea4 <__extendsfdf2+0x68>
  800e70:	8008d0fa 	srli	r4,r16,3
  800e74:	8020977a 	slli	r16,r16,29
  800e78:	28c0e004 	addi	r3,r5,896
  800e7c:	180a953a 	slli	r5,r3,20
  800e80:	880697fa 	slli	r3,r17,31
  800e84:	8005883a 	mov	r2,r16
  800e88:	290ab03a 	or	r5,r5,r4
  800e8c:	28c6b03a 	or	r3,r5,r3
  800e90:	dfc00217 	ldw	ra,8(sp)
  800e94:	dc400117 	ldw	r17,4(sp)
  800e98:	dc000017 	ldw	r16,0(sp)
  800e9c:	dec00304 	addi	sp,sp,12
  800ea0:	f800283a 	ret
  800ea4:	2800111e 	bne	r5,zero,800eec <__extendsfdf2+0xb0>
  800ea8:	80001926 	beq	r16,zero,800f10 <__extendsfdf2+0xd4>
  800eac:	8009883a 	mov	r4,r16
  800eb0:	0800f380 	call	800f38 <__clzsi2>
  800eb4:	10c002c8 	cmpgei	r3,r2,11
  800eb8:	18001b1e 	bne	r3,zero,800f28 <__extendsfdf2+0xec>
  800ebc:	010002c4 	movi	r4,11
  800ec0:	2089c83a 	sub	r4,r4,r2
  800ec4:	10c00544 	addi	r3,r2,21
  800ec8:	810ad83a 	srl	r5,r16,r4
  800ecc:	80e0983a 	sll	r16,r16,r3
  800ed0:	00c0e244 	movi	r3,905
  800ed4:	01000434 	movhi	r4,16
  800ed8:	213fffc4 	addi	r4,r4,-1
  800edc:	1885c83a 	sub	r2,r3,r2
  800ee0:	2908703a 	and	r4,r5,r4
  800ee4:	10c1ffcc 	andi	r3,r2,2047
  800ee8:	003fe406 	br	800e7c <__extendsfdf2+0x40>
  800eec:	80000b26 	beq	r16,zero,800f1c <__extendsfdf2+0xe0>
  800ef0:	800ad0fa 	srli	r5,r16,3
  800ef4:	00800434 	movhi	r2,16
  800ef8:	10bfffc4 	addi	r2,r2,-1
  800efc:	29000234 	orhi	r4,r5,8
  800f00:	8020977a 	slli	r16,r16,29
  800f04:	2088703a 	and	r4,r4,r2
  800f08:	00c1ffc4 	movi	r3,2047
  800f0c:	003fdb06 	br	800e7c <__extendsfdf2+0x40>
  800f10:	0007883a 	mov	r3,zero
  800f14:	0009883a 	mov	r4,zero
  800f18:	003fd806 	br	800e7c <__extendsfdf2+0x40>
  800f1c:	00c1ffc4 	movi	r3,2047
  800f20:	0009883a 	mov	r4,zero
  800f24:	003fd506 	br	800e7c <__extendsfdf2+0x40>
  800f28:	113ffd44 	addi	r4,r2,-11
  800f2c:	810a983a 	sll	r5,r16,r4
  800f30:	0021883a 	mov	r16,zero
  800f34:	003fe606 	br	800ed0 <__extendsfdf2+0x94>

00800f38 <__clzsi2>:
  800f38:	00bfffd4 	movui	r2,65535
  800f3c:	11000436 	bltu	r2,r4,800f50 <__clzsi2+0x18>
  800f40:	20804030 	cmpltui	r2,r4,256
  800f44:	10000e26 	beq	r2,zero,800f80 <__clzsi2+0x48>
  800f48:	01400804 	movi	r5,32
  800f4c:	00000406 	br	800f60 <__clzsi2+0x28>
  800f50:	00804034 	movhi	r2,256
  800f54:	20800736 	bltu	r4,r2,800f74 <__clzsi2+0x3c>
  800f58:	2008d63a 	srli	r4,r4,24
  800f5c:	01400204 	movi	r5,8
  800f60:	00c02074 	movhi	r3,129
  800f64:	20c7883a 	add	r3,r4,r3
  800f68:	1881a503 	ldbu	r2,1684(r3)
  800f6c:	2885c83a 	sub	r2,r5,r2
  800f70:	f800283a 	ret
  800f74:	2008d43a 	srli	r4,r4,16
  800f78:	01400404 	movi	r5,16
  800f7c:	003ff806 	br	800f60 <__clzsi2+0x28>
  800f80:	2008d23a 	srli	r4,r4,8
  800f84:	01400604 	movi	r5,24
  800f88:	003ff506 	br	800f60 <__clzsi2+0x28>

00800f8c <__mulsi3>:
  800f8c:	0005883a 	mov	r2,zero
  800f90:	20000726 	beq	r4,zero,800fb0 <__mulsi3+0x24>
  800f94:	20c0004c 	andi	r3,r4,1
  800f98:	2008d07a 	srli	r4,r4,1
  800f9c:	18000126 	beq	r3,zero,800fa4 <__mulsi3+0x18>
  800fa0:	1145883a 	add	r2,r2,r5
  800fa4:	294b883a 	add	r5,r5,r5
  800fa8:	203ffa1e 	bne	r4,zero,800f94 <__mulsi3+0x8>
  800fac:	f800283a 	ret
  800fb0:	f800283a 	ret

00800fb4 <_printf_r>:
  800fb4:	defffd04 	addi	sp,sp,-12
  800fb8:	2805883a 	mov	r2,r5
  800fbc:	dfc00015 	stw	ra,0(sp)
  800fc0:	d9800115 	stw	r6,4(sp)
  800fc4:	d9c00215 	stw	r7,8(sp)
  800fc8:	21400217 	ldw	r5,8(r4)
  800fcc:	d9c00104 	addi	r7,sp,4
  800fd0:	100d883a 	mov	r6,r2
  800fd4:	08011900 	call	801190 <___vfprintf_internal_r>
  800fd8:	dfc00017 	ldw	ra,0(sp)
  800fdc:	dec00304 	addi	sp,sp,12
  800fe0:	f800283a 	ret

00800fe4 <printf>:
  800fe4:	defffc04 	addi	sp,sp,-16
  800fe8:	dfc00015 	stw	ra,0(sp)
  800fec:	d9400115 	stw	r5,4(sp)
  800ff0:	d9800215 	stw	r6,8(sp)
  800ff4:	d9c00315 	stw	r7,12(sp)
  800ff8:	00802074 	movhi	r2,129
  800ffc:	108a2117 	ldw	r2,10372(r2)
  801000:	200b883a 	mov	r5,r4
  801004:	d9800104 	addi	r6,sp,4
  801008:	11000217 	ldw	r4,8(r2)
  80100c:	080327c0 	call	80327c <__vfprintf_internal>
  801010:	dfc00017 	ldw	ra,0(sp)
  801014:	dec00404 	addi	sp,sp,16
  801018:	f800283a 	ret

0080101c <_puts_r>:
  80101c:	defff504 	addi	sp,sp,-44
  801020:	dc000815 	stw	r16,32(sp)
  801024:	2021883a 	mov	r16,r4
  801028:	2809883a 	mov	r4,r5
  80102c:	dc400915 	stw	r17,36(sp)
  801030:	dfc00a15 	stw	ra,40(sp)
  801034:	2823883a 	mov	r17,r5
  801038:	08010f80 	call	8010f8 <strlen>
  80103c:	11000044 	addi	r4,r2,1
  801040:	d8800515 	stw	r2,20(sp)
  801044:	00800044 	movi	r2,1
  801048:	00c02074 	movhi	r3,129
  80104c:	d8800715 	stw	r2,28(sp)
  801050:	d8800404 	addi	r2,sp,16
  801054:	18c19504 	addi	r3,r3,1620
  801058:	d8800115 	stw	r2,4(sp)
  80105c:	00800084 	movi	r2,2
  801060:	dc400415 	stw	r17,16(sp)
  801064:	d8c00615 	stw	r3,24(sp)
  801068:	d9000315 	stw	r4,12(sp)
  80106c:	d8800215 	stw	r2,8(sp)
  801070:	81400217 	ldw	r5,8(r16)
  801074:	80000226 	beq	r16,zero,801080 <_puts_r+0x64>
  801078:	80800e17 	ldw	r2,56(r16)
  80107c:	10001326 	beq	r2,zero,8010cc <_puts_r+0xb0>
  801080:	2880030b 	ldhu	r2,12(r5)
  801084:	10c8000c 	andi	r3,r2,8192
  801088:	1800061e 	bne	r3,zero,8010a4 <_puts_r+0x88>
  80108c:	28c01917 	ldw	r3,100(r5)
  801090:	0137ffc4 	movi	r4,-8193
  801094:	10880014 	ori	r2,r2,8192
  801098:	1906703a 	and	r3,r3,r4
  80109c:	2880030d 	sth	r2,12(r5)
  8010a0:	28c01915 	stw	r3,100(r5)
  8010a4:	d9800104 	addi	r6,sp,4
  8010a8:	8009883a 	mov	r4,r16
  8010ac:	08058400 	call	805840 <__sfvwrite_r>
  8010b0:	10000b1e 	bne	r2,zero,8010e0 <_puts_r+0xc4>
  8010b4:	00800284 	movi	r2,10
  8010b8:	dfc00a17 	ldw	ra,40(sp)
  8010bc:	dc400917 	ldw	r17,36(sp)
  8010c0:	dc000817 	ldw	r16,32(sp)
  8010c4:	dec00b04 	addi	sp,sp,44
  8010c8:	f800283a 	ret
  8010cc:	8009883a 	mov	r4,r16
  8010d0:	d9400015 	stw	r5,0(sp)
  8010d4:	08053e00 	call	8053e0 <__sinit>
  8010d8:	d9400017 	ldw	r5,0(sp)
  8010dc:	003fe806 	br	801080 <_puts_r+0x64>
  8010e0:	00bfffc4 	movi	r2,-1
  8010e4:	003ff406 	br	8010b8 <_puts_r+0x9c>

008010e8 <puts>:
  8010e8:	00802074 	movhi	r2,129
  8010ec:	200b883a 	mov	r5,r4
  8010f0:	110a2117 	ldw	r4,10372(r2)
  8010f4:	080101c1 	jmpi	80101c <_puts_r>

008010f8 <strlen>:
  8010f8:	208000cc 	andi	r2,r4,3
  8010fc:	10000926 	beq	r2,zero,801124 <strlen+0x2c>
  801100:	2005883a 	mov	r2,r4
  801104:	00000306 	br	801114 <strlen+0x1c>
  801108:	10800044 	addi	r2,r2,1
  80110c:	10c000cc 	andi	r3,r2,3
  801110:	18000526 	beq	r3,zero,801128 <strlen+0x30>
  801114:	10c00007 	ldb	r3,0(r2)
  801118:	183ffb1e 	bne	r3,zero,801108 <strlen+0x10>
  80111c:	1105c83a 	sub	r2,r2,r4
  801120:	f800283a 	ret
  801124:	2005883a 	mov	r2,r4
  801128:	11400017 	ldw	r5,0(r2)
  80112c:	01ffbff4 	movhi	r7,65279
  801130:	39ffbfc4 	addi	r7,r7,-257
  801134:	29c7883a 	add	r3,r5,r7
  801138:	01a02074 	movhi	r6,32897
  80113c:	014a303a 	nor	r5,zero,r5
  801140:	1946703a 	and	r3,r3,r5
  801144:	31a02004 	addi	r6,r6,-32640
  801148:	1986703a 	and	r3,r3,r6
  80114c:	1800071e 	bne	r3,zero,80116c <strlen+0x74>
  801150:	11400117 	ldw	r5,4(r2)
  801154:	10800104 	addi	r2,r2,4
  801158:	29c7883a 	add	r3,r5,r7
  80115c:	014a303a 	nor	r5,zero,r5
  801160:	1946703a 	and	r3,r3,r5
  801164:	1986703a 	and	r3,r3,r6
  801168:	183ff926 	beq	r3,zero,801150 <strlen+0x58>
  80116c:	10c00007 	ldb	r3,0(r2)
  801170:	183fea26 	beq	r3,zero,80111c <strlen+0x24>
  801174:	10c00047 	ldb	r3,1(r2)
  801178:	10800044 	addi	r2,r2,1
  80117c:	183fe726 	beq	r3,zero,80111c <strlen+0x24>
  801180:	10c00047 	ldb	r3,1(r2)
  801184:	10800044 	addi	r2,r2,1
  801188:	183ffa1e 	bne	r3,zero,801174 <strlen+0x7c>
  80118c:	003fe306 	br	80111c <strlen+0x24>

00801190 <___vfprintf_internal_r>:
  801190:	deffbf04 	addi	sp,sp,-260
  801194:	dfc04015 	stw	ra,256(sp)
  801198:	dd803d15 	stw	r22,244(sp)
  80119c:	dcc03a15 	stw	r19,232(sp)
  8011a0:	dc803915 	stw	r18,228(sp)
  8011a4:	2027883a 	mov	r19,r4
  8011a8:	2825883a 	mov	r18,r5
  8011ac:	302d883a 	mov	r22,r6
  8011b0:	d9c00615 	stw	r7,24(sp)
  8011b4:	df003f15 	stw	fp,252(sp)
  8011b8:	ddc03e15 	stw	r23,248(sp)
  8011bc:	dd403c15 	stw	r21,240(sp)
  8011c0:	dd003b15 	stw	r20,236(sp)
  8011c4:	dc403815 	stw	r17,224(sp)
  8011c8:	dc003715 	stw	r16,220(sp)
  8011cc:	0805e540 	call	805e54 <_localeconv_r>
  8011d0:	10800017 	ldw	r2,0(r2)
  8011d4:	1009883a 	mov	r4,r2
  8011d8:	d8800d15 	stw	r2,52(sp)
  8011dc:	08010f80 	call	8010f8 <strlen>
  8011e0:	d8800b15 	stw	r2,44(sp)
  8011e4:	98000226 	beq	r19,zero,8011f0 <___vfprintf_internal_r+0x60>
  8011e8:	98800e17 	ldw	r2,56(r19)
  8011ec:	1001d726 	beq	r2,zero,80194c <___vfprintf_internal_r+0x7bc>
  8011f0:	9080030b 	ldhu	r2,12(r18)
  8011f4:	10c8000c 	andi	r3,r2,8192
  8011f8:	1800061e 	bne	r3,zero,801214 <___vfprintf_internal_r+0x84>
  8011fc:	90c01917 	ldw	r3,100(r18)
  801200:	0137ffc4 	movi	r4,-8193
  801204:	10880014 	ori	r2,r2,8192
  801208:	1906703a 	and	r3,r3,r4
  80120c:	9080030d 	sth	r2,12(r18)
  801210:	90c01915 	stw	r3,100(r18)
  801214:	10c0020c 	andi	r3,r2,8
  801218:	1800fc26 	beq	r3,zero,80160c <___vfprintf_internal_r+0x47c>
  80121c:	90c00417 	ldw	r3,16(r18)
  801220:	1800fa26 	beq	r3,zero,80160c <___vfprintf_internal_r+0x47c>
  801224:	1080068c 	andi	r2,r2,26
  801228:	10800298 	cmpnei	r2,r2,10
  80122c:	1000ff26 	beq	r2,zero,80162c <___vfprintf_internal_r+0x49c>
  801230:	d8802704 	addi	r2,sp,156
  801234:	b02f883a 	mov	r23,r22
  801238:	d8801a15 	stw	r2,104(sp)
  80123c:	d8001c15 	stw	zero,112(sp)
  801240:	d8001b15 	stw	zero,108(sp)
  801244:	d8000815 	stw	zero,32(sp)
  801248:	d8000915 	stw	zero,36(sp)
  80124c:	d8000a15 	stw	zero,40(sp)
  801250:	d8000c15 	stw	zero,48(sp)
  801254:	d8001015 	stw	zero,64(sp)
  801258:	d8000515 	stw	zero,20(sp)
  80125c:	102d883a 	mov	r22,r2
  801260:	b8800007 	ldb	r2,0(r23)
  801264:	1000d726 	beq	r2,zero,8015c4 <___vfprintf_internal_r+0x434>
  801268:	b821883a 	mov	r16,r23
  80126c:	00000306 	br	80127c <___vfprintf_internal_r+0xec>
  801270:	80800047 	ldb	r2,1(r16)
  801274:	84000044 	addi	r16,r16,1
  801278:	10011926 	beq	r2,zero,8016e0 <___vfprintf_internal_r+0x550>
  80127c:	10800958 	cmpnei	r2,r2,37
  801280:	103ffb1e 	bne	r2,zero,801270 <___vfprintf_internal_r+0xe0>
  801284:	85e3c83a 	sub	r17,r16,r23
  801288:	85c1171e 	bne	r16,r23,8016e8 <___vfprintf_internal_r+0x558>
  80128c:	80800003 	ldbu	r2,0(r16)
  801290:	10803fcc 	andi	r2,r2,255
  801294:	1080201c 	xori	r2,r2,128
  801298:	10bfe004 	addi	r2,r2,-128
  80129c:	1000c926 	beq	r2,zero,8015c4 <___vfprintf_internal_r+0x434>
  8012a0:	82c00047 	ldb	r11,1(r16)
  8012a4:	85c00044 	addi	r23,r16,1
  8012a8:	d8001345 	stb	zero,77(sp)
  8012ac:	0009883a 	mov	r4,zero
  8012b0:	000b883a 	mov	r5,zero
  8012b4:	023fffc4 	movi	r8,-1
  8012b8:	0021883a 	mov	r16,zero
  8012bc:	0019883a 	mov	r12,zero
  8012c0:	bdc00044 	addi	r23,r23,1
  8012c4:	5839883a 	mov	fp,r11
  8012c8:	e0bff804 	addi	r2,fp,-32
  8012cc:	10c01668 	cmpgeui	r3,r2,89
  8012d0:	18006c1e 	bne	r3,zero,801484 <___vfprintf_internal_r+0x2f4>
  8012d4:	100490ba 	slli	r2,r2,2
  8012d8:	00c02034 	movhi	r3,128
  8012dc:	10c7883a 	add	r3,r2,r3
  8012e0:	1884ba17 	ldw	r2,4840(r3)
  8012e4:	1000683a 	jmp	r2
  8012e8:	00801cd4 	movui	r2,115
  8012ec:	00801484 	movi	r2,82
  8012f0:	00801484 	movi	r2,82
  8012f4:	00801cc8 	cmpgei	r2,zero,115
  8012f8:	00801484 	movi	r2,82
  8012fc:	00801484 	movi	r2,82
  801300:	00801484 	movi	r2,82
  801304:	00801484 	movi	r2,82
  801308:	00801484 	movi	r2,82
  80130c:	00801484 	movi	r2,82
  801310:	00801ca0 	cmpeqi	r2,zero,114
  801314:	00801c90 	cmplti	r2,zero,114
  801318:	00801484 	movi	r2,82
  80131c:	00801c78 	rdprs	r2,zero,113
  801320:	00801c2c 	andhi	r2,zero,112
  801324:	00801484 	movi	r2,82
  801328:	00801c20 	cmpeqi	r2,zero,112
  80132c:	0080144c 	andi	r2,zero,81
  801330:	0080144c 	andi	r2,zero,81
  801334:	0080144c 	andi	r2,zero,81
  801338:	0080144c 	andi	r2,zero,81
  80133c:	0080144c 	andi	r2,zero,81
  801340:	0080144c 	andi	r2,zero,81
  801344:	0080144c 	andi	r2,zero,81
  801348:	0080144c 	andi	r2,zero,81
  80134c:	0080144c 	andi	r2,zero,81
  801350:	00801484 	movi	r2,82
  801354:	00801484 	movi	r2,82
  801358:	00801484 	movi	r2,82
  80135c:	00801484 	movi	r2,82
  801360:	00801484 	movi	r2,82
  801364:	00801484 	movi	r2,82
  801368:	00801484 	movi	r2,82
  80136c:	00801484 	movi	r2,82
  801370:	00801484 	movi	r2,82
  801374:	00801484 	movi	r2,82
  801378:	00801b14 	movui	r2,108
  80137c:	00801744 	movi	r2,93
  801380:	00801484 	movi	r2,82
  801384:	00801744 	movi	r2,93
  801388:	00801484 	movi	r2,82
  80138c:	00801484 	movi	r2,82
  801390:	00801484 	movi	r2,82
  801394:	00801484 	movi	r2,82
  801398:	00801d00 	call	801d0 <__alt_mem_sdram-0x77fe30>
  80139c:	00801484 	movi	r2,82
  8013a0:	00801484 	movi	r2,82
  8013a4:	00801678 	rdprs	r2,zero,89
  8013a8:	00801484 	movi	r2,82
  8013ac:	00801484 	movi	r2,82
  8013b0:	00801484 	movi	r2,82
  8013b4:	00801484 	movi	r2,82
  8013b8:	00801484 	movi	r2,82
  8013bc:	00801650 	cmplti	r2,zero,89
  8013c0:	00801484 	movi	r2,82
  8013c4:	00801484 	movi	r2,82
  8013c8:	00801d34 	movhi	r2,116
  8013cc:	00801484 	movi	r2,82
  8013d0:	00801484 	movi	r2,82
  8013d4:	00801484 	movi	r2,82
  8013d8:	00801484 	movi	r2,82
  8013dc:	00801484 	movi	r2,82
  8013e0:	00801484 	movi	r2,82
  8013e4:	00801484 	movi	r2,82
  8013e8:	00801484 	movi	r2,82
  8013ec:	00801484 	movi	r2,82
  8013f0:	00801484 	movi	r2,82
  8013f4:	00801d0c 	andi	r2,zero,116
  8013f8:	00801958 	cmpnei	r2,zero,101
  8013fc:	00801744 	movi	r2,93
  801400:	00801744 	movi	r2,93
  801404:	00801744 	movi	r2,93
  801408:	008019cc 	andi	r2,zero,103
  80140c:	00801958 	cmpnei	r2,zero,101
  801410:	00801484 	movi	r2,82
  801414:	00801484 	movi	r2,82
  801418:	00801b00 	call	801b0 <__alt_mem_sdram-0x77fe50>
  80141c:	00801484 	movi	r2,82
  801420:	00801ac4 	movi	r2,107
  801424:	0080167c 	xorhi	r2,zero,89
  801428:	00801a84 	movi	r2,106
  80142c:	00801a78 	rdprs	r2,zero,105
  801430:	00801484 	movi	r2,82
  801434:	00801a20 	cmpeqi	r2,zero,104
  801438:	00801484 	movi	r2,82
  80143c:	00801654 	movui	r2,89
  801440:	00801484 	movi	r2,82
  801444:	00801484 	movi	r2,82
  801448:	008019d8 	cmpnei	r2,zero,103
  80144c:	0021883a 	mov	r16,zero
  801450:	e0fff404 	addi	r3,fp,-48
  801454:	800490ba 	slli	r2,r16,2
  801458:	bf000007 	ldb	fp,0(r23)
  80145c:	bdc00044 	addi	r23,r23,1
  801460:	1421883a 	add	r16,r2,r16
  801464:	8421883a 	add	r16,r16,r16
  801468:	1c21883a 	add	r16,r3,r16
  80146c:	e0fff404 	addi	r3,fp,-48
  801470:	188002b0 	cmpltui	r2,r3,10
  801474:	103ff71e 	bne	r2,zero,801454 <___vfprintf_internal_r+0x2c4>
  801478:	e0bff804 	addi	r2,fp,-32
  80147c:	10c01668 	cmpgeui	r3,r2,89
  801480:	183f9426 	beq	r3,zero,8012d4 <___vfprintf_internal_r+0x144>
  801484:	21003fcc 	andi	r4,r4,255
  801488:	20068f1e 	bne	r4,zero,802ec8 <___vfprintf_internal_r+0x1d38>
  80148c:	e0004d26 	beq	fp,zero,8015c4 <___vfprintf_internal_r+0x434>
  801490:	df001d05 	stb	fp,116(sp)
  801494:	d8001345 	stb	zero,77(sp)
  801498:	05000044 	movi	r20,1
  80149c:	05400044 	movi	r21,1
  8014a0:	dc401d04 	addi	r17,sp,116
  8014a4:	db000415 	stw	r12,16(sp)
  8014a8:	0011883a 	mov	r8,zero
  8014ac:	d8000715 	stw	zero,28(sp)
  8014b0:	d8800417 	ldw	r2,16(sp)
  8014b4:	1380008c 	andi	r14,r2,2
  8014b8:	70000126 	beq	r14,zero,8014c0 <___vfprintf_internal_r+0x330>
  8014bc:	a5000084 	addi	r20,r20,2
  8014c0:	d8800417 	ldw	r2,16(sp)
  8014c4:	d8c01c17 	ldw	r3,112(sp)
  8014c8:	1340210c 	andi	r13,r2,132
  8014cc:	6800021e 	bne	r13,zero,8014d8 <___vfprintf_internal_r+0x348>
  8014d0:	850fc83a 	sub	r7,r16,r20
  8014d4:	01c36016 	blt	zero,r7,802258 <___vfprintf_internal_r+0x10c8>
  8014d8:	d8801347 	ldb	r2,77(sp)
  8014dc:	10000c26 	beq	r2,zero,801510 <___vfprintf_internal_r+0x380>
  8014e0:	d8801b17 	ldw	r2,108(sp)
  8014e4:	d9001344 	addi	r4,sp,77
  8014e8:	18c00044 	addi	r3,r3,1
  8014ec:	10800044 	addi	r2,r2,1
  8014f0:	b1000015 	stw	r4,0(r22)
  8014f4:	01000044 	movi	r4,1
  8014f8:	d8801b15 	stw	r2,108(sp)
  8014fc:	b1000115 	stw	r4,4(r22)
  801500:	d8c01c15 	stw	r3,112(sp)
  801504:	10800208 	cmpgei	r2,r2,8
  801508:	1003a01e 	bne	r2,zero,80238c <___vfprintf_internal_r+0x11fc>
  80150c:	b5800204 	addi	r22,r22,8
  801510:	70000c26 	beq	r14,zero,801544 <___vfprintf_internal_r+0x3b4>
  801514:	d8801b17 	ldw	r2,108(sp)
  801518:	d9001384 	addi	r4,sp,78
  80151c:	18c00084 	addi	r3,r3,2
  801520:	10800044 	addi	r2,r2,1
  801524:	b1000015 	stw	r4,0(r22)
  801528:	01000084 	movi	r4,2
  80152c:	d8801b15 	stw	r2,108(sp)
  801530:	b1000115 	stw	r4,4(r22)
  801534:	d8c01c15 	stw	r3,112(sp)
  801538:	10800208 	cmpgei	r2,r2,8
  80153c:	1003871e 	bne	r2,zero,80235c <___vfprintf_internal_r+0x11cc>
  801540:	b5800204 	addi	r22,r22,8
  801544:	6b402018 	cmpnei	r13,r13,128
  801548:	68025226 	beq	r13,zero,801e94 <___vfprintf_internal_r+0xd04>
  80154c:	4551c83a 	sub	r8,r8,r21
  801550:	02028a16 	blt	zero,r8,801f7c <___vfprintf_internal_r+0xdec>
  801554:	d8800417 	ldw	r2,16(sp)
  801558:	1080400c 	andi	r2,r2,256
  80155c:	1002071e 	bne	r2,zero,801d7c <___vfprintf_internal_r+0xbec>
  801560:	d8801b17 	ldw	r2,108(sp)
  801564:	1d47883a 	add	r3,r3,r21
  801568:	b4400015 	stw	r17,0(r22)
  80156c:	10800044 	addi	r2,r2,1
  801570:	b5400115 	stw	r21,4(r22)
  801574:	d8801b15 	stw	r2,108(sp)
  801578:	d8c01c15 	stw	r3,112(sp)
  80157c:	10800208 	cmpgei	r2,r2,8
  801580:	1002ee1e 	bne	r2,zero,80213c <___vfprintf_internal_r+0xfac>
  801584:	b5800204 	addi	r22,r22,8
  801588:	d8800417 	ldw	r2,16(sp)
  80158c:	1440010c 	andi	r17,r2,4
  801590:	88000226 	beq	r17,zero,80159c <___vfprintf_internal_r+0x40c>
  801594:	8523c83a 	sub	r17,r16,r20
  801598:	0440bd16 	blt	zero,r17,801890 <___vfprintf_internal_r+0x700>
  80159c:	8500010e 	bge	r16,r20,8015a4 <___vfprintf_internal_r+0x414>
  8015a0:	a021883a 	mov	r16,r20
  8015a4:	d8800517 	ldw	r2,20(sp)
  8015a8:	1405883a 	add	r2,r2,r16
  8015ac:	d8800515 	stw	r2,20(sp)
  8015b0:	1802b91e 	bne	r3,zero,802098 <___vfprintf_internal_r+0xf08>
  8015b4:	b8800007 	ldb	r2,0(r23)
  8015b8:	d8001b15 	stw	zero,108(sp)
  8015bc:	dd802704 	addi	r22,sp,156
  8015c0:	103f291e 	bne	r2,zero,801268 <___vfprintf_internal_r+0xd8>
  8015c4:	d8801c17 	ldw	r2,112(sp)
  8015c8:	10063a1e 	bne	r2,zero,802eb4 <___vfprintf_internal_r+0x1d24>
  8015cc:	9080030b 	ldhu	r2,12(r18)
  8015d0:	1080100c 	andi	r2,r2,64
  8015d4:	1006c91e 	bne	r2,zero,8030fc <___vfprintf_internal_r+0x1f6c>
  8015d8:	d8800517 	ldw	r2,20(sp)
  8015dc:	dfc04017 	ldw	ra,256(sp)
  8015e0:	df003f17 	ldw	fp,252(sp)
  8015e4:	ddc03e17 	ldw	r23,248(sp)
  8015e8:	dd803d17 	ldw	r22,244(sp)
  8015ec:	dd403c17 	ldw	r21,240(sp)
  8015f0:	dd003b17 	ldw	r20,236(sp)
  8015f4:	dcc03a17 	ldw	r19,232(sp)
  8015f8:	dc803917 	ldw	r18,228(sp)
  8015fc:	dc403817 	ldw	r17,224(sp)
  801600:	dc003717 	ldw	r16,220(sp)
  801604:	dec04104 	addi	sp,sp,260
  801608:	f800283a 	ret
  80160c:	900b883a 	mov	r5,r18
  801610:	9809883a 	mov	r4,r19
  801614:	08033580 	call	803358 <__swsetup_r>
  801618:	1006b81e 	bne	r2,zero,8030fc <___vfprintf_internal_r+0x1f6c>
  80161c:	9080030b 	ldhu	r2,12(r18)
  801620:	1080068c 	andi	r2,r2,26
  801624:	10800298 	cmpnei	r2,r2,10
  801628:	103f011e 	bne	r2,zero,801230 <___vfprintf_internal_r+0xa0>
  80162c:	9080038f 	ldh	r2,14(r18)
  801630:	103eff16 	blt	r2,zero,801230 <___vfprintf_internal_r+0xa0>
  801634:	d9c00617 	ldw	r7,24(sp)
  801638:	b00d883a 	mov	r6,r22
  80163c:	900b883a 	mov	r5,r18
  801640:	9809883a 	mov	r4,r19
  801644:	08032980 	call	803298 <__sbprintf>
  801648:	d8800515 	stw	r2,20(sp)
  80164c:	003fe206 	br	8015d8 <___vfprintf_internal_r+0x448>
  801650:	63000414 	ori	r12,r12,16
  801654:	6080080c 	andi	r2,r12,32
  801658:	10008126 	beq	r2,zero,801860 <___vfprintf_internal_r+0x6d0>
  80165c:	d8c00617 	ldw	r3,24(sp)
  801660:	00800044 	movi	r2,1
  801664:	1d000017 	ldw	r20,0(r3)
  801668:	1d400117 	ldw	r21,4(r3)
  80166c:	18c00204 	addi	r3,r3,8
  801670:	d8c00615 	stw	r3,24(sp)
  801674:	00000906 	br	80169c <___vfprintf_internal_r+0x50c>
  801678:	63000414 	ori	r12,r12,16
  80167c:	6080080c 	andi	r2,r12,32
  801680:	10006b26 	beq	r2,zero,801830 <___vfprintf_internal_r+0x6a0>
  801684:	d8c00617 	ldw	r3,24(sp)
  801688:	0005883a 	mov	r2,zero
  80168c:	1d000017 	ldw	r20,0(r3)
  801690:	1d400117 	ldw	r21,4(r3)
  801694:	18c00204 	addi	r3,r3,8
  801698:	d8c00615 	stw	r3,24(sp)
  80169c:	d8001345 	stb	zero,77(sp)
  8016a0:	40ffffe0 	cmpeqi	r3,r8,-1
  8016a4:	001b883a 	mov	r13,zero
  8016a8:	1801351e 	bne	r3,zero,801b80 <___vfprintf_internal_r+0x9f0>
  8016ac:	047fdfc4 	movi	r17,-129
  8016b0:	6448703a 	and	r4,r12,r17
  8016b4:	a546b03a 	or	r3,r20,r21
  8016b8:	d9000415 	stw	r4,16(sp)
  8016bc:	1802e41e 	bne	r3,zero,802250 <___vfprintf_internal_r+0x10c0>
  8016c0:	40025f1e 	bne	r8,zero,802040 <___vfprintf_internal_r+0xeb0>
  8016c4:	1003a61e 	bne	r2,zero,802560 <___vfprintf_internal_r+0x13d0>
  8016c8:	6540004c 	andi	r21,r12,1
  8016cc:	a803d426 	beq	r21,zero,802620 <___vfprintf_internal_r+0x1490>
  8016d0:	00800c04 	movi	r2,48
  8016d4:	d88026c5 	stb	r2,155(sp)
  8016d8:	dc4026c4 	addi	r17,sp,155
  8016dc:	00014606 	br	801bf8 <___vfprintf_internal_r+0xa68>
  8016e0:	85e3c83a 	sub	r17,r16,r23
  8016e4:	85ffb726 	beq	r16,r23,8015c4 <___vfprintf_internal_r+0x434>
  8016e8:	d8c01c17 	ldw	r3,112(sp)
  8016ec:	d8801b17 	ldw	r2,108(sp)
  8016f0:	b5c00015 	stw	r23,0(r22)
  8016f4:	1c47883a 	add	r3,r3,r17
  8016f8:	10800044 	addi	r2,r2,1
  8016fc:	d8801b15 	stw	r2,108(sp)
  801700:	b4400115 	stw	r17,4(r22)
  801704:	d8c01c15 	stw	r3,112(sp)
  801708:	10800208 	cmpgei	r2,r2,8
  80170c:	1000061e 	bne	r2,zero,801728 <___vfprintf_internal_r+0x598>
  801710:	b5800204 	addi	r22,r22,8
  801714:	d8c00517 	ldw	r3,20(sp)
  801718:	80800003 	ldbu	r2,0(r16)
  80171c:	1c47883a 	add	r3,r3,r17
  801720:	d8c00515 	stw	r3,20(sp)
  801724:	003eda06 	br	801290 <___vfprintf_internal_r+0x100>
  801728:	d9801a04 	addi	r6,sp,104
  80172c:	900b883a 	mov	r5,r18
  801730:	9809883a 	mov	r4,r19
  801734:	080853c0 	call	80853c <__sprint_r>
  801738:	103fa41e 	bne	r2,zero,8015cc <___vfprintf_internal_r+0x43c>
  80173c:	dd802704 	addi	r22,sp,156
  801740:	003ff406 	br	801714 <___vfprintf_internal_r+0x584>
  801744:	21003fcc 	andi	r4,r4,255
  801748:	20066a1e 	bne	r4,zero,8030f4 <___vfprintf_internal_r+0x1f64>
  80174c:	d8c00617 	ldw	r3,24(sp)
  801750:	6080020c 	andi	r2,r12,8
  801754:	19000204 	addi	r4,r3,8
  801758:	d9000e15 	stw	r4,56(sp)
  80175c:	1003d01e 	bne	r2,zero,8026a0 <___vfprintf_internal_r+0x1510>
  801760:	d8800617 	ldw	r2,24(sp)
  801764:	10c00017 	ldw	r3,0(r2)
  801768:	10800117 	ldw	r2,4(r2)
  80176c:	d8c00915 	stw	r3,36(sp)
  801770:	d8800a15 	stw	r2,40(sp)
  801774:	dd400a17 	ldw	r21,40(sp)
  801778:	dd000917 	ldw	r20,36(sp)
  80177c:	00a00034 	movhi	r2,32768
  801780:	10bfffc4 	addi	r2,r2,-1
  801784:	a8a2703a 	and	r17,r21,r2
  801788:	01dffc34 	movhi	r7,32752
  80178c:	01bfffc4 	movi	r6,-1
  801790:	39ffffc4 	addi	r7,r7,-1
  801794:	a009883a 	mov	r4,r20
  801798:	880b883a 	mov	r5,r17
  80179c:	da000615 	stw	r8,24(sp)
  8017a0:	db000415 	stw	r12,16(sp)
  8017a4:	080dafc0 	call	80dafc <__unorddf2>
  8017a8:	db000417 	ldw	r12,16(sp)
  8017ac:	da000617 	ldw	r8,24(sp)
  8017b0:	1004701e 	bne	r2,zero,802974 <___vfprintf_internal_r+0x17e4>
  8017b4:	01dffc34 	movhi	r7,32752
  8017b8:	01bfffc4 	movi	r6,-1
  8017bc:	39ffffc4 	addi	r7,r7,-1
  8017c0:	a009883a 	mov	r4,r20
  8017c4:	880b883a 	mov	r5,r17
  8017c8:	080c9300 	call	80c930 <__ledf2>
  8017cc:	db000417 	ldw	r12,16(sp)
  8017d0:	da000617 	ldw	r8,24(sp)
  8017d4:	0084670e 	bge	zero,r2,802974 <___vfprintf_internal_r+0x17e4>
  8017d8:	000d883a 	mov	r6,zero
  8017dc:	000f883a 	mov	r7,zero
  8017e0:	a009883a 	mov	r4,r20
  8017e4:	a80b883a 	mov	r5,r21
  8017e8:	080c9300 	call	80c930 <__ledf2>
  8017ec:	db000417 	ldw	r12,16(sp)
  8017f0:	10059d16 	blt	r2,zero,802e68 <___vfprintf_internal_r+0x1cd8>
  8017f4:	db401343 	ldbu	r13,77(sp)
  8017f8:	e0801210 	cmplti	r2,fp,72
  8017fc:	1005741e 	bne	r2,zero,802dd0 <___vfprintf_internal_r+0x1c40>
  801800:	04402074 	movhi	r17,129
  801804:	8c41e604 	addi	r17,r17,1944
  801808:	00bfdfc4 	movi	r2,-129
  80180c:	6084703a 	and	r2,r12,r2
  801810:	d8800415 	stw	r2,16(sp)
  801814:	d8800e17 	ldw	r2,56(sp)
  801818:	050000c4 	movi	r20,3
  80181c:	054000c4 	movi	r21,3
  801820:	d8800615 	stw	r2,24(sp)
  801824:	0011883a 	mov	r8,zero
  801828:	d8000715 	stw	zero,28(sp)
  80182c:	0000f606 	br	801c08 <___vfprintf_internal_r+0xa78>
  801830:	d9000617 	ldw	r4,24(sp)
  801834:	6080040c 	andi	r2,r12,16
  801838:	20c00104 	addi	r3,r4,4
  80183c:	1003891e 	bne	r2,zero,802664 <___vfprintf_internal_r+0x14d4>
  801840:	6080100c 	andi	r2,r12,64
  801844:	10056b26 	beq	r2,zero,802df4 <___vfprintf_internal_r+0x1c64>
  801848:	d8800617 	ldw	r2,24(sp)
  80184c:	002b883a 	mov	r21,zero
  801850:	d8c00615 	stw	r3,24(sp)
  801854:	1500000b 	ldhu	r20,0(r2)
  801858:	0005883a 	mov	r2,zero
  80185c:	003f8f06 	br	80169c <___vfprintf_internal_r+0x50c>
  801860:	d9000617 	ldw	r4,24(sp)
  801864:	6080040c 	andi	r2,r12,16
  801868:	20c00104 	addi	r3,r4,4
  80186c:	1003821e 	bne	r2,zero,802678 <___vfprintf_internal_r+0x14e8>
  801870:	6080100c 	andi	r2,r12,64
  801874:	10056526 	beq	r2,zero,802e0c <___vfprintf_internal_r+0x1c7c>
  801878:	d8800617 	ldw	r2,24(sp)
  80187c:	002b883a 	mov	r21,zero
  801880:	d8c00615 	stw	r3,24(sp)
  801884:	1500000b 	ldhu	r20,0(r2)
  801888:	00800044 	movi	r2,1
  80188c:	003f8306 	br	80169c <___vfprintf_internal_r+0x50c>
  801890:	03002074 	movhi	r12,129
  801894:	89000450 	cmplti	r4,r17,17
  801898:	d8801b17 	ldw	r2,108(sp)
  80189c:	6301fa04 	addi	r12,r12,2024
  8018a0:	20001b1e 	bne	r4,zero,801910 <___vfprintf_internal_r+0x780>
  8018a4:	05400404 	movi	r21,16
  8018a8:	6039883a 	mov	fp,r12
  8018ac:	00000406 	br	8018c0 <___vfprintf_internal_r+0x730>
  8018b0:	8c7ffc04 	addi	r17,r17,-16
  8018b4:	89000448 	cmpgei	r4,r17,17
  8018b8:	b5800204 	addi	r22,r22,8
  8018bc:	20001326 	beq	r4,zero,80190c <___vfprintf_internal_r+0x77c>
  8018c0:	10800044 	addi	r2,r2,1
  8018c4:	18c00404 	addi	r3,r3,16
  8018c8:	b7000015 	stw	fp,0(r22)
  8018cc:	b5400115 	stw	r21,4(r22)
  8018d0:	d8c01c15 	stw	r3,112(sp)
  8018d4:	d8801b15 	stw	r2,108(sp)
  8018d8:	11000208 	cmpgei	r4,r2,8
  8018dc:	203ff426 	beq	r4,zero,8018b0 <___vfprintf_internal_r+0x720>
  8018e0:	d9801a04 	addi	r6,sp,104
  8018e4:	900b883a 	mov	r5,r18
  8018e8:	9809883a 	mov	r4,r19
  8018ec:	080853c0 	call	80853c <__sprint_r>
  8018f0:	103f361e 	bne	r2,zero,8015cc <___vfprintf_internal_r+0x43c>
  8018f4:	8c7ffc04 	addi	r17,r17,-16
  8018f8:	89000448 	cmpgei	r4,r17,17
  8018fc:	d8c01c17 	ldw	r3,112(sp)
  801900:	d8801b17 	ldw	r2,108(sp)
  801904:	dd802704 	addi	r22,sp,156
  801908:	203fed1e 	bne	r4,zero,8018c0 <___vfprintf_internal_r+0x730>
  80190c:	e019883a 	mov	r12,fp
  801910:	10800044 	addi	r2,r2,1
  801914:	1c47883a 	add	r3,r3,r17
  801918:	d8801b15 	stw	r2,108(sp)
  80191c:	b3000015 	stw	r12,0(r22)
  801920:	b4400115 	stw	r17,4(r22)
  801924:	d8c01c15 	stw	r3,112(sp)
  801928:	10800210 	cmplti	r2,r2,8
  80192c:	103f1b1e 	bne	r2,zero,80159c <___vfprintf_internal_r+0x40c>
  801930:	d9801a04 	addi	r6,sp,104
  801934:	900b883a 	mov	r5,r18
  801938:	9809883a 	mov	r4,r19
  80193c:	080853c0 	call	80853c <__sprint_r>
  801940:	103f221e 	bne	r2,zero,8015cc <___vfprintf_internal_r+0x43c>
  801944:	d8c01c17 	ldw	r3,112(sp)
  801948:	003f1406 	br	80159c <___vfprintf_internal_r+0x40c>
  80194c:	9809883a 	mov	r4,r19
  801950:	08053e00 	call	8053e0 <__sinit>
  801954:	003e2606 	br	8011f0 <___vfprintf_internal_r+0x60>
  801958:	21003fcc 	andi	r4,r4,255
  80195c:	2005db1e 	bne	r4,zero,8030cc <___vfprintf_internal_r+0x1f3c>
  801960:	6080080c 	andi	r2,r12,32
  801964:	10007026 	beq	r2,zero,801b28 <___vfprintf_internal_r+0x998>
  801968:	d8c00617 	ldw	r3,24(sp)
  80196c:	18800117 	ldw	r2,4(r3)
  801970:	1d000017 	ldw	r20,0(r3)
  801974:	18c00204 	addi	r3,r3,8
  801978:	d8c00615 	stw	r3,24(sp)
  80197c:	102b883a 	mov	r21,r2
  801980:	10007516 	blt	r2,zero,801b58 <___vfprintf_internal_r+0x9c8>
  801984:	40bfffd8 	cmpnei	r2,r8,-1
  801988:	10034a26 	beq	r2,zero,8026b4 <___vfprintf_internal_r+0x1524>
  80198c:	047fdfc4 	movi	r17,-129
  801990:	6446703a 	and	r3,r12,r17
  801994:	a544b03a 	or	r2,r20,r21
  801998:	d8c00415 	stw	r3,16(sp)
  80199c:	db401343 	ldbu	r13,77(sp)
  8019a0:	1002ee26 	beq	r2,zero,80255c <___vfprintf_internal_r+0x13cc>
  8019a4:	db000417 	ldw	r12,16(sp)
  8019a8:	a803441e 	bne	r21,zero,8026bc <___vfprintf_internal_r+0x152c>
  8019ac:	a08002a8 	cmpgeui	r2,r20,10
  8019b0:	1003421e 	bne	r2,zero,8026bc <___vfprintf_internal_r+0x152c>
  8019b4:	a5000c04 	addi	r20,r20,48
  8019b8:	dd0026c5 	stb	r20,155(sp)
  8019bc:	db000415 	stw	r12,16(sp)
  8019c0:	05400044 	movi	r21,1
  8019c4:	dc4026c4 	addi	r17,sp,155
  8019c8:	00008b06 	br	801bf8 <___vfprintf_internal_r+0xa68>
  8019cc:	bac00007 	ldb	r11,0(r23)
  8019d0:	63001014 	ori	r12,r12,64
  8019d4:	003e3a06 	br	8012c0 <___vfprintf_internal_r+0x130>
  8019d8:	21003fcc 	andi	r4,r4,255
  8019dc:	2005c11e 	bne	r4,zero,8030e4 <___vfprintf_internal_r+0x1f54>
  8019e0:	00802074 	movhi	r2,129
  8019e4:	1081ee04 	addi	r2,r2,1976
  8019e8:	d8800c15 	stw	r2,48(sp)
  8019ec:	6080080c 	andi	r2,r12,32
  8019f0:	1000d726 	beq	r2,zero,801d50 <___vfprintf_internal_r+0xbc0>
  8019f4:	d8800617 	ldw	r2,24(sp)
  8019f8:	15000017 	ldw	r20,0(r2)
  8019fc:	15400117 	ldw	r21,4(r2)
  801a00:	10800204 	addi	r2,r2,8
  801a04:	d8800615 	stw	r2,24(sp)
  801a08:	6080004c 	andi	r2,r12,1
  801a0c:	10000226 	beq	r2,zero,801a18 <___vfprintf_internal_r+0x888>
  801a10:	a544b03a 	or	r2,r20,r21
  801a14:	1003091e 	bne	r2,zero,80263c <___vfprintf_internal_r+0x14ac>
  801a18:	00800084 	movi	r2,2
  801a1c:	003f1f06 	br	80169c <___vfprintf_internal_r+0x50c>
  801a20:	d8800617 	ldw	r2,24(sp)
  801a24:	d8001345 	stb	zero,77(sp)
  801a28:	14400017 	ldw	r17,0(r2)
  801a2c:	10c00104 	addi	r3,r2,4
  801a30:	88037726 	beq	r17,zero,802810 <___vfprintf_internal_r+0x1680>
  801a34:	40bfffe0 	cmpeqi	r2,r8,-1
  801a38:	1004661e 	bne	r2,zero,802bd4 <___vfprintf_internal_r+0x1a44>
  801a3c:	400d883a 	mov	r6,r8
  801a40:	000b883a 	mov	r5,zero
  801a44:	8809883a 	mov	r4,r17
  801a48:	d8c00715 	stw	r3,28(sp)
  801a4c:	db000615 	stw	r12,24(sp)
  801a50:	da000415 	stw	r8,16(sp)
  801a54:	08068240 	call	806824 <memchr>
  801a58:	da000417 	ldw	r8,16(sp)
  801a5c:	db000617 	ldw	r12,24(sp)
  801a60:	d8c00717 	ldw	r3,28(sp)
  801a64:	10058926 	beq	r2,zero,80308c <___vfprintf_internal_r+0x1efc>
  801a68:	146bc83a 	sub	r21,r2,r17
  801a6c:	a829883a 	mov	r20,r21
  801a70:	d8c00615 	stw	r3,24(sp)
  801a74:	003e8b06 	br	8014a4 <___vfprintf_internal_r+0x314>
  801a78:	bac00007 	ldb	r11,0(r23)
  801a7c:	63000814 	ori	r12,r12,32
  801a80:	003e0f06 	br	8012c0 <___vfprintf_internal_r+0x130>
  801a84:	d8c00617 	ldw	r3,24(sp)
  801a88:	00800c04 	movi	r2,48
  801a8c:	d8801385 	stb	r2,78(sp)
  801a90:	00801e04 	movi	r2,120
  801a94:	01002074 	movhi	r4,129
  801a98:	d88013c5 	stb	r2,79(sp)
  801a9c:	18800104 	addi	r2,r3,4
  801aa0:	d8800615 	stw	r2,24(sp)
  801aa4:	2081ee04 	addi	r2,r4,1976
  801aa8:	d8800c15 	stw	r2,48(sp)
  801aac:	1d000017 	ldw	r20,0(r3)
  801ab0:	002b883a 	mov	r21,zero
  801ab4:	63000094 	ori	r12,r12,2
  801ab8:	00800084 	movi	r2,2
  801abc:	07001e04 	movi	fp,120
  801ac0:	003ef606 	br	80169c <___vfprintf_internal_r+0x50c>
  801ac4:	21003fcc 	andi	r4,r4,255
  801ac8:	2005881e 	bne	r4,zero,8030ec <___vfprintf_internal_r+0x1f5c>
  801acc:	d9000617 	ldw	r4,24(sp)
  801ad0:	6080080c 	andi	r2,r12,32
  801ad4:	20c00017 	ldw	r3,0(r4)
  801ad8:	21000104 	addi	r4,r4,4
  801adc:	d9000615 	stw	r4,24(sp)
  801ae0:	1002d11e 	bne	r2,zero,802628 <___vfprintf_internal_r+0x1498>
  801ae4:	6080040c 	andi	r2,r12,16
  801ae8:	10036f1e 	bne	r2,zero,8028a8 <___vfprintf_internal_r+0x1718>
  801aec:	6300100c 	andi	r12,r12,64
  801af0:	60036d26 	beq	r12,zero,8028a8 <___vfprintf_internal_r+0x1718>
  801af4:	d8800517 	ldw	r2,20(sp)
  801af8:	1880000d 	sth	r2,0(r3)
  801afc:	003dd806 	br	801260 <___vfprintf_internal_r+0xd0>
  801b00:	bac00007 	ldb	r11,0(r23)
  801b04:	58801b18 	cmpnei	r2,r11,108
  801b08:	10033026 	beq	r2,zero,8027cc <___vfprintf_internal_r+0x163c>
  801b0c:	63000414 	ori	r12,r12,16
  801b10:	003deb06 	br	8012c0 <___vfprintf_internal_r+0x130>
  801b14:	21003fcc 	andi	r4,r4,255
  801b18:	2005701e 	bne	r4,zero,8030dc <___vfprintf_internal_r+0x1f4c>
  801b1c:	63000414 	ori	r12,r12,16
  801b20:	6080080c 	andi	r2,r12,32
  801b24:	103f901e 	bne	r2,zero,801968 <___vfprintf_internal_r+0x7d8>
  801b28:	d9000617 	ldw	r4,24(sp)
  801b2c:	6080040c 	andi	r2,r12,16
  801b30:	20c00104 	addi	r3,r4,4
  801b34:	1002d51e 	bne	r2,zero,80268c <___vfprintf_internal_r+0x14fc>
  801b38:	6080100c 	andi	r2,r12,64
  801b3c:	1004a726 	beq	r2,zero,802ddc <___vfprintf_internal_r+0x1c4c>
  801b40:	d8800617 	ldw	r2,24(sp)
  801b44:	d8c00615 	stw	r3,24(sp)
  801b48:	1500000f 	ldh	r20,0(r2)
  801b4c:	a02bd7fa 	srai	r21,r20,31
  801b50:	a805883a 	mov	r2,r21
  801b54:	103f8b0e 	bge	r2,zero,801984 <___vfprintf_internal_r+0x7f4>
  801b58:	a004c03a 	cmpne	r2,r20,zero
  801b5c:	056bc83a 	sub	r21,zero,r21
  801b60:	a8abc83a 	sub	r21,r21,r2
  801b64:	00800b44 	movi	r2,45
  801b68:	d8801345 	stb	r2,77(sp)
  801b6c:	40ffffe0 	cmpeqi	r3,r8,-1
  801b70:	0529c83a 	sub	r20,zero,r20
  801b74:	03400b44 	movi	r13,45
  801b78:	00800044 	movi	r2,1
  801b7c:	183ecb26 	beq	r3,zero,8016ac <___vfprintf_internal_r+0x51c>
  801b80:	10c00060 	cmpeqi	r3,r2,1
  801b84:	183f881e 	bne	r3,zero,8019a8 <___vfprintf_internal_r+0x818>
  801b88:	108000a0 	cmpeqi	r2,r2,2
  801b8c:	1001311e 	bne	r2,zero,802054 <___vfprintf_internal_r+0xec4>
  801b90:	dc402704 	addi	r17,sp,156
  801b94:	a004d0fa 	srli	r2,r20,3
  801b98:	a806977a 	slli	r3,r21,29
  801b9c:	a82ad0fa 	srli	r21,r21,3
  801ba0:	a50001cc 	andi	r20,r20,7
  801ba4:	a1000c04 	addi	r4,r20,48
  801ba8:	18a8b03a 	or	r20,r3,r2
  801bac:	893fffc5 	stb	r4,-1(r17)
  801bb0:	a544b03a 	or	r2,r20,r21
  801bb4:	880b883a 	mov	r5,r17
  801bb8:	8c7fffc4 	addi	r17,r17,-1
  801bbc:	103ff51e 	bne	r2,zero,801b94 <___vfprintf_internal_r+0xa04>
  801bc0:	6080004c 	andi	r2,r12,1
  801bc4:	10013026 	beq	r2,zero,802088 <___vfprintf_internal_r+0xef8>
  801bc8:	21003fcc 	andi	r4,r4,255
  801bcc:	2100201c 	xori	r4,r4,128
  801bd0:	213fe004 	addi	r4,r4,-128
  801bd4:	20800c18 	cmpnei	r2,r4,48
  801bd8:	10012b26 	beq	r2,zero,802088 <___vfprintf_internal_r+0xef8>
  801bdc:	00800c04 	movi	r2,48
  801be0:	297fff84 	addi	r5,r5,-2
  801be4:	88bfffc5 	stb	r2,-1(r17)
  801be8:	d8802704 	addi	r2,sp,156
  801bec:	116bc83a 	sub	r21,r2,r5
  801bf0:	db000415 	stw	r12,16(sp)
  801bf4:	2823883a 	mov	r17,r5
  801bf8:	4029883a 	mov	r20,r8
  801bfc:	4540010e 	bge	r8,r21,801c04 <___vfprintf_internal_r+0xa74>
  801c00:	a829883a 	mov	r20,r21
  801c04:	d8000715 	stw	zero,28(sp)
  801c08:	6b403fcc 	andi	r13,r13,255
  801c0c:	6b40201c 	xori	r13,r13,128
  801c10:	6b7fe004 	addi	r13,r13,-128
  801c14:	683e2626 	beq	r13,zero,8014b0 <___vfprintf_internal_r+0x320>
  801c18:	a5000044 	addi	r20,r20,1
  801c1c:	003e2406 	br	8014b0 <___vfprintf_internal_r+0x320>
  801c20:	bac00007 	ldb	r11,0(r23)
  801c24:	63002014 	ori	r12,r12,128
  801c28:	003da506 	br	8012c0 <___vfprintf_internal_r+0x130>
  801c2c:	bf000007 	ldb	fp,0(r23)
  801c30:	b8800044 	addi	r2,r23,1
  801c34:	e0c00aa0 	cmpeqi	r3,fp,42
  801c38:	1805841e 	bne	r3,zero,80324c <___vfprintf_internal_r+0x20bc>
  801c3c:	e0fff404 	addi	r3,fp,-48
  801c40:	198002b0 	cmpltui	r6,r3,10
  801c44:	102f883a 	mov	r23,r2
  801c48:	0011883a 	mov	r8,zero
  801c4c:	303d9e26 	beq	r6,zero,8012c8 <___vfprintf_internal_r+0x138>
  801c50:	400490ba 	slli	r2,r8,2
  801c54:	bf000007 	ldb	fp,0(r23)
  801c58:	bdc00044 	addi	r23,r23,1
  801c5c:	1211883a 	add	r8,r2,r8
  801c60:	4211883a 	add	r8,r8,r8
  801c64:	40d1883a 	add	r8,r8,r3
  801c68:	e0fff404 	addi	r3,fp,-48
  801c6c:	188002b0 	cmpltui	r2,r3,10
  801c70:	103ff71e 	bne	r2,zero,801c50 <___vfprintf_internal_r+0xac0>
  801c74:	003d9406 	br	8012c8 <___vfprintf_internal_r+0x138>
  801c78:	bf000003 	ldbu	fp,0(r23)
  801c7c:	e2c03fcc 	andi	r11,fp,255
  801c80:	5ac0201c 	xori	r11,r11,128
  801c84:	63000114 	ori	r12,r12,4
  801c88:	5affe004 	addi	r11,r11,-128
  801c8c:	003d8c06 	br	8012c0 <___vfprintf_internal_r+0x130>
  801c90:	bac00007 	ldb	r11,0(r23)
  801c94:	01000044 	movi	r4,1
  801c98:	01400ac4 	movi	r5,43
  801c9c:	003d8806 	br	8012c0 <___vfprintf_internal_r+0x130>
  801ca0:	d8800617 	ldw	r2,24(sp)
  801ca4:	bf000003 	ldbu	fp,0(r23)
  801ca8:	14000017 	ldw	r16,0(r2)
  801cac:	10800104 	addi	r2,r2,4
  801cb0:	8002aa16 	blt	r16,zero,80275c <___vfprintf_internal_r+0x15cc>
  801cb4:	d8800615 	stw	r2,24(sp)
  801cb8:	e2c03fcc 	andi	r11,fp,255
  801cbc:	5ac0201c 	xori	r11,r11,128
  801cc0:	5affe004 	addi	r11,r11,-128
  801cc4:	003d7e06 	br	8012c0 <___vfprintf_internal_r+0x130>
  801cc8:	bac00007 	ldb	r11,0(r23)
  801ccc:	63000054 	ori	r12,r12,1
  801cd0:	003d7b06 	br	8012c0 <___vfprintf_internal_r+0x130>
  801cd4:	28803fcc 	andi	r2,r5,255
  801cd8:	1080201c 	xori	r2,r2,128
  801cdc:	10bfe004 	addi	r2,r2,-128
  801ce0:	bf000003 	ldbu	fp,0(r23)
  801ce4:	103ff41e 	bne	r2,zero,801cb8 <___vfprintf_internal_r+0xb28>
  801ce8:	e2c03fcc 	andi	r11,fp,255
  801cec:	5ac0201c 	xori	r11,r11,128
  801cf0:	01000044 	movi	r4,1
  801cf4:	01400804 	movi	r5,32
  801cf8:	5affe004 	addi	r11,r11,-128
  801cfc:	003d7006 	br	8012c0 <___vfprintf_internal_r+0x130>
  801d00:	bac00007 	ldb	r11,0(r23)
  801d04:	63000214 	ori	r12,r12,8
  801d08:	003d6d06 	br	8012c0 <___vfprintf_internal_r+0x130>
  801d0c:	d8c00617 	ldw	r3,24(sp)
  801d10:	d8001345 	stb	zero,77(sp)
  801d14:	05000044 	movi	r20,1
  801d18:	18800017 	ldw	r2,0(r3)
  801d1c:	18c00104 	addi	r3,r3,4
  801d20:	d8c00615 	stw	r3,24(sp)
  801d24:	d8801d05 	stb	r2,116(sp)
  801d28:	05400044 	movi	r21,1
  801d2c:	dc401d04 	addi	r17,sp,116
  801d30:	003ddc06 	br	8014a4 <___vfprintf_internal_r+0x314>
  801d34:	21003fcc 	andi	r4,r4,255
  801d38:	2004e61e 	bne	r4,zero,8030d4 <___vfprintf_internal_r+0x1f44>
  801d3c:	00802074 	movhi	r2,129
  801d40:	1081e904 	addi	r2,r2,1956
  801d44:	d8800c15 	stw	r2,48(sp)
  801d48:	6080080c 	andi	r2,r12,32
  801d4c:	103f291e 	bne	r2,zero,8019f4 <___vfprintf_internal_r+0x864>
  801d50:	d9000617 	ldw	r4,24(sp)
  801d54:	6080040c 	andi	r2,r12,16
  801d58:	20c00104 	addi	r3,r4,4
  801d5c:	10023d1e 	bne	r2,zero,802654 <___vfprintf_internal_r+0x14c4>
  801d60:	6080100c 	andi	r2,r12,64
  801d64:	10042f26 	beq	r2,zero,802e24 <___vfprintf_internal_r+0x1c94>
  801d68:	d8800617 	ldw	r2,24(sp)
  801d6c:	002b883a 	mov	r21,zero
  801d70:	d8c00615 	stw	r3,24(sp)
  801d74:	1500000b 	ldhu	r20,0(r2)
  801d78:	003f2306 	br	801a08 <___vfprintf_internal_r+0x878>
  801d7c:	e2c01990 	cmplti	r11,fp,102
  801d80:	5800f61e 	bne	r11,zero,80215c <___vfprintf_internal_r+0xfcc>
  801d84:	d9000917 	ldw	r4,36(sp)
  801d88:	d9400a17 	ldw	r5,40(sp)
  801d8c:	000d883a 	mov	r6,zero
  801d90:	000f883a 	mov	r7,zero
  801d94:	d8c00e15 	stw	r3,56(sp)
  801d98:	080c7c00 	call	80c7c0 <__eqdf2>
  801d9c:	d8c00e17 	ldw	r3,56(sp)
  801da0:	1001881e 	bne	r2,zero,8023c4 <___vfprintf_internal_r+0x1234>
  801da4:	d8801b17 	ldw	r2,108(sp)
  801da8:	01002074 	movhi	r4,129
  801dac:	2101f504 	addi	r4,r4,2004
  801db0:	10800044 	addi	r2,r2,1
  801db4:	18c00044 	addi	r3,r3,1
  801db8:	b1000015 	stw	r4,0(r22)
  801dbc:	01000044 	movi	r4,1
  801dc0:	d8801b15 	stw	r2,108(sp)
  801dc4:	b1000115 	stw	r4,4(r22)
  801dc8:	d8c01c15 	stw	r3,112(sp)
  801dcc:	10800208 	cmpgei	r2,r2,8
  801dd0:	10036e1e 	bne	r2,zero,802b8c <___vfprintf_internal_r+0x19fc>
  801dd4:	b5800204 	addi	r22,r22,8
  801dd8:	d8801417 	ldw	r2,80(sp)
  801ddc:	d9000817 	ldw	r4,32(sp)
  801de0:	11020b0e 	bge	r2,r4,802610 <___vfprintf_internal_r+0x1480>
  801de4:	d8800d17 	ldw	r2,52(sp)
  801de8:	d9000b17 	ldw	r4,44(sp)
  801dec:	b0800015 	stw	r2,0(r22)
  801df0:	d8801b17 	ldw	r2,108(sp)
  801df4:	1907883a 	add	r3,r3,r4
  801df8:	b1000115 	stw	r4,4(r22)
  801dfc:	10800044 	addi	r2,r2,1
  801e00:	d8801b15 	stw	r2,108(sp)
  801e04:	d8c01c15 	stw	r3,112(sp)
  801e08:	10800208 	cmpgei	r2,r2,8
  801e0c:	1002761e 	bne	r2,zero,8027e8 <___vfprintf_internal_r+0x1658>
  801e10:	b5800204 	addi	r22,r22,8
  801e14:	d8800817 	ldw	r2,32(sp)
  801e18:	157fffc4 	addi	r21,r2,-1
  801e1c:	057dda0e 	bge	zero,r21,801588 <___vfprintf_internal_r+0x3f8>
  801e20:	01c02074 	movhi	r7,129
  801e24:	a9000450 	cmplti	r4,r21,17
  801e28:	d8801b17 	ldw	r2,108(sp)
  801e2c:	39c1f604 	addi	r7,r7,2008
  801e30:	2003521e 	bne	r4,zero,802b7c <___vfprintf_internal_r+0x19ec>
  801e34:	07000404 	movi	fp,16
  801e38:	3823883a 	mov	r17,r7
  801e3c:	00000406 	br	801e50 <___vfprintf_internal_r+0xcc0>
  801e40:	b5800204 	addi	r22,r22,8
  801e44:	ad7ffc04 	addi	r21,r21,-16
  801e48:	a9000448 	cmpgei	r4,r21,17
  801e4c:	20034a26 	beq	r4,zero,802b78 <___vfprintf_internal_r+0x19e8>
  801e50:	10800044 	addi	r2,r2,1
  801e54:	18c00404 	addi	r3,r3,16
  801e58:	b4400015 	stw	r17,0(r22)
  801e5c:	b7000115 	stw	fp,4(r22)
  801e60:	d8c01c15 	stw	r3,112(sp)
  801e64:	d8801b15 	stw	r2,108(sp)
  801e68:	11000208 	cmpgei	r4,r2,8
  801e6c:	203ff426 	beq	r4,zero,801e40 <___vfprintf_internal_r+0xcb0>
  801e70:	d9801a04 	addi	r6,sp,104
  801e74:	900b883a 	mov	r5,r18
  801e78:	9809883a 	mov	r4,r19
  801e7c:	080853c0 	call	80853c <__sprint_r>
  801e80:	103dd21e 	bne	r2,zero,8015cc <___vfprintf_internal_r+0x43c>
  801e84:	d8c01c17 	ldw	r3,112(sp)
  801e88:	d8801b17 	ldw	r2,108(sp)
  801e8c:	dd802704 	addi	r22,sp,156
  801e90:	003fec06 	br	801e44 <___vfprintf_internal_r+0xcb4>
  801e94:	8519c83a 	sub	r12,r16,r20
  801e98:	033dac0e 	bge	zero,r12,80154c <___vfprintf_internal_r+0x3bc>
  801e9c:	01c02074 	movhi	r7,129
  801ea0:	61000450 	cmplti	r4,r12,17
  801ea4:	d8801b17 	ldw	r2,108(sp)
  801ea8:	39c1f604 	addi	r7,r7,2008
  801eac:	2000281e 	bne	r4,zero,801f50 <___vfprintf_internal_r+0xdc0>
  801eb0:	dc400e15 	stw	r17,56(sp)
  801eb4:	dc000f15 	stw	r16,60(sp)
  801eb8:	b009883a 	mov	r4,r22
  801ebc:	03400404 	movi	r13,16
  801ec0:	a02d883a 	mov	r22,r20
  801ec4:	6021883a 	mov	r16,r12
  801ec8:	4029883a 	mov	r20,r8
  801ecc:	3823883a 	mov	r17,r7
  801ed0:	00000406 	br	801ee4 <___vfprintf_internal_r+0xd54>
  801ed4:	843ffc04 	addi	r16,r16,-16
  801ed8:	81400448 	cmpgei	r5,r16,17
  801edc:	21000204 	addi	r4,r4,8
  801ee0:	28001426 	beq	r5,zero,801f34 <___vfprintf_internal_r+0xda4>
  801ee4:	10800044 	addi	r2,r2,1
  801ee8:	18c00404 	addi	r3,r3,16
  801eec:	24400015 	stw	r17,0(r4)
  801ef0:	23400115 	stw	r13,4(r4)
  801ef4:	d8c01c15 	stw	r3,112(sp)
  801ef8:	d8801b15 	stw	r2,108(sp)
  801efc:	11400208 	cmpgei	r5,r2,8
  801f00:	283ff426 	beq	r5,zero,801ed4 <___vfprintf_internal_r+0xd44>
  801f04:	d9801a04 	addi	r6,sp,104
  801f08:	900b883a 	mov	r5,r18
  801f0c:	9809883a 	mov	r4,r19
  801f10:	080853c0 	call	80853c <__sprint_r>
  801f14:	103dad1e 	bne	r2,zero,8015cc <___vfprintf_internal_r+0x43c>
  801f18:	843ffc04 	addi	r16,r16,-16
  801f1c:	81400448 	cmpgei	r5,r16,17
  801f20:	d8c01c17 	ldw	r3,112(sp)
  801f24:	d8801b17 	ldw	r2,108(sp)
  801f28:	d9002704 	addi	r4,sp,156
  801f2c:	03400404 	movi	r13,16
  801f30:	283fec1e 	bne	r5,zero,801ee4 <___vfprintf_internal_r+0xd54>
  801f34:	8019883a 	mov	r12,r16
  801f38:	880f883a 	mov	r7,r17
  801f3c:	dc000f17 	ldw	r16,60(sp)
  801f40:	dc400e17 	ldw	r17,56(sp)
  801f44:	a011883a 	mov	r8,r20
  801f48:	b029883a 	mov	r20,r22
  801f4c:	202d883a 	mov	r22,r4
  801f50:	10800044 	addi	r2,r2,1
  801f54:	1b07883a 	add	r3,r3,r12
  801f58:	d8801b15 	stw	r2,108(sp)
  801f5c:	b1c00015 	stw	r7,0(r22)
  801f60:	b3000115 	stw	r12,4(r22)
  801f64:	d8c01c15 	stw	r3,112(sp)
  801f68:	10800208 	cmpgei	r2,r2,8
  801f6c:	10030f1e 	bne	r2,zero,802bac <___vfprintf_internal_r+0x1a1c>
  801f70:	4551c83a 	sub	r8,r8,r21
  801f74:	b5800204 	addi	r22,r22,8
  801f78:	023d760e 	bge	zero,r8,801554 <___vfprintf_internal_r+0x3c4>
  801f7c:	01c02074 	movhi	r7,129
  801f80:	41000450 	cmplti	r4,r8,17
  801f84:	d8801b17 	ldw	r2,108(sp)
  801f88:	39c1f604 	addi	r7,r7,2008
  801f8c:	2000221e 	bne	r4,zero,802018 <___vfprintf_internal_r+0xe88>
  801f90:	dc400e15 	stw	r17,56(sp)
  801f94:	dc000f15 	stw	r16,60(sp)
  801f98:	03000404 	movi	r12,16
  801f9c:	4021883a 	mov	r16,r8
  801fa0:	3823883a 	mov	r17,r7
  801fa4:	00000406 	br	801fb8 <___vfprintf_internal_r+0xe28>
  801fa8:	843ffc04 	addi	r16,r16,-16
  801fac:	81000448 	cmpgei	r4,r16,17
  801fb0:	b5800204 	addi	r22,r22,8
  801fb4:	20001426 	beq	r4,zero,802008 <___vfprintf_internal_r+0xe78>
  801fb8:	10800044 	addi	r2,r2,1
  801fbc:	18c00404 	addi	r3,r3,16
  801fc0:	b4400015 	stw	r17,0(r22)
  801fc4:	b3000115 	stw	r12,4(r22)
  801fc8:	d8c01c15 	stw	r3,112(sp)
  801fcc:	d8801b15 	stw	r2,108(sp)
  801fd0:	11000208 	cmpgei	r4,r2,8
  801fd4:	203ff426 	beq	r4,zero,801fa8 <___vfprintf_internal_r+0xe18>
  801fd8:	d9801a04 	addi	r6,sp,104
  801fdc:	900b883a 	mov	r5,r18
  801fe0:	9809883a 	mov	r4,r19
  801fe4:	080853c0 	call	80853c <__sprint_r>
  801fe8:	103d781e 	bne	r2,zero,8015cc <___vfprintf_internal_r+0x43c>
  801fec:	843ffc04 	addi	r16,r16,-16
  801ff0:	81000448 	cmpgei	r4,r16,17
  801ff4:	d8c01c17 	ldw	r3,112(sp)
  801ff8:	d8801b17 	ldw	r2,108(sp)
  801ffc:	dd802704 	addi	r22,sp,156
  802000:	03000404 	movi	r12,16
  802004:	203fec1e 	bne	r4,zero,801fb8 <___vfprintf_internal_r+0xe28>
  802008:	8011883a 	mov	r8,r16
  80200c:	880f883a 	mov	r7,r17
  802010:	dc000f17 	ldw	r16,60(sp)
  802014:	dc400e17 	ldw	r17,56(sp)
  802018:	10800044 	addi	r2,r2,1
  80201c:	1a07883a 	add	r3,r3,r8
  802020:	d8801b15 	stw	r2,108(sp)
  802024:	b1c00015 	stw	r7,0(r22)
  802028:	b2000115 	stw	r8,4(r22)
  80202c:	d8c01c15 	stw	r3,112(sp)
  802030:	10800208 	cmpgei	r2,r2,8
  802034:	10016e1e 	bne	r2,zero,8025f0 <___vfprintf_internal_r+0x1460>
  802038:	b5800204 	addi	r22,r22,8
  80203c:	003d4506 	br	801554 <___vfprintf_internal_r+0x3c4>
  802040:	10c00060 	cmpeqi	r3,r2,1
  802044:	1803c81e 	bne	r3,zero,802f68 <___vfprintf_internal_r+0x1dd8>
  802048:	108000a0 	cmpeqi	r2,r2,2
  80204c:	db000417 	ldw	r12,16(sp)
  802050:	103ecf26 	beq	r2,zero,801b90 <___vfprintf_internal_r+0xa00>
  802054:	d9000c17 	ldw	r4,48(sp)
  802058:	dc402704 	addi	r17,sp,156
  80205c:	a08003cc 	andi	r2,r20,15
  802060:	a806973a 	slli	r3,r21,28
  802064:	a028d13a 	srli	r20,r20,4
  802068:	2085883a 	add	r2,r4,r2
  80206c:	10800003 	ldbu	r2,0(r2)
  802070:	a82ad13a 	srli	r21,r21,4
  802074:	1d28b03a 	or	r20,r3,r20
  802078:	88bfffc5 	stb	r2,-1(r17)
  80207c:	a544b03a 	or	r2,r20,r21
  802080:	8c7fffc4 	addi	r17,r17,-1
  802084:	103ff51e 	bne	r2,zero,80205c <___vfprintf_internal_r+0xecc>
  802088:	d8802704 	addi	r2,sp,156
  80208c:	146bc83a 	sub	r21,r2,r17
  802090:	db000415 	stw	r12,16(sp)
  802094:	003ed806 	br	801bf8 <___vfprintf_internal_r+0xa68>
  802098:	d9801a04 	addi	r6,sp,104
  80209c:	900b883a 	mov	r5,r18
  8020a0:	9809883a 	mov	r4,r19
  8020a4:	080853c0 	call	80853c <__sprint_r>
  8020a8:	103d4226 	beq	r2,zero,8015b4 <___vfprintf_internal_r+0x424>
  8020ac:	003d4706 	br	8015cc <___vfprintf_internal_r+0x43c>
  8020b0:	d9801a04 	addi	r6,sp,104
  8020b4:	900b883a 	mov	r5,r18
  8020b8:	9809883a 	mov	r4,r19
  8020bc:	080853c0 	call	80853c <__sprint_r>
  8020c0:	103d421e 	bne	r2,zero,8015cc <___vfprintf_internal_r+0x43c>
  8020c4:	d9401417 	ldw	r5,80(sp)
  8020c8:	d8c01c17 	ldw	r3,112(sp)
  8020cc:	dd802704 	addi	r22,sp,156
  8020d0:	2802c81e 	bne	r5,zero,802bf4 <___vfprintf_internal_r+0x1a64>
  8020d4:	d8800417 	ldw	r2,16(sp)
  8020d8:	d9000817 	ldw	r4,32(sp)
  8020dc:	1080004c 	andi	r2,r2,1
  8020e0:	1104b03a 	or	r2,r2,r4
  8020e4:	103d2826 	beq	r2,zero,801588 <___vfprintf_internal_r+0x3f8>
  8020e8:	d8800d17 	ldw	r2,52(sp)
  8020ec:	d9000b17 	ldw	r4,44(sp)
  8020f0:	b0800015 	stw	r2,0(r22)
  8020f4:	d8801b17 	ldw	r2,108(sp)
  8020f8:	20c7883a 	add	r3,r4,r3
  8020fc:	b1000115 	stw	r4,4(r22)
  802100:	10800044 	addi	r2,r2,1
  802104:	d8c01c15 	stw	r3,112(sp)
  802108:	d8801b15 	stw	r2,108(sp)
  80210c:	11000208 	cmpgei	r4,r2,8
  802110:	2003821e 	bne	r4,zero,802f1c <___vfprintf_internal_r+0x1d8c>
  802114:	b5800204 	addi	r22,r22,8
  802118:	d9000817 	ldw	r4,32(sp)
  80211c:	10800044 	addi	r2,r2,1
  802120:	d8801b15 	stw	r2,108(sp)
  802124:	20c7883a 	add	r3,r4,r3
  802128:	b4400015 	stw	r17,0(r22)
  80212c:	b1000115 	stw	r4,4(r22)
  802130:	d8c01c15 	stw	r3,112(sp)
  802134:	10800208 	cmpgei	r2,r2,8
  802138:	103d1226 	beq	r2,zero,801584 <___vfprintf_internal_r+0x3f4>
  80213c:	d9801a04 	addi	r6,sp,104
  802140:	900b883a 	mov	r5,r18
  802144:	9809883a 	mov	r4,r19
  802148:	080853c0 	call	80853c <__sprint_r>
  80214c:	103d1f1e 	bne	r2,zero,8015cc <___vfprintf_internal_r+0x43c>
  802150:	d8c01c17 	ldw	r3,112(sp)
  802154:	dd802704 	addi	r22,sp,156
  802158:	003d0b06 	br	801588 <___vfprintf_internal_r+0x3f8>
  80215c:	d8800817 	ldw	r2,32(sp)
  802160:	da001b17 	ldw	r8,108(sp)
  802164:	18c00044 	addi	r3,r3,1
  802168:	10800088 	cmpgei	r2,r2,2
  80216c:	45400044 	addi	r21,r8,1
  802170:	b7000204 	addi	fp,r22,8
  802174:	1000ec26 	beq	r2,zero,802528 <___vfprintf_internal_r+0x1398>
  802178:	00800044 	movi	r2,1
  80217c:	b0800115 	stw	r2,4(r22)
  802180:	b4400015 	stw	r17,0(r22)
  802184:	d8c01c15 	stw	r3,112(sp)
  802188:	dd401b15 	stw	r21,108(sp)
  80218c:	a8800210 	cmplti	r2,r21,8
  802190:	1001d126 	beq	r2,zero,8028d8 <___vfprintf_internal_r+0x1748>
  802194:	d8800b17 	ldw	r2,44(sp)
  802198:	d9000d17 	ldw	r4,52(sp)
  80219c:	ad400044 	addi	r21,r21,1
  8021a0:	1887883a 	add	r3,r3,r2
  8021a4:	e0800115 	stw	r2,4(fp)
  8021a8:	e1000015 	stw	r4,0(fp)
  8021ac:	d8c01c15 	stw	r3,112(sp)
  8021b0:	dd401b15 	stw	r21,108(sp)
  8021b4:	a8800208 	cmpgei	r2,r21,8
  8021b8:	1001be1e 	bne	r2,zero,8028b4 <___vfprintf_internal_r+0x1724>
  8021bc:	e7000204 	addi	fp,fp,8
  8021c0:	d9000917 	ldw	r4,36(sp)
  8021c4:	d9400a17 	ldw	r5,40(sp)
  8021c8:	aa000044 	addi	r8,r21,1
  8021cc:	000d883a 	mov	r6,zero
  8021d0:	000f883a 	mov	r7,zero
  8021d4:	d8c00e15 	stw	r3,56(sp)
  8021d8:	da000715 	stw	r8,28(sp)
  8021dc:	080c7c00 	call	80c7c0 <__eqdf2>
  8021e0:	d8c00817 	ldw	r3,32(sp)
  8021e4:	da000717 	ldw	r8,28(sp)
  8021e8:	e5800204 	addi	r22,fp,8
  8021ec:	1affffc4 	addi	r11,r3,-1
  8021f0:	d8c00e17 	ldw	r3,56(sp)
  8021f4:	1000de26 	beq	r2,zero,802570 <___vfprintf_internal_r+0x13e0>
  8021f8:	8a400044 	addi	r9,r17,1
  8021fc:	1ac7883a 	add	r3,r3,r11
  802200:	da001b15 	stw	r8,108(sp)
  802204:	e2400015 	stw	r9,0(fp)
  802208:	e2c00115 	stw	r11,4(fp)
  80220c:	d8c01c15 	stw	r3,112(sp)
  802210:	42000208 	cmpgei	r8,r8,8
  802214:	4001621e 	bne	r8,zero,8027a0 <___vfprintf_internal_r+0x1610>
  802218:	e0800404 	addi	r2,fp,16
  80221c:	aa000084 	addi	r8,r21,2
  802220:	b039883a 	mov	fp,r22
  802224:	102d883a 	mov	r22,r2
  802228:	d9001017 	ldw	r4,64(sp)
  80222c:	d8801644 	addi	r2,sp,89
  802230:	da001b15 	stw	r8,108(sp)
  802234:	20c7883a 	add	r3,r4,r3
  802238:	e0800015 	stw	r2,0(fp)
  80223c:	e1000115 	stw	r4,4(fp)
  802240:	d8c01c15 	stw	r3,112(sp)
  802244:	42000210 	cmplti	r8,r8,8
  802248:	403ccf1e 	bne	r8,zero,801588 <___vfprintf_internal_r+0x3f8>
  80224c:	003fbb06 	br	80213c <___vfprintf_internal_r+0xfac>
  802250:	db000417 	ldw	r12,16(sp)
  802254:	003e4a06 	br	801b80 <___vfprintf_internal_r+0x9f0>
  802258:	03002074 	movhi	r12,129
  80225c:	39000450 	cmplti	r4,r7,17
  802260:	d8801b17 	ldw	r2,108(sp)
  802264:	6301fa04 	addi	r12,r12,2024
  802268:	2000321e 	bne	r4,zero,802334 <___vfprintf_internal_r+0x11a4>
  80226c:	dc401115 	stw	r17,68(sp)
  802270:	b009883a 	mov	r4,r22
  802274:	9023883a 	mov	r17,r18
  802278:	a82d883a 	mov	r22,r21
  80227c:	ddc01215 	stw	r23,72(sp)
  802280:	03c00404 	movi	r15,16
  802284:	a02f883a 	mov	r23,r20
  802288:	db800e15 	stw	r14,56(sp)
  80228c:	8029883a 	mov	r20,r16
  802290:	db400f15 	stw	r13,60(sp)
  802294:	402b883a 	mov	r21,r8
  802298:	3821883a 	mov	r16,r7
  80229c:	6025883a 	mov	r18,r12
  8022a0:	00000406 	br	8022b4 <___vfprintf_internal_r+0x1124>
  8022a4:	843ffc04 	addi	r16,r16,-16
  8022a8:	81800448 	cmpgei	r6,r16,17
  8022ac:	21000204 	addi	r4,r4,8
  8022b0:	30001426 	beq	r6,zero,802304 <___vfprintf_internal_r+0x1174>
  8022b4:	10800044 	addi	r2,r2,1
  8022b8:	18c00404 	addi	r3,r3,16
  8022bc:	24800015 	stw	r18,0(r4)
  8022c0:	23c00115 	stw	r15,4(r4)
  8022c4:	d8c01c15 	stw	r3,112(sp)
  8022c8:	d8801b15 	stw	r2,108(sp)
  8022cc:	11800208 	cmpgei	r6,r2,8
  8022d0:	303ff426 	beq	r6,zero,8022a4 <___vfprintf_internal_r+0x1114>
  8022d4:	d9801a04 	addi	r6,sp,104
  8022d8:	880b883a 	mov	r5,r17
  8022dc:	9809883a 	mov	r4,r19
  8022e0:	080853c0 	call	80853c <__sprint_r>
  8022e4:	1001a11e 	bne	r2,zero,80296c <___vfprintf_internal_r+0x17dc>
  8022e8:	843ffc04 	addi	r16,r16,-16
  8022ec:	81800448 	cmpgei	r6,r16,17
  8022f0:	d8c01c17 	ldw	r3,112(sp)
  8022f4:	d8801b17 	ldw	r2,108(sp)
  8022f8:	d9002704 	addi	r4,sp,156
  8022fc:	03c00404 	movi	r15,16
  802300:	303fec1e 	bne	r6,zero,8022b4 <___vfprintf_internal_r+0x1124>
  802304:	800f883a 	mov	r7,r16
  802308:	9019883a 	mov	r12,r18
  80230c:	a021883a 	mov	r16,r20
  802310:	8825883a 	mov	r18,r17
  802314:	b829883a 	mov	r20,r23
  802318:	db800e17 	ldw	r14,56(sp)
  80231c:	db400f17 	ldw	r13,60(sp)
  802320:	ddc01217 	ldw	r23,72(sp)
  802324:	dc401117 	ldw	r17,68(sp)
  802328:	a811883a 	mov	r8,r21
  80232c:	b02b883a 	mov	r21,r22
  802330:	202d883a 	mov	r22,r4
  802334:	10800044 	addi	r2,r2,1
  802338:	19c7883a 	add	r3,r3,r7
  80233c:	d8801b15 	stw	r2,108(sp)
  802340:	b3000015 	stw	r12,0(r22)
  802344:	b1c00115 	stw	r7,4(r22)
  802348:	d8c01c15 	stw	r3,112(sp)
  80234c:	10800208 	cmpgei	r2,r2,8
  802350:	1001781e 	bne	r2,zero,802934 <___vfprintf_internal_r+0x17a4>
  802354:	b5800204 	addi	r22,r22,8
  802358:	003c5f06 	br	8014d8 <___vfprintf_internal_r+0x348>
  80235c:	d9801a04 	addi	r6,sp,104
  802360:	900b883a 	mov	r5,r18
  802364:	9809883a 	mov	r4,r19
  802368:	da000f15 	stw	r8,60(sp)
  80236c:	db400e15 	stw	r13,56(sp)
  802370:	080853c0 	call	80853c <__sprint_r>
  802374:	103c951e 	bne	r2,zero,8015cc <___vfprintf_internal_r+0x43c>
  802378:	d8c01c17 	ldw	r3,112(sp)
  80237c:	da000f17 	ldw	r8,60(sp)
  802380:	db400e17 	ldw	r13,56(sp)
  802384:	dd802704 	addi	r22,sp,156
  802388:	003c6e06 	br	801544 <___vfprintf_internal_r+0x3b4>
  80238c:	d9801a04 	addi	r6,sp,104
  802390:	900b883a 	mov	r5,r18
  802394:	9809883a 	mov	r4,r19
  802398:	da001115 	stw	r8,68(sp)
  80239c:	db400f15 	stw	r13,60(sp)
  8023a0:	db800e15 	stw	r14,56(sp)
  8023a4:	080853c0 	call	80853c <__sprint_r>
  8023a8:	103c881e 	bne	r2,zero,8015cc <___vfprintf_internal_r+0x43c>
  8023ac:	d8c01c17 	ldw	r3,112(sp)
  8023b0:	da001117 	ldw	r8,68(sp)
  8023b4:	db400f17 	ldw	r13,60(sp)
  8023b8:	db800e17 	ldw	r14,56(sp)
  8023bc:	dd802704 	addi	r22,sp,156
  8023c0:	003c5306 	br	801510 <___vfprintf_internal_r+0x380>
  8023c4:	d9401417 	ldw	r5,80(sp)
  8023c8:	01414c0e 	bge	zero,r5,8028fc <___vfprintf_internal_r+0x176c>
  8023cc:	d8800717 	ldw	r2,28(sp)
  8023d0:	d9000817 	ldw	r4,32(sp)
  8023d4:	102b883a 	mov	r21,r2
  8023d8:	2080e316 	blt	r4,r2,802768 <___vfprintf_internal_r+0x15d8>
  8023dc:	05400a0e 	bge	zero,r21,802408 <___vfprintf_internal_r+0x1278>
  8023e0:	d8801b17 	ldw	r2,108(sp)
  8023e4:	1d47883a 	add	r3,r3,r21
  8023e8:	b4400015 	stw	r17,0(r22)
  8023ec:	10800044 	addi	r2,r2,1
  8023f0:	d8801b15 	stw	r2,108(sp)
  8023f4:	b5400115 	stw	r21,4(r22)
  8023f8:	d8c01c15 	stw	r3,112(sp)
  8023fc:	10800208 	cmpgei	r2,r2,8
  802400:	10030c1e 	bne	r2,zero,803034 <___vfprintf_internal_r+0x1ea4>
  802404:	b5800204 	addi	r22,r22,8
  802408:	a800ff16 	blt	r21,zero,802808 <___vfprintf_internal_r+0x1678>
  80240c:	d8800717 	ldw	r2,28(sp)
  802410:	156bc83a 	sub	r21,r2,r21
  802414:	05410616 	blt	zero,r21,802830 <___vfprintf_internal_r+0x16a0>
  802418:	dd401417 	ldw	r21,80(sp)
  80241c:	d8800817 	ldw	r2,32(sp)
  802420:	a880d40e 	bge	r21,r2,802774 <___vfprintf_internal_r+0x15e4>
  802424:	d8800d17 	ldw	r2,52(sp)
  802428:	d9000b17 	ldw	r4,44(sp)
  80242c:	b0800015 	stw	r2,0(r22)
  802430:	d8801b17 	ldw	r2,108(sp)
  802434:	1907883a 	add	r3,r3,r4
  802438:	b1000115 	stw	r4,4(r22)
  80243c:	10800044 	addi	r2,r2,1
  802440:	d8801b15 	stw	r2,108(sp)
  802444:	d8c01c15 	stw	r3,112(sp)
  802448:	10800208 	cmpgei	r2,r2,8
  80244c:	10028e1e 	bne	r2,zero,802e88 <___vfprintf_internal_r+0x1cf8>
  802450:	b5800204 	addi	r22,r22,8
  802454:	d9000817 	ldw	r4,32(sp)
  802458:	d9400717 	ldw	r5,28(sp)
  80245c:	2545c83a 	sub	r2,r4,r21
  802460:	2149c83a 	sub	r4,r4,r5
  802464:	102b883a 	mov	r21,r2
  802468:	2080010e 	bge	r4,r2,802470 <___vfprintf_internal_r+0x12e0>
  80246c:	202b883a 	mov	r21,r4
  802470:	05400c0e 	bge	zero,r21,8024a4 <___vfprintf_internal_r+0x1314>
  802474:	d9000717 	ldw	r4,28(sp)
  802478:	1d47883a 	add	r3,r3,r21
  80247c:	b5400115 	stw	r21,4(r22)
  802480:	8913883a 	add	r9,r17,r4
  802484:	d9001b17 	ldw	r4,108(sp)
  802488:	b2400015 	stw	r9,0(r22)
  80248c:	d8c01c15 	stw	r3,112(sp)
  802490:	21000044 	addi	r4,r4,1
  802494:	d9001b15 	stw	r4,108(sp)
  802498:	21000208 	cmpgei	r4,r4,8
  80249c:	2002f01e 	bne	r4,zero,803060 <___vfprintf_internal_r+0x1ed0>
  8024a0:	b5800204 	addi	r22,r22,8
  8024a4:	a800010e 	bge	r21,zero,8024ac <___vfprintf_internal_r+0x131c>
  8024a8:	002b883a 	mov	r21,zero
  8024ac:	156bc83a 	sub	r21,r2,r21
  8024b0:	057c350e 	bge	zero,r21,801588 <___vfprintf_internal_r+0x3f8>
  8024b4:	01c02074 	movhi	r7,129
  8024b8:	a9000450 	cmplti	r4,r21,17
  8024bc:	d8801b17 	ldw	r2,108(sp)
  8024c0:	39c1f604 	addi	r7,r7,2008
  8024c4:	2001ad1e 	bne	r4,zero,802b7c <___vfprintf_internal_r+0x19ec>
  8024c8:	07000404 	movi	fp,16
  8024cc:	3823883a 	mov	r17,r7
  8024d0:	00000406 	br	8024e4 <___vfprintf_internal_r+0x1354>
  8024d4:	b5800204 	addi	r22,r22,8
  8024d8:	ad7ffc04 	addi	r21,r21,-16
  8024dc:	a9000448 	cmpgei	r4,r21,17
  8024e0:	2001a526 	beq	r4,zero,802b78 <___vfprintf_internal_r+0x19e8>
  8024e4:	10800044 	addi	r2,r2,1
  8024e8:	18c00404 	addi	r3,r3,16
  8024ec:	b4400015 	stw	r17,0(r22)
  8024f0:	b7000115 	stw	fp,4(r22)
  8024f4:	d8c01c15 	stw	r3,112(sp)
  8024f8:	d8801b15 	stw	r2,108(sp)
  8024fc:	11000208 	cmpgei	r4,r2,8
  802500:	203ff426 	beq	r4,zero,8024d4 <___vfprintf_internal_r+0x1344>
  802504:	d9801a04 	addi	r6,sp,104
  802508:	900b883a 	mov	r5,r18
  80250c:	9809883a 	mov	r4,r19
  802510:	080853c0 	call	80853c <__sprint_r>
  802514:	103c2d1e 	bne	r2,zero,8015cc <___vfprintf_internal_r+0x43c>
  802518:	d8c01c17 	ldw	r3,112(sp)
  80251c:	d8801b17 	ldw	r2,108(sp)
  802520:	dd802704 	addi	r22,sp,156
  802524:	003fec06 	br	8024d8 <___vfprintf_internal_r+0x1348>
  802528:	d8800417 	ldw	r2,16(sp)
  80252c:	1080004c 	andi	r2,r2,1
  802530:	103f111e 	bne	r2,zero,802178 <___vfprintf_internal_r+0xfe8>
  802534:	00800044 	movi	r2,1
  802538:	dd401b15 	stw	r21,108(sp)
  80253c:	b4400015 	stw	r17,0(r22)
  802540:	b0800115 	stw	r2,4(r22)
  802544:	d8c01c15 	stw	r3,112(sp)
  802548:	ad400208 	cmpgei	r21,r21,8
  80254c:	a800941e 	bne	r21,zero,8027a0 <___vfprintf_internal_r+0x1610>
  802550:	42000084 	addi	r8,r8,2
  802554:	b5800404 	addi	r22,r22,16
  802558:	003f3306 	br	802228 <___vfprintf_internal_r+0x1098>
  80255c:	4002821e 	bne	r8,zero,802f68 <___vfprintf_internal_r+0x1dd8>
  802560:	0011883a 	mov	r8,zero
  802564:	002b883a 	mov	r21,zero
  802568:	dc402704 	addi	r17,sp,156
  80256c:	003da206 	br	801bf8 <___vfprintf_internal_r+0xa68>
  802570:	02ff2d0e 	bge	zero,r11,802228 <___vfprintf_internal_r+0x1098>
  802574:	58800450 	cmplti	r2,r11,17
  802578:	01c02074 	movhi	r7,129
  80257c:	1003261e 	bne	r2,zero,803218 <___vfprintf_internal_r+0x2088>
  802580:	39c1f604 	addi	r7,r7,2008
  802584:	dc000715 	stw	r16,28(sp)
  802588:	05800404 	movi	r22,16
  80258c:	5823883a 	mov	r17,r11
  802590:	402b883a 	mov	r21,r8
  802594:	3821883a 	mov	r16,r7
  802598:	00000506 	br	8025b0 <___vfprintf_internal_r+0x1420>
  80259c:	e7000204 	addi	fp,fp,8
  8025a0:	8c7ffc04 	addi	r17,r17,-16
  8025a4:	88800448 	cmpgei	r2,r17,17
  8025a8:	1001be26 	beq	r2,zero,802ca4 <___vfprintf_internal_r+0x1b14>
  8025ac:	ad400044 	addi	r21,r21,1
  8025b0:	18c00404 	addi	r3,r3,16
  8025b4:	e4000015 	stw	r16,0(fp)
  8025b8:	e5800115 	stw	r22,4(fp)
  8025bc:	d8c01c15 	stw	r3,112(sp)
  8025c0:	dd401b15 	stw	r21,108(sp)
  8025c4:	a8800208 	cmpgei	r2,r21,8
  8025c8:	103ff426 	beq	r2,zero,80259c <___vfprintf_internal_r+0x140c>
  8025cc:	d9801a04 	addi	r6,sp,104
  8025d0:	900b883a 	mov	r5,r18
  8025d4:	9809883a 	mov	r4,r19
  8025d8:	080853c0 	call	80853c <__sprint_r>
  8025dc:	103bfb1e 	bne	r2,zero,8015cc <___vfprintf_internal_r+0x43c>
  8025e0:	dd401b17 	ldw	r21,108(sp)
  8025e4:	d8c01c17 	ldw	r3,112(sp)
  8025e8:	df002704 	addi	fp,sp,156
  8025ec:	003fec06 	br	8025a0 <___vfprintf_internal_r+0x1410>
  8025f0:	d9801a04 	addi	r6,sp,104
  8025f4:	900b883a 	mov	r5,r18
  8025f8:	9809883a 	mov	r4,r19
  8025fc:	080853c0 	call	80853c <__sprint_r>
  802600:	103bf21e 	bne	r2,zero,8015cc <___vfprintf_internal_r+0x43c>
  802604:	d8c01c17 	ldw	r3,112(sp)
  802608:	dd802704 	addi	r22,sp,156
  80260c:	003bd106 	br	801554 <___vfprintf_internal_r+0x3c4>
  802610:	d8800417 	ldw	r2,16(sp)
  802614:	1080004c 	andi	r2,r2,1
  802618:	103bdb26 	beq	r2,zero,801588 <___vfprintf_internal_r+0x3f8>
  80261c:	003df106 	br	801de4 <___vfprintf_internal_r+0xc54>
  802620:	dc402704 	addi	r17,sp,156
  802624:	003d7406 	br	801bf8 <___vfprintf_internal_r+0xa68>
  802628:	d9000517 	ldw	r4,20(sp)
  80262c:	2005d7fa 	srai	r2,r4,31
  802630:	19000015 	stw	r4,0(r3)
  802634:	18800115 	stw	r2,4(r3)
  802638:	003b0906 	br	801260 <___vfprintf_internal_r+0xd0>
  80263c:	00800c04 	movi	r2,48
  802640:	d8801385 	stb	r2,78(sp)
  802644:	df0013c5 	stb	fp,79(sp)
  802648:	63000094 	ori	r12,r12,2
  80264c:	00800084 	movi	r2,2
  802650:	003c1206 	br	80169c <___vfprintf_internal_r+0x50c>
  802654:	25000017 	ldw	r20,0(r4)
  802658:	002b883a 	mov	r21,zero
  80265c:	d8c00615 	stw	r3,24(sp)
  802660:	003ce906 	br	801a08 <___vfprintf_internal_r+0x878>
  802664:	25000017 	ldw	r20,0(r4)
  802668:	002b883a 	mov	r21,zero
  80266c:	d8c00615 	stw	r3,24(sp)
  802670:	0005883a 	mov	r2,zero
  802674:	003c0906 	br	80169c <___vfprintf_internal_r+0x50c>
  802678:	25000017 	ldw	r20,0(r4)
  80267c:	002b883a 	mov	r21,zero
  802680:	d8c00615 	stw	r3,24(sp)
  802684:	00800044 	movi	r2,1
  802688:	003c0406 	br	80169c <___vfprintf_internal_r+0x50c>
  80268c:	25000017 	ldw	r20,0(r4)
  802690:	d8c00615 	stw	r3,24(sp)
  802694:	a02bd7fa 	srai	r21,r20,31
  802698:	a805883a 	mov	r2,r21
  80269c:	003cb806 	br	801980 <___vfprintf_internal_r+0x7f0>
  8026a0:	18800017 	ldw	r2,0(r3)
  8026a4:	d8800915 	stw	r2,36(sp)
  8026a8:	18800117 	ldw	r2,4(r3)
  8026ac:	d8800a15 	stw	r2,40(sp)
  8026b0:	003c3006 	br	801774 <___vfprintf_internal_r+0x5e4>
  8026b4:	db401343 	ldbu	r13,77(sp)
  8026b8:	a83cbc26 	beq	r21,zero,8019ac <___vfprintf_internal_r+0x81c>
  8026bc:	dc402704 	addi	r17,sp,156
  8026c0:	a805883a 	mov	r2,r21
  8026c4:	dc000715 	stw	r16,28(sp)
  8026c8:	902b883a 	mov	r21,r18
  8026cc:	8821883a 	mov	r16,r17
  8026d0:	db000415 	stw	r12,16(sp)
  8026d4:	a023883a 	mov	r17,r20
  8026d8:	da000e15 	stw	r8,56(sp)
  8026dc:	9829883a 	mov	r20,r19
  8026e0:	1025883a 	mov	r18,r2
  8026e4:	6827883a 	mov	r19,r13
  8026e8:	8809883a 	mov	r4,r17
  8026ec:	900b883a 	mov	r5,r18
  8026f0:	01800284 	movi	r6,10
  8026f4:	000f883a 	mov	r7,zero
  8026f8:	080ad9c0 	call	80ad9c <__umoddi3>
  8026fc:	10800c04 	addi	r2,r2,48
  802700:	8809883a 	mov	r4,r17
  802704:	900b883a 	mov	r5,r18
  802708:	01800284 	movi	r6,10
  80270c:	000f883a 	mov	r7,zero
  802710:	80bfffc5 	stb	r2,-1(r16)
  802714:	080a7800 	call	80a780 <__udivdi3>
  802718:	900d883a 	mov	r6,r18
  80271c:	880f883a 	mov	r7,r17
  802720:	843fffc4 	addi	r16,r16,-1
  802724:	1023883a 	mov	r17,r2
  802728:	1825883a 	mov	r18,r3
  80272c:	303fee1e 	bne	r6,zero,8026e8 <___vfprintf_internal_r+0x1558>
  802730:	39c002a8 	cmpgeui	r7,r7,10
  802734:	383fec1e 	bne	r7,zero,8026e8 <___vfprintf_internal_r+0x1558>
  802738:	8023883a 	mov	r17,r16
  80273c:	d8802704 	addi	r2,sp,156
  802740:	981b883a 	mov	r13,r19
  802744:	a825883a 	mov	r18,r21
  802748:	dc000717 	ldw	r16,28(sp)
  80274c:	da000e17 	ldw	r8,56(sp)
  802750:	a027883a 	mov	r19,r20
  802754:	146bc83a 	sub	r21,r2,r17
  802758:	003d2706 	br	801bf8 <___vfprintf_internal_r+0xa68>
  80275c:	0421c83a 	sub	r16,zero,r16
  802760:	d8800615 	stw	r2,24(sp)
  802764:	003d4506 	br	801c7c <___vfprintf_internal_r+0xaec>
  802768:	202b883a 	mov	r21,r4
  80276c:	057f1c16 	blt	zero,r21,8023e0 <___vfprintf_internal_r+0x1250>
  802770:	003f2506 	br	802408 <___vfprintf_internal_r+0x1278>
  802774:	d8800417 	ldw	r2,16(sp)
  802778:	1080004c 	andi	r2,r2,1
  80277c:	103f291e 	bne	r2,zero,802424 <___vfprintf_internal_r+0x1294>
  802780:	d9000817 	ldw	r4,32(sp)
  802784:	d9400717 	ldw	r5,28(sp)
  802788:	2545c83a 	sub	r2,r4,r21
  80278c:	2179c83a 	sub	fp,r4,r5
  802790:	102b883a 	mov	r21,r2
  802794:	e0bf430e 	bge	fp,r2,8024a4 <___vfprintf_internal_r+0x1314>
  802798:	e02b883a 	mov	r21,fp
  80279c:	003f4106 	br	8024a4 <___vfprintf_internal_r+0x1314>
  8027a0:	d9801a04 	addi	r6,sp,104
  8027a4:	900b883a 	mov	r5,r18
  8027a8:	9809883a 	mov	r4,r19
  8027ac:	080853c0 	call	80853c <__sprint_r>
  8027b0:	103b861e 	bne	r2,zero,8015cc <___vfprintf_internal_r+0x43c>
  8027b4:	da001b17 	ldw	r8,108(sp)
  8027b8:	d8c01c17 	ldw	r3,112(sp)
  8027bc:	dd802904 	addi	r22,sp,164
  8027c0:	42000044 	addi	r8,r8,1
  8027c4:	df002704 	addi	fp,sp,156
  8027c8:	003e9706 	br	802228 <___vfprintf_internal_r+0x1098>
  8027cc:	bf000043 	ldbu	fp,1(r23)
  8027d0:	63000814 	ori	r12,r12,32
  8027d4:	bdc00044 	addi	r23,r23,1
  8027d8:	e2c03fcc 	andi	r11,fp,255
  8027dc:	5ac0201c 	xori	r11,r11,128
  8027e0:	5affe004 	addi	r11,r11,-128
  8027e4:	003ab606 	br	8012c0 <___vfprintf_internal_r+0x130>
  8027e8:	d9801a04 	addi	r6,sp,104
  8027ec:	900b883a 	mov	r5,r18
  8027f0:	9809883a 	mov	r4,r19
  8027f4:	080853c0 	call	80853c <__sprint_r>
  8027f8:	103b741e 	bne	r2,zero,8015cc <___vfprintf_internal_r+0x43c>
  8027fc:	d8c01c17 	ldw	r3,112(sp)
  802800:	dd802704 	addi	r22,sp,156
  802804:	003d8306 	br	801e14 <___vfprintf_internal_r+0xc84>
  802808:	002b883a 	mov	r21,zero
  80280c:	003eff06 	br	80240c <___vfprintf_internal_r+0x127c>
  802810:	408001f0 	cmpltui	r2,r8,7
  802814:	402b883a 	mov	r21,r8
  802818:	1001a426 	beq	r2,zero,802eac <___vfprintf_internal_r+0x1d1c>
  80281c:	04402074 	movhi	r17,129
  802820:	a829883a 	mov	r20,r21
  802824:	d8c00615 	stw	r3,24(sp)
  802828:	8c41f304 	addi	r17,r17,1996
  80282c:	003b1d06 	br	8014a4 <___vfprintf_internal_r+0x314>
  802830:	01c02074 	movhi	r7,129
  802834:	a9000450 	cmplti	r4,r21,17
  802838:	d8801b17 	ldw	r2,108(sp)
  80283c:	39c1f604 	addi	r7,r7,2008
  802840:	20017f1e 	bne	r4,zero,802e40 <___vfprintf_internal_r+0x1cb0>
  802844:	dc000e15 	stw	r16,56(sp)
  802848:	07000404 	movi	fp,16
  80284c:	3821883a 	mov	r16,r7
  802850:	00000406 	br	802864 <___vfprintf_internal_r+0x16d4>
  802854:	b5800204 	addi	r22,r22,8
  802858:	ad7ffc04 	addi	r21,r21,-16
  80285c:	a9000448 	cmpgei	r4,r21,17
  802860:	20017526 	beq	r4,zero,802e38 <___vfprintf_internal_r+0x1ca8>
  802864:	10800044 	addi	r2,r2,1
  802868:	18c00404 	addi	r3,r3,16
  80286c:	b4000015 	stw	r16,0(r22)
  802870:	b7000115 	stw	fp,4(r22)
  802874:	d8c01c15 	stw	r3,112(sp)
  802878:	d8801b15 	stw	r2,108(sp)
  80287c:	11000208 	cmpgei	r4,r2,8
  802880:	203ff426 	beq	r4,zero,802854 <___vfprintf_internal_r+0x16c4>
  802884:	d9801a04 	addi	r6,sp,104
  802888:	900b883a 	mov	r5,r18
  80288c:	9809883a 	mov	r4,r19
  802890:	080853c0 	call	80853c <__sprint_r>
  802894:	103b4d1e 	bne	r2,zero,8015cc <___vfprintf_internal_r+0x43c>
  802898:	d8c01c17 	ldw	r3,112(sp)
  80289c:	d8801b17 	ldw	r2,108(sp)
  8028a0:	dd802704 	addi	r22,sp,156
  8028a4:	003fec06 	br	802858 <___vfprintf_internal_r+0x16c8>
  8028a8:	d8800517 	ldw	r2,20(sp)
  8028ac:	18800015 	stw	r2,0(r3)
  8028b0:	003a6b06 	br	801260 <___vfprintf_internal_r+0xd0>
  8028b4:	d9801a04 	addi	r6,sp,104
  8028b8:	900b883a 	mov	r5,r18
  8028bc:	9809883a 	mov	r4,r19
  8028c0:	080853c0 	call	80853c <__sprint_r>
  8028c4:	103b411e 	bne	r2,zero,8015cc <___vfprintf_internal_r+0x43c>
  8028c8:	d8c01c17 	ldw	r3,112(sp)
  8028cc:	dd401b17 	ldw	r21,108(sp)
  8028d0:	df002704 	addi	fp,sp,156
  8028d4:	003e3a06 	br	8021c0 <___vfprintf_internal_r+0x1030>
  8028d8:	d9801a04 	addi	r6,sp,104
  8028dc:	900b883a 	mov	r5,r18
  8028e0:	9809883a 	mov	r4,r19
  8028e4:	080853c0 	call	80853c <__sprint_r>
  8028e8:	103b381e 	bne	r2,zero,8015cc <___vfprintf_internal_r+0x43c>
  8028ec:	d8c01c17 	ldw	r3,112(sp)
  8028f0:	dd401b17 	ldw	r21,108(sp)
  8028f4:	df002704 	addi	fp,sp,156
  8028f8:	003e2606 	br	802194 <___vfprintf_internal_r+0x1004>
  8028fc:	d8801b17 	ldw	r2,108(sp)
  802900:	01002074 	movhi	r4,129
  802904:	2101f504 	addi	r4,r4,2004
  802908:	10800044 	addi	r2,r2,1
  80290c:	18c00044 	addi	r3,r3,1
  802910:	b1000015 	stw	r4,0(r22)
  802914:	01000044 	movi	r4,1
  802918:	d8801b15 	stw	r2,108(sp)
  80291c:	b1000115 	stw	r4,4(r22)
  802920:	d8c01c15 	stw	r3,112(sp)
  802924:	10800208 	cmpgei	r2,r2,8
  802928:	103de11e 	bne	r2,zero,8020b0 <___vfprintf_internal_r+0xf20>
  80292c:	b5800204 	addi	r22,r22,8
  802930:	003de706 	br	8020d0 <___vfprintf_internal_r+0xf40>
  802934:	d9801a04 	addi	r6,sp,104
  802938:	900b883a 	mov	r5,r18
  80293c:	9809883a 	mov	r4,r19
  802940:	da001115 	stw	r8,68(sp)
  802944:	db400f15 	stw	r13,60(sp)
  802948:	db800e15 	stw	r14,56(sp)
  80294c:	080853c0 	call	80853c <__sprint_r>
  802950:	103b1e1e 	bne	r2,zero,8015cc <___vfprintf_internal_r+0x43c>
  802954:	d8c01c17 	ldw	r3,112(sp)
  802958:	da001117 	ldw	r8,68(sp)
  80295c:	db400f17 	ldw	r13,60(sp)
  802960:	db800e17 	ldw	r14,56(sp)
  802964:	dd802704 	addi	r22,sp,156
  802968:	003adb06 	br	8014d8 <___vfprintf_internal_r+0x348>
  80296c:	8825883a 	mov	r18,r17
  802970:	003b1606 	br	8015cc <___vfprintf_internal_r+0x43c>
  802974:	d9000917 	ldw	r4,36(sp)
  802978:	d9400a17 	ldw	r5,40(sp)
  80297c:	da000615 	stw	r8,24(sp)
  802980:	200d883a 	mov	r6,r4
  802984:	280f883a 	mov	r7,r5
  802988:	db000415 	stw	r12,16(sp)
  80298c:	080dafc0 	call	80dafc <__unorddf2>
  802990:	db000417 	ldw	r12,16(sp)
  802994:	da000617 	ldw	r8,24(sp)
  802998:	1002091e 	bne	r2,zero,8031c0 <___vfprintf_internal_r+0x2030>
  80299c:	057ff7c4 	movi	r21,-33
  8029a0:	40bfffe0 	cmpeqi	r2,r8,-1
  8029a4:	e56a703a 	and	r21,fp,r21
  8029a8:	1001ab1e 	bne	r2,zero,803058 <___vfprintf_internal_r+0x1ec8>
  8029ac:	a88011d8 	cmpnei	r2,r21,71
  8029b0:	10015726 	beq	r2,zero,802f10 <___vfprintf_internal_r+0x1d80>
  8029b4:	60804014 	ori	r2,r12,256
  8029b8:	d8800415 	stw	r2,16(sp)
  8029bc:	d8800a17 	ldw	r2,40(sp)
  8029c0:	10012d16 	blt	r2,zero,802e78 <___vfprintf_internal_r+0x1ce8>
  8029c4:	dd000a17 	ldw	r20,40(sp)
  8029c8:	d8000605 	stb	zero,24(sp)
  8029cc:	e08019a0 	cmpeqi	r2,fp,102
  8029d0:	d8800f15 	stw	r2,60(sp)
  8029d4:	1000c31e 	bne	r2,zero,802ce4 <___vfprintf_internal_r+0x1b54>
  8029d8:	e08011a0 	cmpeqi	r2,fp,70
  8029dc:	1000c11e 	bne	r2,zero,802ce4 <___vfprintf_internal_r+0x1b54>
  8029e0:	a8801158 	cmpnei	r2,r21,69
  8029e4:	10016226 	beq	r2,zero,802f70 <___vfprintf_internal_r+0x1de0>
  8029e8:	d8801804 	addi	r2,sp,96
  8029ec:	d8800315 	stw	r2,12(sp)
  8029f0:	d9400917 	ldw	r5,36(sp)
  8029f4:	d8801504 	addi	r2,sp,84
  8029f8:	d8800215 	stw	r2,8(sp)
  8029fc:	d8801404 	addi	r2,sp,80
  802a00:	da000015 	stw	r8,0(sp)
  802a04:	9809883a 	mov	r4,r19
  802a08:	d8800115 	stw	r2,4(sp)
  802a0c:	01c00084 	movi	r7,2
  802a10:	a00d883a 	mov	r6,r20
  802a14:	db000815 	stw	r12,32(sp)
  802a18:	da000715 	stw	r8,28(sp)
  802a1c:	08036d40 	call	8036d4 <_dtoa_r>
  802a20:	da000717 	ldw	r8,28(sp)
  802a24:	e10019d8 	cmpnei	r4,fp,103
  802a28:	db000817 	ldw	r12,32(sp)
  802a2c:	1023883a 	mov	r17,r2
  802a30:	4007883a 	mov	r3,r8
  802a34:	2001621e 	bne	r4,zero,802fc0 <___vfprintf_internal_r+0x1e30>
  802a38:	6080004c 	andi	r2,r12,1
  802a3c:	1001621e 	bne	r2,zero,802fc8 <___vfprintf_internal_r+0x1e38>
  802a40:	d8801417 	ldw	r2,80(sp)
  802a44:	ad4011e0 	cmpeqi	r21,r21,71
  802a48:	d8800715 	stw	r2,28(sp)
  802a4c:	d8801817 	ldw	r2,96(sp)
  802a50:	1445c83a 	sub	r2,r2,r17
  802a54:	d8800815 	stw	r2,32(sp)
  802a58:	a8000526 	beq	r21,zero,802a70 <___vfprintf_internal_r+0x18e0>
  802a5c:	d8c00717 	ldw	r3,28(sp)
  802a60:	18bfff50 	cmplti	r2,r3,-3
  802a64:	1000011e 	bne	r2,zero,802a6c <___vfprintf_internal_r+0x18dc>
  802a68:	40c1670e 	bge	r8,r3,803008 <___vfprintf_internal_r+0x1e78>
  802a6c:	e73fff84 	addi	fp,fp,-2
  802a70:	d8800717 	ldw	r2,28(sp)
  802a74:	df001645 	stb	fp,89(sp)
  802a78:	157fffc4 	addi	r21,r2,-1
  802a7c:	dd401415 	stw	r21,80(sp)
  802a80:	a801c316 	blt	r21,zero,803190 <___vfprintf_internal_r+0x2000>
  802a84:	00800ac4 	movi	r2,43
  802a88:	d8801685 	stb	r2,90(sp)
  802a8c:	a8800290 	cmplti	r2,r21,10
  802a90:	1001b81e 	bne	r2,zero,803174 <___vfprintf_internal_r+0x1fe4>
  802a94:	d98019c4 	addi	r6,sp,103
  802a98:	9029883a 	mov	r20,r18
  802a9c:	dc400715 	stw	r17,28(sp)
  802aa0:	8025883a 	mov	r18,r16
  802aa4:	db000f15 	stw	r12,60(sp)
  802aa8:	3021883a 	mov	r16,r6
  802aac:	a809883a 	mov	r4,r21
  802ab0:	01400284 	movi	r5,10
  802ab4:	080b3e00 	call	80b3e0 <__modsi3>
  802ab8:	10800c04 	addi	r2,r2,48
  802abc:	a809883a 	mov	r4,r21
  802ac0:	80bfffc5 	stb	r2,-1(r16)
  802ac4:	01400284 	movi	r5,10
  802ac8:	080b3600 	call	80b360 <__divsi3>
  802acc:	a9001908 	cmpgei	r4,r21,100
  802ad0:	8023883a 	mov	r17,r16
  802ad4:	102b883a 	mov	r21,r2
  802ad8:	843fffc4 	addi	r16,r16,-1
  802adc:	203ff31e 	bne	r4,zero,802aac <___vfprintf_internal_r+0x191c>
  802ae0:	800d883a 	mov	r6,r16
  802ae4:	11000c04 	addi	r4,r2,48
  802ae8:	9021883a 	mov	r16,r18
  802aec:	a025883a 	mov	r18,r20
  802af0:	8829883a 	mov	r20,r17
  802af4:	a0bfff84 	addi	r2,r20,-2
  802af8:	313fffc5 	stb	r4,-1(r6)
  802afc:	d8c019c4 	addi	r3,sp,103
  802b00:	db000f17 	ldw	r12,60(sp)
  802b04:	dc400717 	ldw	r17,28(sp)
  802b08:	10c1cd2e 	bgeu	r2,r3,803240 <___vfprintf_internal_r+0x20b0>
  802b0c:	d8c016c4 	addi	r3,sp,91
  802b10:	00000106 	br	802b18 <___vfprintf_internal_r+0x1988>
  802b14:	11000003 	ldbu	r4,0(r2)
  802b18:	19000005 	stb	r4,0(r3)
  802b1c:	10800044 	addi	r2,r2,1
  802b20:	d90019c4 	addi	r4,sp,103
  802b24:	18c00044 	addi	r3,r3,1
  802b28:	113ffa1e 	bne	r2,r4,802b14 <___vfprintf_internal_r+0x1984>
  802b2c:	d8801a44 	addi	r2,sp,105
  802b30:	d8c016c4 	addi	r3,sp,91
  802b34:	1505c83a 	sub	r2,r2,r20
  802b38:	1885883a 	add	r2,r3,r2
  802b3c:	d8c01644 	addi	r3,sp,89
  802b40:	10c5c83a 	sub	r2,r2,r3
  802b44:	d8801015 	stw	r2,64(sp)
  802b48:	d8c00817 	ldw	r3,32(sp)
  802b4c:	d9001017 	ldw	r4,64(sp)
  802b50:	18800088 	cmpgei	r2,r3,2
  802b54:	20eb883a 	add	r21,r4,r3
  802b58:	10019226 	beq	r2,zero,8031a4 <___vfprintf_internal_r+0x2014>
  802b5c:	d8800b17 	ldw	r2,44(sp)
  802b60:	a8ab883a 	add	r21,r21,r2
  802b64:	a829883a 	mov	r20,r21
  802b68:	a800010e 	bge	r21,zero,802b70 <___vfprintf_internal_r+0x19e0>
  802b6c:	0029883a 	mov	r20,zero
  802b70:	d8000715 	stw	zero,28(sp)
  802b74:	00008e06 	br	802db0 <___vfprintf_internal_r+0x1c20>
  802b78:	880f883a 	mov	r7,r17
  802b7c:	10800044 	addi	r2,r2,1
  802b80:	1d47883a 	add	r3,r3,r21
  802b84:	b1c00015 	stw	r7,0(r22)
  802b88:	003a7906 	br	801570 <___vfprintf_internal_r+0x3e0>
  802b8c:	d9801a04 	addi	r6,sp,104
  802b90:	900b883a 	mov	r5,r18
  802b94:	9809883a 	mov	r4,r19
  802b98:	080853c0 	call	80853c <__sprint_r>
  802b9c:	103a8b1e 	bne	r2,zero,8015cc <___vfprintf_internal_r+0x43c>
  802ba0:	d8c01c17 	ldw	r3,112(sp)
  802ba4:	dd802704 	addi	r22,sp,156
  802ba8:	003c8b06 	br	801dd8 <___vfprintf_internal_r+0xc48>
  802bac:	d9801a04 	addi	r6,sp,104
  802bb0:	900b883a 	mov	r5,r18
  802bb4:	9809883a 	mov	r4,r19
  802bb8:	da000e15 	stw	r8,56(sp)
  802bbc:	080853c0 	call	80853c <__sprint_r>
  802bc0:	103a821e 	bne	r2,zero,8015cc <___vfprintf_internal_r+0x43c>
  802bc4:	d8c01c17 	ldw	r3,112(sp)
  802bc8:	da000e17 	ldw	r8,56(sp)
  802bcc:	dd802704 	addi	r22,sp,156
  802bd0:	003a5e06 	br	80154c <___vfprintf_internal_r+0x3bc>
  802bd4:	8809883a 	mov	r4,r17
  802bd8:	db000415 	stw	r12,16(sp)
  802bdc:	d8c00615 	stw	r3,24(sp)
  802be0:	08010f80 	call	8010f8 <strlen>
  802be4:	db000417 	ldw	r12,16(sp)
  802be8:	102b883a 	mov	r21,r2
  802bec:	1029883a 	mov	r20,r2
  802bf0:	003a2c06 	br	8014a4 <___vfprintf_internal_r+0x314>
  802bf4:	d8800d17 	ldw	r2,52(sp)
  802bf8:	d9000b17 	ldw	r4,44(sp)
  802bfc:	b0800015 	stw	r2,0(r22)
  802c00:	d8801b17 	ldw	r2,108(sp)
  802c04:	20c7883a 	add	r3,r4,r3
  802c08:	b1000115 	stw	r4,4(r22)
  802c0c:	10800044 	addi	r2,r2,1
  802c10:	d8c01c15 	stw	r3,112(sp)
  802c14:	d8801b15 	stw	r2,108(sp)
  802c18:	11000208 	cmpgei	r4,r2,8
  802c1c:	2000bf1e 	bne	r4,zero,802f1c <___vfprintf_internal_r+0x1d8c>
  802c20:	b5800204 	addi	r22,r22,8
  802c24:	283d3c0e 	bge	r5,zero,802118 <___vfprintf_internal_r+0xf88>
  802c28:	01c02074 	movhi	r7,129
  802c2c:	293ffc08 	cmpgei	r4,r5,-16
  802c30:	39c1f604 	addi	r7,r7,2008
  802c34:	0179c83a 	sub	fp,zero,r5
  802c38:	2001361e 	bne	r4,zero,803114 <___vfprintf_internal_r+0x1f84>
  802c3c:	dc000715 	stw	r16,28(sp)
  802c40:	05400404 	movi	r21,16
  802c44:	9021883a 	mov	r16,r18
  802c48:	3825883a 	mov	r18,r7
  802c4c:	00000406 	br	802c60 <___vfprintf_internal_r+0x1ad0>
  802c50:	b5800204 	addi	r22,r22,8
  802c54:	e73ffc04 	addi	fp,fp,-16
  802c58:	e1800448 	cmpgei	r6,fp,17
  802c5c:	30012a26 	beq	r6,zero,803108 <___vfprintf_internal_r+0x1f78>
  802c60:	10800044 	addi	r2,r2,1
  802c64:	18c00404 	addi	r3,r3,16
  802c68:	b4800015 	stw	r18,0(r22)
  802c6c:	b5400115 	stw	r21,4(r22)
  802c70:	d8c01c15 	stw	r3,112(sp)
  802c74:	d8801b15 	stw	r2,108(sp)
  802c78:	11800208 	cmpgei	r6,r2,8
  802c7c:	303ff426 	beq	r6,zero,802c50 <___vfprintf_internal_r+0x1ac0>
  802c80:	d9801a04 	addi	r6,sp,104
  802c84:	800b883a 	mov	r5,r16
  802c88:	9809883a 	mov	r4,r19
  802c8c:	080853c0 	call	80853c <__sprint_r>
  802c90:	10015f1e 	bne	r2,zero,803210 <___vfprintf_internal_r+0x2080>
  802c94:	d8c01c17 	ldw	r3,112(sp)
  802c98:	d8801b17 	ldw	r2,108(sp)
  802c9c:	dd802704 	addi	r22,sp,156
  802ca0:	003fec06 	br	802c54 <___vfprintf_internal_r+0x1ac4>
  802ca4:	800f883a 	mov	r7,r16
  802ca8:	dc000717 	ldw	r16,28(sp)
  802cac:	8817883a 	mov	r11,r17
  802cb0:	aa000044 	addi	r8,r21,1
  802cb4:	e0800204 	addi	r2,fp,8
  802cb8:	1ac7883a 	add	r3,r3,r11
  802cbc:	e1c00015 	stw	r7,0(fp)
  802cc0:	e2c00115 	stw	r11,4(fp)
  802cc4:	d8c01c15 	stw	r3,112(sp)
  802cc8:	da001b15 	stw	r8,108(sp)
  802ccc:	41000208 	cmpgei	r4,r8,8
  802cd0:	203eb31e 	bne	r4,zero,8027a0 <___vfprintf_internal_r+0x1610>
  802cd4:	42000044 	addi	r8,r8,1
  802cd8:	15800204 	addi	r22,r2,8
  802cdc:	1039883a 	mov	fp,r2
  802ce0:	003d5106 	br	802228 <___vfprintf_internal_r+0x1098>
  802ce4:	d8801804 	addi	r2,sp,96
  802ce8:	d8800315 	stw	r2,12(sp)
  802cec:	d9400917 	ldw	r5,36(sp)
  802cf0:	d8801504 	addi	r2,sp,84
  802cf4:	d8800215 	stw	r2,8(sp)
  802cf8:	d8801404 	addi	r2,sp,80
  802cfc:	da000015 	stw	r8,0(sp)
  802d00:	d8800115 	stw	r2,4(sp)
  802d04:	01c000c4 	movi	r7,3
  802d08:	a00d883a 	mov	r6,r20
  802d0c:	9809883a 	mov	r4,r19
  802d10:	db000815 	stw	r12,32(sp)
  802d14:	da000715 	stw	r8,28(sp)
  802d18:	08036d40 	call	8036d4 <_dtoa_r>
  802d1c:	da000717 	ldw	r8,28(sp)
  802d20:	1023883a 	mov	r17,r2
  802d24:	db000817 	ldw	r12,32(sp)
  802d28:	1207883a 	add	r3,r2,r8
  802d2c:	88800007 	ldb	r2,0(r17)
  802d30:	10800c20 	cmpeqi	r2,r2,48
  802d34:	1000661e 	bne	r2,zero,802ed0 <___vfprintf_internal_r+0x1d40>
  802d38:	d8801417 	ldw	r2,80(sp)
  802d3c:	1893883a 	add	r9,r3,r2
  802d40:	d9000917 	ldw	r4,36(sp)
  802d44:	000d883a 	mov	r6,zero
  802d48:	000f883a 	mov	r7,zero
  802d4c:	a00b883a 	mov	r5,r20
  802d50:	da401115 	stw	r9,68(sp)
  802d54:	da000815 	stw	r8,32(sp)
  802d58:	db000715 	stw	r12,28(sp)
  802d5c:	080c7c00 	call	80c7c0 <__eqdf2>
  802d60:	db000717 	ldw	r12,28(sp)
  802d64:	da000817 	ldw	r8,32(sp)
  802d68:	da401117 	ldw	r9,68(sp)
  802d6c:	1000981e 	bne	r2,zero,802fd0 <___vfprintf_internal_r+0x1e40>
  802d70:	4805883a 	mov	r2,r9
  802d74:	d8c01417 	ldw	r3,80(sp)
  802d78:	1445c83a 	sub	r2,r2,r17
  802d7c:	ad4011d8 	cmpnei	r21,r21,71
  802d80:	d8c00715 	stw	r3,28(sp)
  802d84:	d8800815 	stw	r2,32(sp)
  802d88:	a83f3426 	beq	r21,zero,802a5c <___vfprintf_internal_r+0x18cc>
  802d8c:	d8800f17 	ldw	r2,60(sp)
  802d90:	103f3726 	beq	r2,zero,802a70 <___vfprintf_internal_r+0x18e0>
  802d94:	d8c00717 	ldw	r3,28(sp)
  802d98:	6080004c 	andi	r2,r12,1
  802d9c:	1204b03a 	or	r2,r2,r8
  802da0:	00c1130e 	bge	zero,r3,8031f0 <___vfprintf_internal_r+0x2060>
  802da4:	10010e1e 	bne	r2,zero,8031e0 <___vfprintf_internal_r+0x2050>
  802da8:	dd400717 	ldw	r21,28(sp)
  802dac:	a829883a 	mov	r20,r21
  802db0:	d8800607 	ldb	r2,24(sp)
  802db4:	10008f26 	beq	r2,zero,802ff4 <___vfprintf_internal_r+0x1e64>
  802db8:	00800b44 	movi	r2,45
  802dbc:	d8801345 	stb	r2,77(sp)
  802dc0:	d8800e17 	ldw	r2,56(sp)
  802dc4:	0011883a 	mov	r8,zero
  802dc8:	d8800615 	stw	r2,24(sp)
  802dcc:	003b9206 	br	801c18 <___vfprintf_internal_r+0xa88>
  802dd0:	04402074 	movhi	r17,129
  802dd4:	8c41e504 	addi	r17,r17,1940
  802dd8:	003a8b06 	br	801808 <___vfprintf_internal_r+0x678>
  802ddc:	d8800617 	ldw	r2,24(sp)
  802de0:	d8c00615 	stw	r3,24(sp)
  802de4:	15000017 	ldw	r20,0(r2)
  802de8:	a02bd7fa 	srai	r21,r20,31
  802dec:	a805883a 	mov	r2,r21
  802df0:	003ae306 	br	801980 <___vfprintf_internal_r+0x7f0>
  802df4:	d8800617 	ldw	r2,24(sp)
  802df8:	002b883a 	mov	r21,zero
  802dfc:	d8c00615 	stw	r3,24(sp)
  802e00:	15000017 	ldw	r20,0(r2)
  802e04:	0005883a 	mov	r2,zero
  802e08:	003a2406 	br	80169c <___vfprintf_internal_r+0x50c>
  802e0c:	d8800617 	ldw	r2,24(sp)
  802e10:	002b883a 	mov	r21,zero
  802e14:	d8c00615 	stw	r3,24(sp)
  802e18:	15000017 	ldw	r20,0(r2)
  802e1c:	00800044 	movi	r2,1
  802e20:	003a1e06 	br	80169c <___vfprintf_internal_r+0x50c>
  802e24:	d8800617 	ldw	r2,24(sp)
  802e28:	002b883a 	mov	r21,zero
  802e2c:	d8c00615 	stw	r3,24(sp)
  802e30:	15000017 	ldw	r20,0(r2)
  802e34:	003af406 	br	801a08 <___vfprintf_internal_r+0x878>
  802e38:	800f883a 	mov	r7,r16
  802e3c:	dc000e17 	ldw	r16,56(sp)
  802e40:	10800044 	addi	r2,r2,1
  802e44:	1d47883a 	add	r3,r3,r21
  802e48:	d8801b15 	stw	r2,108(sp)
  802e4c:	b1c00015 	stw	r7,0(r22)
  802e50:	b5400115 	stw	r21,4(r22)
  802e54:	d8c01c15 	stw	r3,112(sp)
  802e58:	10800208 	cmpgei	r2,r2,8
  802e5c:	10003a1e 	bne	r2,zero,802f48 <___vfprintf_internal_r+0x1db8>
  802e60:	b5800204 	addi	r22,r22,8
  802e64:	003d6c06 	br	802418 <___vfprintf_internal_r+0x1288>
  802e68:	00800b44 	movi	r2,45
  802e6c:	d8801345 	stb	r2,77(sp)
  802e70:	03400b44 	movi	r13,45
  802e74:	003a6006 	br	8017f8 <___vfprintf_internal_r+0x668>
  802e78:	1520003c 	xorhi	r20,r2,32768
  802e7c:	00800b44 	movi	r2,45
  802e80:	d8800605 	stb	r2,24(sp)
  802e84:	003ed106 	br	8029cc <___vfprintf_internal_r+0x183c>
  802e88:	d9801a04 	addi	r6,sp,104
  802e8c:	900b883a 	mov	r5,r18
  802e90:	9809883a 	mov	r4,r19
  802e94:	080853c0 	call	80853c <__sprint_r>
  802e98:	1039cc1e 	bne	r2,zero,8015cc <___vfprintf_internal_r+0x43c>
  802e9c:	dd401417 	ldw	r21,80(sp)
  802ea0:	d8c01c17 	ldw	r3,112(sp)
  802ea4:	dd802704 	addi	r22,sp,156
  802ea8:	003d6a06 	br	802454 <___vfprintf_internal_r+0x12c4>
  802eac:	05400184 	movi	r21,6
  802eb0:	003e5a06 	br	80281c <___vfprintf_internal_r+0x168c>
  802eb4:	d9801a04 	addi	r6,sp,104
  802eb8:	900b883a 	mov	r5,r18
  802ebc:	9809883a 	mov	r4,r19
  802ec0:	080853c0 	call	80853c <__sprint_r>
  802ec4:	0039c106 	br	8015cc <___vfprintf_internal_r+0x43c>
  802ec8:	d9401345 	stb	r5,77(sp)
  802ecc:	00396f06 	br	80148c <___vfprintf_internal_r+0x2fc>
  802ed0:	d9000917 	ldw	r4,36(sp)
  802ed4:	000d883a 	mov	r6,zero
  802ed8:	000f883a 	mov	r7,zero
  802edc:	a00b883a 	mov	r5,r20
  802ee0:	d8c01115 	stw	r3,68(sp)
  802ee4:	da000815 	stw	r8,32(sp)
  802ee8:	db000715 	stw	r12,28(sp)
  802eec:	080c7c00 	call	80c7c0 <__eqdf2>
  802ef0:	db000717 	ldw	r12,28(sp)
  802ef4:	da000817 	ldw	r8,32(sp)
  802ef8:	d8c01117 	ldw	r3,68(sp)
  802efc:	103f8e26 	beq	r2,zero,802d38 <___vfprintf_internal_r+0x1ba8>
  802f00:	00800044 	movi	r2,1
  802f04:	1205c83a 	sub	r2,r2,r8
  802f08:	d8801415 	stw	r2,80(sp)
  802f0c:	003f8b06 	br	802d3c <___vfprintf_internal_r+0x1bac>
  802f10:	403ea81e 	bne	r8,zero,8029b4 <___vfprintf_internal_r+0x1824>
  802f14:	02000044 	movi	r8,1
  802f18:	003ea606 	br	8029b4 <___vfprintf_internal_r+0x1824>
  802f1c:	d9801a04 	addi	r6,sp,104
  802f20:	900b883a 	mov	r5,r18
  802f24:	9809883a 	mov	r4,r19
  802f28:	080853c0 	call	80853c <__sprint_r>
  802f2c:	1039a71e 	bne	r2,zero,8015cc <___vfprintf_internal_r+0x43c>
  802f30:	d9401417 	ldw	r5,80(sp)
  802f34:	d8c01c17 	ldw	r3,112(sp)
  802f38:	d8801b17 	ldw	r2,108(sp)
  802f3c:	dd802704 	addi	r22,sp,156
  802f40:	283c750e 	bge	r5,zero,802118 <___vfprintf_internal_r+0xf88>
  802f44:	003f3806 	br	802c28 <___vfprintf_internal_r+0x1a98>
  802f48:	d9801a04 	addi	r6,sp,104
  802f4c:	900b883a 	mov	r5,r18
  802f50:	9809883a 	mov	r4,r19
  802f54:	080853c0 	call	80853c <__sprint_r>
  802f58:	10399c1e 	bne	r2,zero,8015cc <___vfprintf_internal_r+0x43c>
  802f5c:	d8c01c17 	ldw	r3,112(sp)
  802f60:	dd802704 	addi	r22,sp,156
  802f64:	003d2c06 	br	802418 <___vfprintf_internal_r+0x1288>
  802f68:	db000417 	ldw	r12,16(sp)
  802f6c:	003a9106 	br	8019b4 <___vfprintf_internal_r+0x824>
  802f70:	d8801804 	addi	r2,sp,96
  802f74:	d8800315 	stw	r2,12(sp)
  802f78:	d9400917 	ldw	r5,36(sp)
  802f7c:	d8801504 	addi	r2,sp,84
  802f80:	40c00044 	addi	r3,r8,1
  802f84:	d8800215 	stw	r2,8(sp)
  802f88:	d8801404 	addi	r2,sp,80
  802f8c:	d8c00015 	stw	r3,0(sp)
  802f90:	d8800115 	stw	r2,4(sp)
  802f94:	01c00084 	movi	r7,2
  802f98:	a00d883a 	mov	r6,r20
  802f9c:	9809883a 	mov	r4,r19
  802fa0:	db001115 	stw	r12,68(sp)
  802fa4:	da000815 	stw	r8,32(sp)
  802fa8:	d8c00715 	stw	r3,28(sp)
  802fac:	08036d40 	call	8036d4 <_dtoa_r>
  802fb0:	d8c00717 	ldw	r3,28(sp)
  802fb4:	da000817 	ldw	r8,32(sp)
  802fb8:	db001117 	ldw	r12,68(sp)
  802fbc:	1023883a 	mov	r17,r2
  802fc0:	e08011d8 	cmpnei	r2,fp,71
  802fc4:	103e9c26 	beq	r2,zero,802a38 <___vfprintf_internal_r+0x18a8>
  802fc8:	88d3883a 	add	r9,r17,r3
  802fcc:	003f5c06 	br	802d40 <___vfprintf_internal_r+0x1bb0>
  802fd0:	d8801817 	ldw	r2,96(sp)
  802fd4:	127f672e 	bgeu	r2,r9,802d74 <___vfprintf_internal_r+0x1be4>
  802fd8:	01000c04 	movi	r4,48
  802fdc:	10c00044 	addi	r3,r2,1
  802fe0:	d8c01815 	stw	r3,96(sp)
  802fe4:	11000005 	stb	r4,0(r2)
  802fe8:	d8801817 	ldw	r2,96(sp)
  802fec:	127ffb36 	bltu	r2,r9,802fdc <___vfprintf_internal_r+0x1e4c>
  802ff0:	003f6006 	br	802d74 <___vfprintf_internal_r+0x1be4>
  802ff4:	d8800e17 	ldw	r2,56(sp)
  802ff8:	db401343 	ldbu	r13,77(sp)
  802ffc:	0011883a 	mov	r8,zero
  803000:	d8800615 	stw	r2,24(sp)
  803004:	003b0006 	br	801c08 <___vfprintf_internal_r+0xa78>
  803008:	d8800717 	ldw	r2,28(sp)
  80300c:	d8c00817 	ldw	r3,32(sp)
  803010:	10c02216 	blt	r2,r3,80309c <___vfprintf_internal_r+0x1f0c>
  803014:	6300004c 	andi	r12,r12,1
  803018:	60004f1e 	bne	r12,zero,803158 <___vfprintf_internal_r+0x1fc8>
  80301c:	1029883a 	mov	r20,r2
  803020:	1000010e 	bge	r2,zero,803028 <___vfprintf_internal_r+0x1e98>
  803024:	0029883a 	mov	r20,zero
  803028:	dd400717 	ldw	r21,28(sp)
  80302c:	070019c4 	movi	fp,103
  803030:	003f5f06 	br	802db0 <___vfprintf_internal_r+0x1c20>
  803034:	d9801a04 	addi	r6,sp,104
  803038:	900b883a 	mov	r5,r18
  80303c:	9809883a 	mov	r4,r19
  803040:	080853c0 	call	80853c <__sprint_r>
  803044:	1039611e 	bne	r2,zero,8015cc <___vfprintf_internal_r+0x43c>
  803048:	d8c01c17 	ldw	r3,112(sp)
  80304c:	dd802704 	addi	r22,sp,156
  803050:	a83cee0e 	bge	r21,zero,80240c <___vfprintf_internal_r+0x127c>
  803054:	003dec06 	br	802808 <___vfprintf_internal_r+0x1678>
  803058:	02000184 	movi	r8,6
  80305c:	003e5506 	br	8029b4 <___vfprintf_internal_r+0x1824>
  803060:	d9801a04 	addi	r6,sp,104
  803064:	900b883a 	mov	r5,r18
  803068:	9809883a 	mov	r4,r19
  80306c:	080853c0 	call	80853c <__sprint_r>
  803070:	1039561e 	bne	r2,zero,8015cc <___vfprintf_internal_r+0x43c>
  803074:	d8801417 	ldw	r2,80(sp)
  803078:	d9000817 	ldw	r4,32(sp)
  80307c:	d8c01c17 	ldw	r3,112(sp)
  803080:	dd802704 	addi	r22,sp,156
  803084:	2085c83a 	sub	r2,r4,r2
  803088:	003d0606 	br	8024a4 <___vfprintf_internal_r+0x1314>
  80308c:	4029883a 	mov	r20,r8
  803090:	d8c00615 	stw	r3,24(sp)
  803094:	402b883a 	mov	r21,r8
  803098:	00390206 	br	8014a4 <___vfprintf_internal_r+0x314>
  80309c:	d8800817 	ldw	r2,32(sp)
  8030a0:	d8c00b17 	ldw	r3,44(sp)
  8030a4:	10eb883a 	add	r21,r2,r3
  8030a8:	d8800717 	ldw	r2,28(sp)
  8030ac:	00800316 	blt	zero,r2,8030bc <___vfprintf_internal_r+0x1f2c>
  8030b0:	d8800717 	ldw	r2,28(sp)
  8030b4:	a8abc83a 	sub	r21,r21,r2
  8030b8:	ad400044 	addi	r21,r21,1
  8030bc:	a829883a 	mov	r20,r21
  8030c0:	a8002a16 	blt	r21,zero,80316c <___vfprintf_internal_r+0x1fdc>
  8030c4:	070019c4 	movi	fp,103
  8030c8:	003f3906 	br	802db0 <___vfprintf_internal_r+0x1c20>
  8030cc:	d9401345 	stb	r5,77(sp)
  8030d0:	003a2306 	br	801960 <___vfprintf_internal_r+0x7d0>
  8030d4:	d9401345 	stb	r5,77(sp)
  8030d8:	003b1806 	br	801d3c <___vfprintf_internal_r+0xbac>
  8030dc:	d9401345 	stb	r5,77(sp)
  8030e0:	003a8e06 	br	801b1c <___vfprintf_internal_r+0x98c>
  8030e4:	d9401345 	stb	r5,77(sp)
  8030e8:	003a3d06 	br	8019e0 <___vfprintf_internal_r+0x850>
  8030ec:	d9401345 	stb	r5,77(sp)
  8030f0:	003a7606 	br	801acc <___vfprintf_internal_r+0x93c>
  8030f4:	d9401345 	stb	r5,77(sp)
  8030f8:	00399406 	br	80174c <___vfprintf_internal_r+0x5bc>
  8030fc:	00bfffc4 	movi	r2,-1
  803100:	d8800515 	stw	r2,20(sp)
  803104:	00393406 	br	8015d8 <___vfprintf_internal_r+0x448>
  803108:	900f883a 	mov	r7,r18
  80310c:	8025883a 	mov	r18,r16
  803110:	dc000717 	ldw	r16,28(sp)
  803114:	10800044 	addi	r2,r2,1
  803118:	1f07883a 	add	r3,r3,fp
  80311c:	b1c00015 	stw	r7,0(r22)
  803120:	b7000115 	stw	fp,4(r22)
  803124:	d8c01c15 	stw	r3,112(sp)
  803128:	d8801b15 	stw	r2,108(sp)
  80312c:	11000208 	cmpgei	r4,r2,8
  803130:	203bf826 	beq	r4,zero,802114 <___vfprintf_internal_r+0xf84>
  803134:	d9801a04 	addi	r6,sp,104
  803138:	900b883a 	mov	r5,r18
  80313c:	9809883a 	mov	r4,r19
  803140:	080853c0 	call	80853c <__sprint_r>
  803144:	1039211e 	bne	r2,zero,8015cc <___vfprintf_internal_r+0x43c>
  803148:	d8c01c17 	ldw	r3,112(sp)
  80314c:	d8801b17 	ldw	r2,108(sp)
  803150:	dd802704 	addi	r22,sp,156
  803154:	003bf006 	br	802118 <___vfprintf_internal_r+0xf88>
  803158:	d8800717 	ldw	r2,28(sp)
  80315c:	d8c00b17 	ldw	r3,44(sp)
  803160:	10eb883a 	add	r21,r2,r3
  803164:	a829883a 	mov	r20,r21
  803168:	a83fd60e 	bge	r21,zero,8030c4 <___vfprintf_internal_r+0x1f34>
  80316c:	0029883a 	mov	r20,zero
  803170:	003fd406 	br	8030c4 <___vfprintf_internal_r+0x1f34>
  803174:	00800c04 	movi	r2,48
  803178:	ad400c04 	addi	r21,r21,48
  80317c:	d88016c5 	stb	r2,91(sp)
  803180:	00800104 	movi	r2,4
  803184:	dd401705 	stb	r21,92(sp)
  803188:	d8801015 	stw	r2,64(sp)
  80318c:	003e6e06 	br	802b48 <___vfprintf_internal_r+0x19b8>
  803190:	05400044 	movi	r21,1
  803194:	a8abc83a 	sub	r21,r21,r2
  803198:	00800b44 	movi	r2,45
  80319c:	d8801685 	stb	r2,90(sp)
  8031a0:	003e3a06 	br	802a8c <___vfprintf_internal_r+0x18fc>
  8031a4:	6080004c 	andi	r2,r12,1
  8031a8:	d8800715 	stw	r2,28(sp)
  8031ac:	103e6b1e 	bne	r2,zero,802b5c <___vfprintf_internal_r+0x19cc>
  8031b0:	a829883a 	mov	r20,r21
  8031b4:	a83efe0e 	bge	r21,zero,802db0 <___vfprintf_internal_r+0x1c20>
  8031b8:	0029883a 	mov	r20,zero
  8031bc:	003efc06 	br	802db0 <___vfprintf_internal_r+0x1c20>
  8031c0:	d8800a17 	ldw	r2,40(sp)
  8031c4:	10001a16 	blt	r2,zero,803230 <___vfprintf_internal_r+0x20a0>
  8031c8:	db401343 	ldbu	r13,77(sp)
  8031cc:	e0801210 	cmplti	r2,fp,72
  8031d0:	1000141e 	bne	r2,zero,803224 <___vfprintf_internal_r+0x2094>
  8031d4:	04402074 	movhi	r17,129
  8031d8:	8c41e804 	addi	r17,r17,1952
  8031dc:	00398a06 	br	801808 <___vfprintf_internal_r+0x678>
  8031e0:	d8800b17 	ldw	r2,44(sp)
  8031e4:	18ab883a 	add	r21,r3,r2
  8031e8:	aa2b883a 	add	r21,r21,r8
  8031ec:	003ff006 	br	8031b0 <___vfprintf_internal_r+0x2020>
  8031f0:	1000031e 	bne	r2,zero,803200 <___vfprintf_internal_r+0x2070>
  8031f4:	05000044 	movi	r20,1
  8031f8:	05400044 	movi	r21,1
  8031fc:	003eec06 	br	802db0 <___vfprintf_internal_r+0x1c20>
  803200:	d8800b17 	ldw	r2,44(sp)
  803204:	15400044 	addi	r21,r2,1
  803208:	aa2b883a 	add	r21,r21,r8
  80320c:	003fe806 	br	8031b0 <___vfprintf_internal_r+0x2020>
  803210:	8025883a 	mov	r18,r16
  803214:	0038ed06 	br	8015cc <___vfprintf_internal_r+0x43c>
  803218:	b005883a 	mov	r2,r22
  80321c:	39c1f604 	addi	r7,r7,2008
  803220:	003ea506 	br	802cb8 <___vfprintf_internal_r+0x1b28>
  803224:	04402074 	movhi	r17,129
  803228:	8c41e704 	addi	r17,r17,1948
  80322c:	00397606 	br	801808 <___vfprintf_internal_r+0x678>
  803230:	00800b44 	movi	r2,45
  803234:	d8801345 	stb	r2,77(sp)
  803238:	03400b44 	movi	r13,45
  80323c:	003fe306 	br	8031cc <___vfprintf_internal_r+0x203c>
  803240:	00800084 	movi	r2,2
  803244:	d8801015 	stw	r2,64(sp)
  803248:	003e3f06 	br	802b48 <___vfprintf_internal_r+0x19b8>
  80324c:	d8c00617 	ldw	r3,24(sp)
  803250:	1a000017 	ldw	r8,0(r3)
  803254:	18c00104 	addi	r3,r3,4
  803258:	4000010e 	bge	r8,zero,803260 <___vfprintf_internal_r+0x20d0>
  80325c:	023fffc4 	movi	r8,-1
  803260:	bf000043 	ldbu	fp,1(r23)
  803264:	d8c00615 	stw	r3,24(sp)
  803268:	102f883a 	mov	r23,r2
  80326c:	e2c03fcc 	andi	r11,fp,255
  803270:	5ac0201c 	xori	r11,r11,128
  803274:	5affe004 	addi	r11,r11,-128
  803278:	00381106 	br	8012c0 <___vfprintf_internal_r+0x130>

0080327c <__vfprintf_internal>:
  80327c:	00c02074 	movhi	r3,129
  803280:	2005883a 	mov	r2,r4
  803284:	190a2117 	ldw	r4,10372(r3)
  803288:	300f883a 	mov	r7,r6
  80328c:	280d883a 	mov	r6,r5
  803290:	100b883a 	mov	r5,r2
  803294:	08011901 	jmpi	801190 <___vfprintf_internal_r>

00803298 <__sbprintf>:
  803298:	2880030b 	ldhu	r2,12(r5)
  80329c:	2b001917 	ldw	r12,100(r5)
  8032a0:	2ac0038b 	ldhu	r11,14(r5)
  8032a4:	2a800717 	ldw	r10,28(r5)
  8032a8:	2a400917 	ldw	r9,36(r5)
  8032ac:	defee204 	addi	sp,sp,-1144
  8032b0:	da001a04 	addi	r8,sp,104
  8032b4:	00c10004 	movi	r3,1024
  8032b8:	dc011a15 	stw	r16,1128(sp)
  8032bc:	10bfff4c 	andi	r2,r2,65533
  8032c0:	2821883a 	mov	r16,r5
  8032c4:	d80b883a 	mov	r5,sp
  8032c8:	dc811c15 	stw	r18,1136(sp)
  8032cc:	dc411b15 	stw	r17,1132(sp)
  8032d0:	dfc11d15 	stw	ra,1140(sp)
  8032d4:	2025883a 	mov	r18,r4
  8032d8:	d880030d 	sth	r2,12(sp)
  8032dc:	db001915 	stw	r12,100(sp)
  8032e0:	dac0038d 	sth	r11,14(sp)
  8032e4:	da800715 	stw	r10,28(sp)
  8032e8:	da400915 	stw	r9,36(sp)
  8032ec:	da000015 	stw	r8,0(sp)
  8032f0:	da000415 	stw	r8,16(sp)
  8032f4:	d8c00215 	stw	r3,8(sp)
  8032f8:	d8c00515 	stw	r3,20(sp)
  8032fc:	d8000615 	stw	zero,24(sp)
  803300:	08011900 	call	801190 <___vfprintf_internal_r>
  803304:	1023883a 	mov	r17,r2
  803308:	10000d0e 	bge	r2,zero,803340 <__sbprintf+0xa8>
  80330c:	d880030b 	ldhu	r2,12(sp)
  803310:	1080100c 	andi	r2,r2,64
  803314:	10000326 	beq	r2,zero,803324 <__sbprintf+0x8c>
  803318:	8080030b 	ldhu	r2,12(r16)
  80331c:	10801014 	ori	r2,r2,64
  803320:	8080030d 	sth	r2,12(r16)
  803324:	8805883a 	mov	r2,r17
  803328:	dfc11d17 	ldw	ra,1140(sp)
  80332c:	dc811c17 	ldw	r18,1136(sp)
  803330:	dc411b17 	ldw	r17,1132(sp)
  803334:	dc011a17 	ldw	r16,1128(sp)
  803338:	dec11e04 	addi	sp,sp,1144
  80333c:	f800283a 	ret
  803340:	d80b883a 	mov	r5,sp
  803344:	9009883a 	mov	r4,r18
  803348:	080504c0 	call	80504c <_fflush_r>
  80334c:	103fef26 	beq	r2,zero,80330c <__sbprintf+0x74>
  803350:	047fffc4 	movi	r17,-1
  803354:	003fed06 	br	80330c <__sbprintf+0x74>

00803358 <__swsetup_r>:
  803358:	00802074 	movhi	r2,129
  80335c:	108a2117 	ldw	r2,10372(r2)
  803360:	defffd04 	addi	sp,sp,-12
  803364:	dc400115 	stw	r17,4(sp)
  803368:	dc000015 	stw	r16,0(sp)
  80336c:	dfc00215 	stw	ra,8(sp)
  803370:	2023883a 	mov	r17,r4
  803374:	2821883a 	mov	r16,r5
  803378:	10000226 	beq	r2,zero,803384 <__swsetup_r+0x2c>
  80337c:	10c00e17 	ldw	r3,56(r2)
  803380:	18003326 	beq	r3,zero,803450 <__swsetup_r+0xf8>
  803384:	8180030b 	ldhu	r6,12(r16)
  803388:	30c0020c 	andi	r3,r6,8
  80338c:	3005883a 	mov	r2,r6
  803390:	18000f26 	beq	r3,zero,8033d0 <__swsetup_r+0x78>
  803394:	80c00417 	ldw	r3,16(r16)
  803398:	18001626 	beq	r3,zero,8033f4 <__swsetup_r+0x9c>
  80339c:	1100004c 	andi	r4,r2,1
  8033a0:	20001f1e 	bne	r4,zero,803420 <__swsetup_r+0xc8>
  8033a4:	1100008c 	andi	r4,r2,2
  8033a8:	20002c1e 	bne	r4,zero,80345c <__swsetup_r+0x104>
  8033ac:	81000517 	ldw	r4,20(r16)
  8033b0:	81000215 	stw	r4,8(r16)
  8033b4:	18001f26 	beq	r3,zero,803434 <__swsetup_r+0xdc>
  8033b8:	0005883a 	mov	r2,zero
  8033bc:	dfc00217 	ldw	ra,8(sp)
  8033c0:	dc400117 	ldw	r17,4(sp)
  8033c4:	dc000017 	ldw	r16,0(sp)
  8033c8:	dec00304 	addi	sp,sp,12
  8033cc:	f800283a 	ret
  8033d0:	3080040c 	andi	r2,r6,16
  8033d4:	10003126 	beq	r2,zero,80349c <__swsetup_r+0x144>
  8033d8:	3080010c 	andi	r2,r6,4
  8033dc:	1000211e 	bne	r2,zero,803464 <__swsetup_r+0x10c>
  8033e0:	80c00417 	ldw	r3,16(r16)
  8033e4:	30800214 	ori	r2,r6,8
  8033e8:	8080030d 	sth	r2,12(r16)
  8033ec:	100d883a 	mov	r6,r2
  8033f0:	183fea1e 	bne	r3,zero,80339c <__swsetup_r+0x44>
  8033f4:	1100a00c 	andi	r4,r2,640
  8033f8:	21008020 	cmpeqi	r4,r4,512
  8033fc:	203fe71e 	bne	r4,zero,80339c <__swsetup_r+0x44>
  803400:	8809883a 	mov	r4,r17
  803404:	800b883a 	mov	r5,r16
  803408:	0805f040 	call	805f04 <__smakebuf_r>
  80340c:	8180030b 	ldhu	r6,12(r16)
  803410:	80c00417 	ldw	r3,16(r16)
  803414:	3005883a 	mov	r2,r6
  803418:	1100004c 	andi	r4,r2,1
  80341c:	203fe126 	beq	r4,zero,8033a4 <__swsetup_r+0x4c>
  803420:	81000517 	ldw	r4,20(r16)
  803424:	80000215 	stw	zero,8(r16)
  803428:	0109c83a 	sub	r4,zero,r4
  80342c:	81000615 	stw	r4,24(r16)
  803430:	183fe11e 	bne	r3,zero,8033b8 <__swsetup_r+0x60>
  803434:	10c0200c 	andi	r3,r2,128
  803438:	0005883a 	mov	r2,zero
  80343c:	183fdf26 	beq	r3,zero,8033bc <__swsetup_r+0x64>
  803440:	31801014 	ori	r6,r6,64
  803444:	8180030d 	sth	r6,12(r16)
  803448:	00bfffc4 	movi	r2,-1
  80344c:	003fdb06 	br	8033bc <__swsetup_r+0x64>
  803450:	1009883a 	mov	r4,r2
  803454:	08053e00 	call	8053e0 <__sinit>
  803458:	003fca06 	br	803384 <__swsetup_r+0x2c>
  80345c:	0009883a 	mov	r4,zero
  803460:	003fd306 	br	8033b0 <__swsetup_r+0x58>
  803464:	81400c17 	ldw	r5,48(r16)
  803468:	28000626 	beq	r5,zero,803484 <__swsetup_r+0x12c>
  80346c:	80801004 	addi	r2,r16,64
  803470:	28800326 	beq	r5,r2,803480 <__swsetup_r+0x128>
  803474:	8809883a 	mov	r4,r17
  803478:	08055440 	call	805544 <_free_r>
  80347c:	8180030b 	ldhu	r6,12(r16)
  803480:	80000c15 	stw	zero,48(r16)
  803484:	80c00417 	ldw	r3,16(r16)
  803488:	00bff6c4 	movi	r2,-37
  80348c:	118c703a 	and	r6,r2,r6
  803490:	80000115 	stw	zero,4(r16)
  803494:	80c00015 	stw	r3,0(r16)
  803498:	003fd206 	br	8033e4 <__swsetup_r+0x8c>
  80349c:	00800244 	movi	r2,9
  8034a0:	88800015 	stw	r2,0(r17)
  8034a4:	31801014 	ori	r6,r6,64
  8034a8:	8180030d 	sth	r6,12(r16)
  8034ac:	00bfffc4 	movi	r2,-1
  8034b0:	003fc206 	br	8033bc <__swsetup_r+0x64>

008034b4 <quorem>:
  8034b4:	defff204 	addi	sp,sp,-56
  8034b8:	dc400515 	stw	r17,20(sp)
  8034bc:	20800417 	ldw	r2,16(r4)
  8034c0:	2c400417 	ldw	r17,16(r5)
  8034c4:	dfc00d15 	stw	ra,52(sp)
  8034c8:	df000c15 	stw	fp,48(sp)
  8034cc:	ddc00b15 	stw	r23,44(sp)
  8034d0:	dd800a15 	stw	r22,40(sp)
  8034d4:	dd400915 	stw	r21,36(sp)
  8034d8:	dd000815 	stw	r20,32(sp)
  8034dc:	dcc00715 	stw	r19,28(sp)
  8034e0:	dc800615 	stw	r18,24(sp)
  8034e4:	dc000415 	stw	r16,16(sp)
  8034e8:	d9000115 	stw	r4,4(sp)
  8034ec:	d9400215 	stw	r5,8(sp)
  8034f0:	14407616 	blt	r2,r17,8036cc <quorem+0x218>
  8034f4:	8c7fffc4 	addi	r17,r17,-1
  8034f8:	882a90ba 	slli	r21,r17,2
  8034fc:	2f000504 	addi	fp,r5,20
  803500:	25800504 	addi	r22,r4,20
  803504:	e565883a 	add	r18,fp,r21
  803508:	b545883a 	add	r2,r22,r21
  80350c:	95c00017 	ldw	r23,0(r18)
  803510:	15000017 	ldw	r20,0(r2)
  803514:	dd800015 	stw	r22,0(sp)
  803518:	bdc00044 	addi	r23,r23,1
  80351c:	b80b883a 	mov	r5,r23
  803520:	a009883a 	mov	r4,r20
  803524:	d8800315 	stw	r2,12(sp)
  803528:	080b4540 	call	80b454 <__udivsi3>
  80352c:	1021883a 	mov	r16,r2
  803530:	a5c02f36 	bltu	r20,r23,8035f0 <quorem+0x13c>
  803534:	e029883a 	mov	r20,fp
  803538:	002b883a 	mov	r21,zero
  80353c:	002f883a 	mov	r23,zero
  803540:	a4c00017 	ldw	r19,0(r20)
  803544:	800b883a 	mov	r5,r16
  803548:	b5800104 	addi	r22,r22,4
  80354c:	993fffcc 	andi	r4,r19,65535
  803550:	0800f8c0 	call	800f8c <__mulsi3>
  803554:	9808d43a 	srli	r4,r19,16
  803558:	800b883a 	mov	r5,r16
  80355c:	156b883a 	add	r21,r2,r21
  803560:	0800f8c0 	call	800f8c <__mulsi3>
  803564:	b0ffff17 	ldw	r3,-4(r22)
  803568:	a80ad43a 	srli	r5,r21,16
  80356c:	a93fffcc 	andi	r4,r21,65535
  803570:	19bfffcc 	andi	r6,r3,65535
  803574:	b909c83a 	sub	r4,r23,r4
  803578:	2189883a 	add	r4,r4,r6
  80357c:	1806d43a 	srli	r3,r3,16
  803580:	1145883a 	add	r2,r2,r5
  803584:	200bd43a 	srai	r5,r4,16
  803588:	11bfffcc 	andi	r6,r2,65535
  80358c:	1987c83a 	sub	r3,r3,r6
  803590:	1947883a 	add	r3,r3,r5
  803594:	180a943a 	slli	r5,r3,16
  803598:	213fffcc 	andi	r4,r4,65535
  80359c:	a5000104 	addi	r20,r20,4
  8035a0:	2908b03a 	or	r4,r5,r4
  8035a4:	b13fff15 	stw	r4,-4(r22)
  8035a8:	102ad43a 	srli	r21,r2,16
  8035ac:	182fd43a 	srai	r23,r3,16
  8035b0:	953fe32e 	bgeu	r18,r20,803540 <quorem+0x8c>
  8035b4:	d8c00317 	ldw	r3,12(sp)
  8035b8:	18800017 	ldw	r2,0(r3)
  8035bc:	10000c1e 	bne	r2,zero,8035f0 <quorem+0x13c>
  8035c0:	d8800017 	ldw	r2,0(sp)
  8035c4:	1d7fff04 	addi	r21,r3,-4
  8035c8:	15400436 	bltu	r2,r21,8035dc <quorem+0x128>
  8035cc:	00000606 	br	8035e8 <quorem+0x134>
  8035d0:	d8800017 	ldw	r2,0(sp)
  8035d4:	8c7fffc4 	addi	r17,r17,-1
  8035d8:	1540032e 	bgeu	r2,r21,8035e8 <quorem+0x134>
  8035dc:	a8800017 	ldw	r2,0(r21)
  8035e0:	ad7fff04 	addi	r21,r21,-4
  8035e4:	103ffa26 	beq	r2,zero,8035d0 <quorem+0x11c>
  8035e8:	d8800117 	ldw	r2,4(sp)
  8035ec:	14400415 	stw	r17,16(r2)
  8035f0:	d9400217 	ldw	r5,8(sp)
  8035f4:	d9000117 	ldw	r4,4(sp)
  8035f8:	08076240 	call	807624 <__mcmp>
  8035fc:	10002616 	blt	r2,zero,803698 <quorem+0x1e4>
  803600:	d9800017 	ldw	r6,0(sp)
  803604:	84000044 	addi	r16,r16,1
  803608:	0007883a 	mov	r3,zero
  80360c:	e1000017 	ldw	r4,0(fp)
  803610:	31400017 	ldw	r5,0(r6)
  803614:	31800104 	addi	r6,r6,4
  803618:	20bfffcc 	andi	r2,r4,65535
  80361c:	1887c83a 	sub	r3,r3,r2
  803620:	28bfffcc 	andi	r2,r5,65535
  803624:	1885883a 	add	r2,r3,r2
  803628:	2008d43a 	srli	r4,r4,16
  80362c:	2806d43a 	srli	r3,r5,16
  803630:	100fd43a 	srai	r7,r2,16
  803634:	117fffcc 	andi	r5,r2,65535
  803638:	1907c83a 	sub	r3,r3,r4
  80363c:	19c7883a 	add	r3,r3,r7
  803640:	1804943a 	slli	r2,r3,16
  803644:	e7000104 	addi	fp,fp,4
  803648:	1807d43a 	srai	r3,r3,16
  80364c:	1144b03a 	or	r2,r2,r5
  803650:	30bfff15 	stw	r2,-4(r6)
  803654:	973fed2e 	bgeu	r18,fp,80360c <quorem+0x158>
  803658:	880490ba 	slli	r2,r17,2
  80365c:	d9000017 	ldw	r4,0(sp)
  803660:	2085883a 	add	r2,r4,r2
  803664:	10c00017 	ldw	r3,0(r2)
  803668:	18000b1e 	bne	r3,zero,803698 <quorem+0x1e4>
  80366c:	10bfff04 	addi	r2,r2,-4
  803670:	20800436 	bltu	r4,r2,803684 <quorem+0x1d0>
  803674:	00000606 	br	803690 <quorem+0x1dc>
  803678:	d8c00017 	ldw	r3,0(sp)
  80367c:	8c7fffc4 	addi	r17,r17,-1
  803680:	1880032e 	bgeu	r3,r2,803690 <quorem+0x1dc>
  803684:	10c00017 	ldw	r3,0(r2)
  803688:	10bfff04 	addi	r2,r2,-4
  80368c:	183ffa26 	beq	r3,zero,803678 <quorem+0x1c4>
  803690:	d8800117 	ldw	r2,4(sp)
  803694:	14400415 	stw	r17,16(r2)
  803698:	8005883a 	mov	r2,r16
  80369c:	dfc00d17 	ldw	ra,52(sp)
  8036a0:	df000c17 	ldw	fp,48(sp)
  8036a4:	ddc00b17 	ldw	r23,44(sp)
  8036a8:	dd800a17 	ldw	r22,40(sp)
  8036ac:	dd400917 	ldw	r21,36(sp)
  8036b0:	dd000817 	ldw	r20,32(sp)
  8036b4:	dcc00717 	ldw	r19,28(sp)
  8036b8:	dc800617 	ldw	r18,24(sp)
  8036bc:	dc400517 	ldw	r17,20(sp)
  8036c0:	dc000417 	ldw	r16,16(sp)
  8036c4:	dec00e04 	addi	sp,sp,56
  8036c8:	f800283a 	ret
  8036cc:	0005883a 	mov	r2,zero
  8036d0:	003ff206 	br	80369c <quorem+0x1e8>

008036d4 <_dtoa_r>:
  8036d4:	20801017 	ldw	r2,64(r4)
  8036d8:	deffe204 	addi	sp,sp,-120
  8036dc:	ddc01b15 	stw	r23,108(sp)
  8036e0:	dd001815 	stw	r20,96(sp)
  8036e4:	dc801615 	stw	r18,88(sp)
  8036e8:	dc401515 	stw	r17,84(sp)
  8036ec:	dc001415 	stw	r16,80(sp)
  8036f0:	dfc01d15 	stw	ra,116(sp)
  8036f4:	df001c15 	stw	fp,112(sp)
  8036f8:	dd801a15 	stw	r22,104(sp)
  8036fc:	dd401915 	stw	r21,100(sp)
  803700:	dcc01715 	stw	r19,92(sp)
  803704:	d9c00115 	stw	r7,4(sp)
  803708:	dc002017 	ldw	r16,128(sp)
  80370c:	202f883a 	mov	r23,r4
  803710:	3025883a 	mov	r18,r6
  803714:	2829883a 	mov	r20,r5
  803718:	3023883a 	mov	r17,r6
  80371c:	10000826 	beq	r2,zero,803740 <_dtoa_r+0x6c>
  803720:	21801117 	ldw	r6,68(r4)
  803724:	00c00044 	movi	r3,1
  803728:	100b883a 	mov	r5,r2
  80372c:	1986983a 	sll	r3,r3,r6
  803730:	11800115 	stw	r6,4(r2)
  803734:	10c00215 	stw	r3,8(r2)
  803738:	0806cb80 	call	806cb8 <_Bfree>
  80373c:	b8001015 	stw	zero,64(r23)
  803740:	90018616 	blt	r18,zero,803d5c <_dtoa_r+0x688>
  803744:	80000015 	stw	zero,0(r16)
  803748:	909ffc2c 	andhi	r2,r18,32752
  80374c:	00dffc34 	movhi	r3,32752
  803750:	10c18b26 	beq	r2,r3,803d80 <_dtoa_r+0x6ac>
  803754:	000d883a 	mov	r6,zero
  803758:	000f883a 	mov	r7,zero
  80375c:	a009883a 	mov	r4,r20
  803760:	880b883a 	mov	r5,r17
  803764:	080c7c00 	call	80c7c0 <__eqdf2>
  803768:	1000181e 	bne	r2,zero,8037cc <_dtoa_r+0xf8>
  80376c:	d8c01f17 	ldw	r3,124(sp)
  803770:	00800044 	movi	r2,1
  803774:	18800015 	stw	r2,0(r3)
  803778:	d8802117 	ldw	r2,132(sp)
  80377c:	10030b26 	beq	r2,zero,8043ac <_dtoa_r+0xcd8>
  803780:	d8c02117 	ldw	r3,132(sp)
  803784:	00802074 	movhi	r2,129
  803788:	1081f544 	addi	r2,r2,2005
  80378c:	07002074 	movhi	fp,129
  803790:	18800015 	stw	r2,0(r3)
  803794:	e701f504 	addi	fp,fp,2004
  803798:	e005883a 	mov	r2,fp
  80379c:	dfc01d17 	ldw	ra,116(sp)
  8037a0:	df001c17 	ldw	fp,112(sp)
  8037a4:	ddc01b17 	ldw	r23,108(sp)
  8037a8:	dd801a17 	ldw	r22,104(sp)
  8037ac:	dd401917 	ldw	r21,100(sp)
  8037b0:	dd001817 	ldw	r20,96(sp)
  8037b4:	dcc01717 	ldw	r19,92(sp)
  8037b8:	dc801617 	ldw	r18,88(sp)
  8037bc:	dc401517 	ldw	r17,84(sp)
  8037c0:	dc001417 	ldw	r16,80(sp)
  8037c4:	dec01e04 	addi	sp,sp,120
  8037c8:	f800283a 	ret
  8037cc:	d8801204 	addi	r2,sp,72
  8037d0:	9020d53a 	srli	r16,r18,20
  8037d4:	d8800015 	stw	r2,0(sp)
  8037d8:	d9c01304 	addi	r7,sp,76
  8037dc:	a00b883a 	mov	r5,r20
  8037e0:	880d883a 	mov	r6,r17
  8037e4:	b809883a 	mov	r4,r23
  8037e8:	0807a080 	call	807a08 <__d2b>
  8037ec:	102d883a 	mov	r22,r2
  8037f0:	8001741e 	bne	r16,zero,803dc4 <_dtoa_r+0x6f0>
  8037f4:	df001217 	ldw	fp,72(sp)
  8037f8:	dc001317 	ldw	r16,76(sp)
  8037fc:	e421883a 	add	r16,fp,r16
  803800:	80810c84 	addi	r2,r16,1074
  803804:	10c00850 	cmplti	r3,r2,33
  803808:	1802f81e 	bne	r3,zero,8043ec <_dtoa_r+0xd18>
  80380c:	01001004 	movi	r4,64
  803810:	2085c83a 	sub	r2,r4,r2
  803814:	81010484 	addi	r4,r16,1042
  803818:	90a4983a 	sll	r18,r18,r2
  80381c:	a108d83a 	srl	r4,r20,r4
  803820:	9108b03a 	or	r4,r18,r4
  803824:	080dc8c0 	call	80dc8c <__floatunsidf>
  803828:	1009883a 	mov	r4,r2
  80382c:	017f8434 	movhi	r5,65040
  803830:	00800044 	movi	r2,1
  803834:	194b883a 	add	r5,r3,r5
  803838:	843fffc4 	addi	r16,r16,-1
  80383c:	d8800915 	stw	r2,36(sp)
  803840:	000d883a 	mov	r6,zero
  803844:	01cffe34 	movhi	r7,16376
  803848:	080d1c80 	call	80d1c8 <__subdf3>
  80384c:	0198dbf4 	movhi	r6,25455
  803850:	01cff4f4 	movhi	r7,16339
  803854:	3190d844 	addi	r6,r6,17249
  803858:	39e1e9c4 	addi	r7,r7,-30809
  80385c:	1009883a 	mov	r4,r2
  803860:	180b883a 	mov	r5,r3
  803864:	080ca200 	call	80ca20 <__muldf3>
  803868:	01a2d874 	movhi	r6,35681
  80386c:	01cff1f4 	movhi	r7,16327
  803870:	31b22cc4 	addi	r6,r6,-14157
  803874:	39e28a04 	addi	r7,r7,-30168
  803878:	180b883a 	mov	r5,r3
  80387c:	1009883a 	mov	r4,r2
  803880:	080b5140 	call	80b514 <__adddf3>
  803884:	8009883a 	mov	r4,r16
  803888:	1027883a 	mov	r19,r2
  80388c:	1825883a 	mov	r18,r3
  803890:	080dbd00 	call	80dbd0 <__floatsidf>
  803894:	019427f4 	movhi	r6,20639
  803898:	01cff4f4 	movhi	r7,16339
  80389c:	319e7ec4 	addi	r6,r6,31227
  8038a0:	39d104c4 	addi	r7,r7,17427
  8038a4:	1009883a 	mov	r4,r2
  8038a8:	180b883a 	mov	r5,r3
  8038ac:	080ca200 	call	80ca20 <__muldf3>
  8038b0:	100d883a 	mov	r6,r2
  8038b4:	180f883a 	mov	r7,r3
  8038b8:	9809883a 	mov	r4,r19
  8038bc:	900b883a 	mov	r5,r18
  8038c0:	080b5140 	call	80b514 <__adddf3>
  8038c4:	1009883a 	mov	r4,r2
  8038c8:	180b883a 	mov	r5,r3
  8038cc:	1025883a 	mov	r18,r2
  8038d0:	182b883a 	mov	r21,r3
  8038d4:	080db500 	call	80db50 <__fixdfsi>
  8038d8:	000d883a 	mov	r6,zero
  8038dc:	000f883a 	mov	r7,zero
  8038e0:	9009883a 	mov	r4,r18
  8038e4:	a80b883a 	mov	r5,r21
  8038e8:	1027883a 	mov	r19,r2
  8038ec:	080c9300 	call	80c930 <__ledf2>
  8038f0:	1002a416 	blt	r2,zero,804384 <_dtoa_r+0xcb0>
  8038f4:	e439c83a 	sub	fp,fp,r16
  8038f8:	e0ffffc4 	addi	r3,fp,-1
  8038fc:	988005e8 	cmpgeui	r2,r19,23
  803900:	d8c00215 	stw	r3,8(sp)
  803904:	1002961e 	bne	r2,zero,804360 <_dtoa_r+0xc8c>
  803908:	980690fa 	slli	r3,r19,3
  80390c:	00802074 	movhi	r2,129
  803910:	10823e04 	addi	r2,r2,2296
  803914:	10c5883a 	add	r2,r2,r3
  803918:	11800017 	ldw	r6,0(r2)
  80391c:	11c00117 	ldw	r7,4(r2)
  803920:	a009883a 	mov	r4,r20
  803924:	880b883a 	mov	r5,r17
  803928:	080c9300 	call	80c930 <__ledf2>
  80392c:	1002670e 	bge	r2,zero,8042cc <_dtoa_r+0xbf8>
  803930:	d8000815 	stw	zero,32(sp)
  803934:	e0bfffc4 	addi	r2,fp,-1
  803938:	9cffffc4 	addi	r19,r19,-1
  80393c:	10028c16 	blt	r2,zero,804370 <_dtoa_r+0xc9c>
  803940:	d8000515 	stw	zero,20(sp)
  803944:	9802650e 	bge	r19,zero,8042dc <_dtoa_r+0xc08>
  803948:	d8800517 	ldw	r2,20(sp)
  80394c:	d8c00117 	ldw	r3,4(sp)
  803950:	dcc00315 	stw	r19,12(sp)
  803954:	14c5c83a 	sub	r2,r2,r19
  803958:	d8800515 	stw	r2,20(sp)
  80395c:	04c5c83a 	sub	r2,zero,r19
  803960:	d8800715 	stw	r2,28(sp)
  803964:	188002a8 	cmpgeui	r2,r3,10
  803968:	0027883a 	mov	r19,zero
  80396c:	1002631e 	bne	r2,zero,8042fc <_dtoa_r+0xc28>
  803970:	18800190 	cmplti	r2,r3,6
  803974:	1002a11e 	bne	r2,zero,8043fc <_dtoa_r+0xd28>
  803978:	18bfff04 	addi	r2,r3,-4
  80397c:	d8800115 	stw	r2,4(sp)
  803980:	0021883a 	mov	r16,zero
  803984:	d8c00117 	ldw	r3,4(sp)
  803988:	18800120 	cmpeqi	r2,r3,4
  80398c:	1003721e 	bne	r2,zero,804758 <_dtoa_r+0x1084>
  803990:	18800160 	cmpeqi	r2,r3,5
  803994:	10032f1e 	bne	r2,zero,804654 <_dtoa_r+0xf80>
  803998:	188000a0 	cmpeqi	r2,r3,2
  80399c:	10026326 	beq	r2,zero,80432c <_dtoa_r+0xc58>
  8039a0:	d8000615 	stw	zero,24(sp)
  8039a4:	d8801e17 	ldw	r2,120(sp)
  8039a8:	00833c0e 	bge	zero,r2,80469c <_dtoa_r+0xfc8>
  8039ac:	d8800b15 	stw	r2,44(sp)
  8039b0:	d8800415 	stw	r2,16(sp)
  8039b4:	100d883a 	mov	r6,r2
  8039b8:	b8001115 	stw	zero,68(r23)
  8039bc:	30800610 	cmplti	r2,r6,24
  8039c0:	1005161e 	bne	r2,zero,804e1c <_dtoa_r+0x1748>
  8039c4:	00c00044 	movi	r3,1
  8039c8:	00800104 	movi	r2,4
  8039cc:	1085883a 	add	r2,r2,r2
  8039d0:	11000504 	addi	r4,r2,20
  8039d4:	180b883a 	mov	r5,r3
  8039d8:	18c00044 	addi	r3,r3,1
  8039dc:	313ffb2e 	bgeu	r6,r4,8039cc <_dtoa_r+0x2f8>
  8039e0:	b9401115 	stw	r5,68(r23)
  8039e4:	b809883a 	mov	r4,r23
  8039e8:	0806c140 	call	806c14 <_Balloc>
  8039ec:	1039883a 	mov	fp,r2
  8039f0:	1004f526 	beq	r2,zero,804dc8 <_dtoa_r+0x16f4>
  8039f4:	b8801015 	stw	r2,64(r23)
  8039f8:	d8800417 	ldw	r2,16(sp)
  8039fc:	108003e8 	cmpgeui	r2,r2,15
  803a00:	10010b1e 	bne	r2,zero,803e30 <_dtoa_r+0x75c>
  803a04:	80010a26 	beq	r16,zero,803e30 <_dtoa_r+0x75c>
  803a08:	d9000317 	ldw	r4,12(sp)
  803a0c:	0103a30e 	bge	zero,r4,80489c <_dtoa_r+0x11c8>
  803a10:	208003cc 	andi	r2,r4,15
  803a14:	100690fa 	slli	r3,r2,3
  803a18:	202bd13a 	srai	r21,r4,4
  803a1c:	00802074 	movhi	r2,129
  803a20:	10823e04 	addi	r2,r2,2296
  803a24:	10c5883a 	add	r2,r2,r3
  803a28:	a8c0040c 	andi	r3,r21,16
  803a2c:	12800017 	ldw	r10,0(r2)
  803a30:	12400117 	ldw	r9,4(r2)
  803a34:	18034226 	beq	r3,zero,804740 <_dtoa_r+0x106c>
  803a38:	00802074 	movhi	r2,129
  803a3c:	10823404 	addi	r2,r2,2256
  803a40:	11800817 	ldw	r6,32(r2)
  803a44:	11c00917 	ldw	r7,36(r2)
  803a48:	a009883a 	mov	r4,r20
  803a4c:	880b883a 	mov	r5,r17
  803a50:	da400e15 	stw	r9,56(sp)
  803a54:	da800d15 	stw	r10,52(sp)
  803a58:	080be8c0 	call	80be8c <__divdf3>
  803a5c:	da800d17 	ldw	r10,52(sp)
  803a60:	da400e17 	ldw	r9,56(sp)
  803a64:	ad4003cc 	andi	r21,r21,15
  803a68:	d8800a15 	stw	r2,40(sp)
  803a6c:	d8c00c15 	stw	r3,48(sp)
  803a70:	040000c4 	movi	r16,3
  803a74:	a8001126 	beq	r21,zero,803abc <_dtoa_r+0x3e8>
  803a78:	04802074 	movhi	r18,129
  803a7c:	94823404 	addi	r18,r18,2256
  803a80:	5009883a 	mov	r4,r10
  803a84:	480b883a 	mov	r5,r9
  803a88:	a980004c 	andi	r6,r21,1
  803a8c:	30000626 	beq	r6,zero,803aa8 <_dtoa_r+0x3d4>
  803a90:	91800017 	ldw	r6,0(r18)
  803a94:	91c00117 	ldw	r7,4(r18)
  803a98:	84000044 	addi	r16,r16,1
  803a9c:	080ca200 	call	80ca20 <__muldf3>
  803aa0:	1009883a 	mov	r4,r2
  803aa4:	180b883a 	mov	r5,r3
  803aa8:	a82bd07a 	srai	r21,r21,1
  803aac:	94800204 	addi	r18,r18,8
  803ab0:	a83ff51e 	bne	r21,zero,803a88 <_dtoa_r+0x3b4>
  803ab4:	2015883a 	mov	r10,r4
  803ab8:	2813883a 	mov	r9,r5
  803abc:	d9000a17 	ldw	r4,40(sp)
  803ac0:	d9400c17 	ldw	r5,48(sp)
  803ac4:	500d883a 	mov	r6,r10
  803ac8:	480f883a 	mov	r7,r9
  803acc:	080be8c0 	call	80be8c <__divdf3>
  803ad0:	1025883a 	mov	r18,r2
  803ad4:	d8c00a15 	stw	r3,40(sp)
  803ad8:	d8800817 	ldw	r2,32(sp)
  803adc:	10000726 	beq	r2,zero,803afc <_dtoa_r+0x428>
  803ae0:	dd400a17 	ldw	r21,40(sp)
  803ae4:	000d883a 	mov	r6,zero
  803ae8:	01cffc34 	movhi	r7,16368
  803aec:	9009883a 	mov	r4,r18
  803af0:	a80b883a 	mov	r5,r21
  803af4:	080c9300 	call	80c930 <__ledf2>
  803af8:	10045516 	blt	r2,zero,804c50 <_dtoa_r+0x157c>
  803afc:	8009883a 	mov	r4,r16
  803b00:	080dbd00 	call	80dbd0 <__floatsidf>
  803b04:	d9c00a17 	ldw	r7,40(sp)
  803b08:	900d883a 	mov	r6,r18
  803b0c:	1009883a 	mov	r4,r2
  803b10:	180b883a 	mov	r5,r3
  803b14:	080ca200 	call	80ca20 <__muldf3>
  803b18:	000d883a 	mov	r6,zero
  803b1c:	01d00734 	movhi	r7,16412
  803b20:	1009883a 	mov	r4,r2
  803b24:	180b883a 	mov	r5,r3
  803b28:	080b5140 	call	80b514 <__adddf3>
  803b2c:	d8800c15 	stw	r2,48(sp)
  803b30:	00bf3034 	movhi	r2,64704
  803b34:	1885883a 	add	r2,r3,r2
  803b38:	d8800d15 	stw	r2,52(sp)
  803b3c:	d8800417 	ldw	r2,16(sp)
  803b40:	10033926 	beq	r2,zero,804828 <_dtoa_r+0x1154>
  803b44:	d8800317 	ldw	r2,12(sp)
  803b48:	d8801115 	stw	r2,68(sp)
  803b4c:	d8800417 	ldw	r2,16(sp)
  803b50:	d8800e15 	stw	r2,56(sp)
  803b54:	dc000a17 	ldw	r16,40(sp)
  803b58:	9009883a 	mov	r4,r18
  803b5c:	800b883a 	mov	r5,r16
  803b60:	080db500 	call	80db50 <__fixdfsi>
  803b64:	d8c00e17 	ldw	r3,56(sp)
  803b68:	d8801015 	stw	r2,64(sp)
  803b6c:	18ffffc4 	addi	r3,r3,-1
  803b70:	180890fa 	slli	r4,r3,3
  803b74:	00c02074 	movhi	r3,129
  803b78:	18c23e04 	addi	r3,r3,2296
  803b7c:	1907883a 	add	r3,r3,r4
  803b80:	1b000017 	ldw	r12,0(r3)
  803b84:	1b400117 	ldw	r13,4(r3)
  803b88:	1009883a 	mov	r4,r2
  803b8c:	db000f15 	stw	r12,60(sp)
  803b90:	db400a15 	stw	r13,40(sp)
  803b94:	080dbd00 	call	80dbd0 <__floatsidf>
  803b98:	9009883a 	mov	r4,r18
  803b9c:	800b883a 	mov	r5,r16
  803ba0:	100d883a 	mov	r6,r2
  803ba4:	180f883a 	mov	r7,r3
  803ba8:	080d1c80 	call	80d1c8 <__subdf3>
  803bac:	dac01017 	ldw	r11,64(sp)
  803bb0:	102b883a 	mov	r21,r2
  803bb4:	d8800617 	ldw	r2,24(sp)
  803bb8:	db400a17 	ldw	r13,40(sp)
  803bbc:	db000f17 	ldw	r12,60(sp)
  803bc0:	e4000044 	addi	r16,fp,1
  803bc4:	1825883a 	mov	r18,r3
  803bc8:	5ac00c04 	addi	r11,r11,48
  803bcc:	1003c626 	beq	r2,zero,804ae8 <_dtoa_r+0x1414>
  803bd0:	600d883a 	mov	r6,r12
  803bd4:	680f883a 	mov	r7,r13
  803bd8:	0009883a 	mov	r4,zero
  803bdc:	014ff834 	movhi	r5,16352
  803be0:	dac00f15 	stw	r11,60(sp)
  803be4:	080be8c0 	call	80be8c <__divdf3>
  803be8:	d9800c17 	ldw	r6,48(sp)
  803bec:	d9c00d17 	ldw	r7,52(sp)
  803bf0:	1009883a 	mov	r4,r2
  803bf4:	180b883a 	mov	r5,r3
  803bf8:	080d1c80 	call	80d1c8 <__subdf3>
  803bfc:	dac00f17 	ldw	r11,60(sp)
  803c00:	a80d883a 	mov	r6,r21
  803c04:	900f883a 	mov	r7,r18
  803c08:	e2c00005 	stb	r11,0(fp)
  803c0c:	1009883a 	mov	r4,r2
  803c10:	180b883a 	mov	r5,r3
  803c14:	d8800a15 	stw	r2,40(sp)
  803c18:	d8c00c15 	stw	r3,48(sp)
  803c1c:	080c8400 	call	80c840 <__gedf2>
  803c20:	00844116 	blt	zero,r2,804d28 <_dtoa_r+0x1654>
  803c24:	0005883a 	mov	r2,zero
  803c28:	dcc00f15 	stw	r19,60(sp)
  803c2c:	dd800d15 	stw	r22,52(sp)
  803c30:	dcc00c17 	ldw	r19,48(sp)
  803c34:	dd800e17 	ldw	r22,56(sp)
  803c38:	dc400c15 	stw	r17,48(sp)
  803c3c:	ddc00e15 	stw	r23,56(sp)
  803c40:	dc400a17 	ldw	r17,40(sp)
  803c44:	dd000a15 	stw	r20,40(sp)
  803c48:	1029883a 	mov	r20,r2
  803c4c:	00002606 	br	803ce8 <_dtoa_r+0x614>
  803c50:	a5000044 	addi	r20,r20,1
  803c54:	a5843d0e 	bge	r20,r22,804d4c <_dtoa_r+0x1678>
  803c58:	8809883a 	mov	r4,r17
  803c5c:	980b883a 	mov	r5,r19
  803c60:	000d883a 	mov	r6,zero
  803c64:	01d00934 	movhi	r7,16420
  803c68:	080ca200 	call	80ca20 <__muldf3>
  803c6c:	000d883a 	mov	r6,zero
  803c70:	01d00934 	movhi	r7,16420
  803c74:	a809883a 	mov	r4,r21
  803c78:	900b883a 	mov	r5,r18
  803c7c:	1023883a 	mov	r17,r2
  803c80:	1827883a 	mov	r19,r3
  803c84:	080ca200 	call	80ca20 <__muldf3>
  803c88:	180b883a 	mov	r5,r3
  803c8c:	1009883a 	mov	r4,r2
  803c90:	1825883a 	mov	r18,r3
  803c94:	102b883a 	mov	r21,r2
  803c98:	080db500 	call	80db50 <__fixdfsi>
  803c9c:	1009883a 	mov	r4,r2
  803ca0:	102f883a 	mov	r23,r2
  803ca4:	080dbd00 	call	80dbd0 <__floatsidf>
  803ca8:	a809883a 	mov	r4,r21
  803cac:	900b883a 	mov	r5,r18
  803cb0:	100d883a 	mov	r6,r2
  803cb4:	180f883a 	mov	r7,r3
  803cb8:	080d1c80 	call	80d1c8 <__subdf3>
  803cbc:	84000044 	addi	r16,r16,1
  803cc0:	ba000c04 	addi	r8,r23,48
  803cc4:	823fffc5 	stb	r8,-1(r16)
  803cc8:	880d883a 	mov	r6,r17
  803ccc:	980f883a 	mov	r7,r19
  803cd0:	1009883a 	mov	r4,r2
  803cd4:	180b883a 	mov	r5,r3
  803cd8:	102b883a 	mov	r21,r2
  803cdc:	1825883a 	mov	r18,r3
  803ce0:	080c9300 	call	80c930 <__ledf2>
  803ce4:	10040e16 	blt	r2,zero,804d20 <_dtoa_r+0x164c>
  803ce8:	a80d883a 	mov	r6,r21
  803cec:	900f883a 	mov	r7,r18
  803cf0:	0009883a 	mov	r4,zero
  803cf4:	014ffc34 	movhi	r5,16368
  803cf8:	080d1c80 	call	80d1c8 <__subdf3>
  803cfc:	880d883a 	mov	r6,r17
  803d00:	980f883a 	mov	r7,r19
  803d04:	1009883a 	mov	r4,r2
  803d08:	180b883a 	mov	r5,r3
  803d0c:	080c9300 	call	80c930 <__ledf2>
  803d10:	103fcf0e 	bge	r2,zero,803c50 <_dtoa_r+0x57c>
  803d14:	dd800d17 	ldw	r22,52(sp)
  803d18:	ddc00e17 	ldw	r23,56(sp)
  803d1c:	d8801117 	ldw	r2,68(sp)
  803d20:	10800044 	addi	r2,r2,1
  803d24:	d8800315 	stw	r2,12(sp)
  803d28:	00000106 	br	803d30 <_dtoa_r+0x65c>
  803d2c:	e403ee26 	beq	fp,r16,804ce8 <_dtoa_r+0x1614>
  803d30:	80ffffc3 	ldbu	r3,-1(r16)
  803d34:	8025883a 	mov	r18,r16
  803d38:	843fffc4 	addi	r16,r16,-1
  803d3c:	18803fcc 	andi	r2,r3,255
  803d40:	1080201c 	xori	r2,r2,128
  803d44:	10bfe004 	addi	r2,r2,-128
  803d48:	10800e60 	cmpeqi	r2,r2,57
  803d4c:	103ff71e 	bne	r2,zero,803d2c <_dtoa_r+0x658>
  803d50:	18c00044 	addi	r3,r3,1
  803d54:	80c00005 	stb	r3,0(r16)
  803d58:	00015106 	br	8042a0 <_dtoa_r+0xbcc>
  803d5c:	04600034 	movhi	r17,32768
  803d60:	8c7fffc4 	addi	r17,r17,-1
  803d64:	9462703a 	and	r17,r18,r17
  803d68:	00800044 	movi	r2,1
  803d6c:	8825883a 	mov	r18,r17
  803d70:	80800015 	stw	r2,0(r16)
  803d74:	00dffc34 	movhi	r3,32752
  803d78:	909ffc2c 	andhi	r2,r18,32752
  803d7c:	10fe751e 	bne	r2,r3,803754 <_dtoa_r+0x80>
  803d80:	d8c01f17 	ldw	r3,124(sp)
  803d84:	00800434 	movhi	r2,16
  803d88:	10bfffc4 	addi	r2,r2,-1
  803d8c:	90a4703a 	and	r18,r18,r2
  803d90:	0089c3c4 	movi	r2,9999
  803d94:	18800015 	stw	r2,0(r3)
  803d98:	9528b03a 	or	r20,r18,r20
  803d9c:	a000121e 	bne	r20,zero,803de8 <_dtoa_r+0x714>
  803da0:	d8802117 	ldw	r2,132(sp)
  803da4:	07002074 	movhi	fp,129
  803da8:	10041526 	beq	r2,zero,804e00 <_dtoa_r+0x172c>
  803dac:	00802074 	movhi	r2,129
  803db0:	e701ff04 	addi	fp,fp,2044
  803db4:	10820104 	addi	r2,r2,2052
  803db8:	d8c02117 	ldw	r3,132(sp)
  803dbc:	18800015 	stw	r2,0(r3)
  803dc0:	003e7506 	br	803798 <_dtoa_r+0xc4>
  803dc4:	01400434 	movhi	r5,16
  803dc8:	297fffc4 	addi	r5,r5,-1
  803dcc:	894a703a 	and	r5,r17,r5
  803dd0:	df001217 	ldw	fp,72(sp)
  803dd4:	a009883a 	mov	r4,r20
  803dd8:	294ffc34 	orhi	r5,r5,16368
  803ddc:	843f0044 	addi	r16,r16,-1023
  803de0:	d8000915 	stw	zero,36(sp)
  803de4:	003e9606 	br	803840 <_dtoa_r+0x16c>
  803de8:	d8802117 	ldw	r2,132(sp)
  803dec:	07002074 	movhi	fp,129
  803df0:	1002141e 	bne	r2,zero,804644 <_dtoa_r+0xf70>
  803df4:	e701fe04 	addi	fp,fp,2040
  803df8:	003e6706 	br	803798 <_dtoa_r+0xc4>
  803dfc:	b8001115 	stw	zero,68(r23)
  803e00:	000b883a 	mov	r5,zero
  803e04:	b809883a 	mov	r4,r23
  803e08:	0806c140 	call	806c14 <_Balloc>
  803e0c:	1039883a 	mov	fp,r2
  803e10:	1003ed26 	beq	r2,zero,804dc8 <_dtoa_r+0x16f4>
  803e14:	b8801015 	stw	r2,64(r23)
  803e18:	00bfffc4 	movi	r2,-1
  803e1c:	d8800415 	stw	r2,16(sp)
  803e20:	d8800b15 	stw	r2,44(sp)
  803e24:	00800044 	movi	r2,1
  803e28:	d8001e15 	stw	zero,120(sp)
  803e2c:	d8800615 	stw	r2,24(sp)
  803e30:	d8801317 	ldw	r2,76(sp)
  803e34:	10007216 	blt	r2,zero,804000 <_dtoa_r+0x92c>
  803e38:	d9000317 	ldw	r4,12(sp)
  803e3c:	20c003c8 	cmpgei	r3,r4,15
  803e40:	18006f1e 	bne	r3,zero,804000 <_dtoa_r+0x92c>
  803e44:	200690fa 	slli	r3,r4,3
  803e48:	00802074 	movhi	r2,129
  803e4c:	10823e04 	addi	r2,r2,2296
  803e50:	10c5883a 	add	r2,r2,r3
  803e54:	10c00017 	ldw	r3,0(r2)
  803e58:	14800117 	ldw	r18,4(r2)
  803e5c:	d8801e17 	ldw	r2,120(sp)
  803e60:	d8c00115 	stw	r3,4(sp)
  803e64:	1000150e 	bge	r2,zero,803ebc <_dtoa_r+0x7e8>
  803e68:	d8800417 	ldw	r2,16(sp)
  803e6c:	00801316 	blt	zero,r2,803ebc <_dtoa_r+0x7e8>
  803e70:	d8800417 	ldw	r2,16(sp)
  803e74:	1002801e 	bne	r2,zero,804878 <_dtoa_r+0x11a4>
  803e78:	d9000117 	ldw	r4,4(sp)
  803e7c:	000d883a 	mov	r6,zero
  803e80:	01d00534 	movhi	r7,16404
  803e84:	900b883a 	mov	r5,r18
  803e88:	080ca200 	call	80ca20 <__muldf3>
  803e8c:	100d883a 	mov	r6,r2
  803e90:	180f883a 	mov	r7,r3
  803e94:	a009883a 	mov	r4,r20
  803e98:	880b883a 	mov	r5,r17
  803e9c:	080c9300 	call	80c930 <__ledf2>
  803ea0:	002b883a 	mov	r21,zero
  803ea4:	0021883a 	mov	r16,zero
  803ea8:	00820f16 	blt	zero,r2,8046e8 <_dtoa_r+0x1014>
  803eac:	d8801e17 	ldw	r2,120(sp)
  803eb0:	e025883a 	mov	r18,fp
  803eb4:	00a2303a 	nor	r17,zero,r2
  803eb8:	00021006 	br	8046fc <_dtoa_r+0x1028>
  803ebc:	dd400117 	ldw	r21,4(sp)
  803ec0:	900f883a 	mov	r7,r18
  803ec4:	a009883a 	mov	r4,r20
  803ec8:	a80d883a 	mov	r6,r21
  803ecc:	880b883a 	mov	r5,r17
  803ed0:	080be8c0 	call	80be8c <__divdf3>
  803ed4:	180b883a 	mov	r5,r3
  803ed8:	1009883a 	mov	r4,r2
  803edc:	080db500 	call	80db50 <__fixdfsi>
  803ee0:	1009883a 	mov	r4,r2
  803ee4:	1027883a 	mov	r19,r2
  803ee8:	080dbd00 	call	80dbd0 <__floatsidf>
  803eec:	a80d883a 	mov	r6,r21
  803ef0:	900f883a 	mov	r7,r18
  803ef4:	1009883a 	mov	r4,r2
  803ef8:	180b883a 	mov	r5,r3
  803efc:	080ca200 	call	80ca20 <__muldf3>
  803f00:	100d883a 	mov	r6,r2
  803f04:	a009883a 	mov	r4,r20
  803f08:	880b883a 	mov	r5,r17
  803f0c:	180f883a 	mov	r7,r3
  803f10:	080d1c80 	call	80d1c8 <__subdf3>
  803f14:	d9800417 	ldw	r6,16(sp)
  803f18:	1009883a 	mov	r4,r2
  803f1c:	98800c04 	addi	r2,r19,48
  803f20:	e0800005 	stb	r2,0(fp)
  803f24:	30800060 	cmpeqi	r2,r6,1
  803f28:	180b883a 	mov	r5,r3
  803f2c:	e4000044 	addi	r16,fp,1
  803f30:	1002a91e 	bne	r2,zero,8049d8 <_dtoa_r+0x1304>
  803f34:	04400044 	movi	r17,1
  803f38:	3027883a 	mov	r19,r6
  803f3c:	dd800215 	stw	r22,8(sp)
  803f40:	ddc00415 	stw	r23,16(sp)
  803f44:	00001c06 	br	803fb8 <_dtoa_r+0x8e4>
  803f48:	a80d883a 	mov	r6,r21
  803f4c:	900f883a 	mov	r7,r18
  803f50:	b809883a 	mov	r4,r23
  803f54:	a00b883a 	mov	r5,r20
  803f58:	080be8c0 	call	80be8c <__divdf3>
  803f5c:	180b883a 	mov	r5,r3
  803f60:	1009883a 	mov	r4,r2
  803f64:	080db500 	call	80db50 <__fixdfsi>
  803f68:	1009883a 	mov	r4,r2
  803f6c:	102d883a 	mov	r22,r2
  803f70:	080dbd00 	call	80dbd0 <__floatsidf>
  803f74:	a80d883a 	mov	r6,r21
  803f78:	900f883a 	mov	r7,r18
  803f7c:	1009883a 	mov	r4,r2
  803f80:	180b883a 	mov	r5,r3
  803f84:	080ca200 	call	80ca20 <__muldf3>
  803f88:	b809883a 	mov	r4,r23
  803f8c:	a00b883a 	mov	r5,r20
  803f90:	100d883a 	mov	r6,r2
  803f94:	180f883a 	mov	r7,r3
  803f98:	080d1c80 	call	80d1c8 <__subdf3>
  803f9c:	b1000c04 	addi	r4,r22,48
  803fa0:	81000005 	stb	r4,0(r16)
  803fa4:	8c400044 	addi	r17,r17,1
  803fa8:	84000044 	addi	r16,r16,1
  803fac:	1009883a 	mov	r4,r2
  803fb0:	180b883a 	mov	r5,r3
  803fb4:	9c428526 	beq	r19,r17,8049cc <_dtoa_r+0x12f8>
  803fb8:	000d883a 	mov	r6,zero
  803fbc:	01d00934 	movhi	r7,16420
  803fc0:	080ca200 	call	80ca20 <__muldf3>
  803fc4:	000d883a 	mov	r6,zero
  803fc8:	000f883a 	mov	r7,zero
  803fcc:	1009883a 	mov	r4,r2
  803fd0:	180b883a 	mov	r5,r3
  803fd4:	102f883a 	mov	r23,r2
  803fd8:	1829883a 	mov	r20,r3
  803fdc:	080c7c00 	call	80c7c0 <__eqdf2>
  803fe0:	103fd91e 	bne	r2,zero,803f48 <_dtoa_r+0x874>
  803fe4:	d8800317 	ldw	r2,12(sp)
  803fe8:	dd800217 	ldw	r22,8(sp)
  803fec:	ddc00417 	ldw	r23,16(sp)
  803ff0:	10800044 	addi	r2,r2,1
  803ff4:	d8800315 	stw	r2,12(sp)
  803ff8:	8025883a 	mov	r18,r16
  803ffc:	0000a806 	br	8042a0 <_dtoa_r+0xbcc>
  804000:	d8c00617 	ldw	r3,24(sp)
  804004:	1800ec26 	beq	r3,zero,8043b8 <_dtoa_r+0xce4>
  804008:	d8c00117 	ldw	r3,4(sp)
  80400c:	18c00088 	cmpgei	r3,r3,2
  804010:	1801e926 	beq	r3,zero,8047b8 <_dtoa_r+0x10e4>
  804014:	d8800417 	ldw	r2,16(sp)
  804018:	157fffc4 	addi	r21,r2,-1
  80401c:	d8800717 	ldw	r2,28(sp)
  804020:	1541c50e 	bge	r2,r21,804738 <_dtoa_r+0x1064>
  804024:	d8800717 	ldw	r2,28(sp)
  804028:	dd400715 	stw	r21,28(sp)
  80402c:	a885c83a 	sub	r2,r21,r2
  804030:	98a7883a 	add	r19,r19,r2
  804034:	002b883a 	mov	r21,zero
  804038:	d8800417 	ldw	r2,16(sp)
  80403c:	10029516 	blt	r2,zero,804a94 <_dtoa_r+0x13c0>
  804040:	d8c00517 	ldw	r3,20(sp)
  804044:	d9000217 	ldw	r4,8(sp)
  804048:	1825883a 	mov	r18,r3
  80404c:	2089883a 	add	r4,r4,r2
  804050:	10c5883a 	add	r2,r2,r3
  804054:	d9000215 	stw	r4,8(sp)
  804058:	d8800515 	stw	r2,20(sp)
  80405c:	01400044 	movi	r5,1
  804060:	b809883a 	mov	r4,r23
  804064:	08070840 	call	807084 <__i2b>
  804068:	1021883a 	mov	r16,r2
  80406c:	04800b0e 	bge	zero,r18,80409c <_dtoa_r+0x9c8>
  804070:	d8c00217 	ldw	r3,8(sp)
  804074:	00c0090e 	bge	zero,r3,80409c <_dtoa_r+0x9c8>
  804078:	9005883a 	mov	r2,r18
  80407c:	1c81a616 	blt	r3,r18,804718 <_dtoa_r+0x1044>
  804080:	d8c00517 	ldw	r3,20(sp)
  804084:	90a5c83a 	sub	r18,r18,r2
  804088:	1887c83a 	sub	r3,r3,r2
  80408c:	d8c00515 	stw	r3,20(sp)
  804090:	d8c00217 	ldw	r3,8(sp)
  804094:	1885c83a 	sub	r2,r3,r2
  804098:	d8800215 	stw	r2,8(sp)
  80409c:	d8800717 	ldw	r2,28(sp)
  8040a0:	10001526 	beq	r2,zero,8040f8 <_dtoa_r+0xa24>
  8040a4:	d8800617 	ldw	r2,24(sp)
  8040a8:	1001f626 	beq	r2,zero,804884 <_dtoa_r+0x11b0>
  8040ac:	05400f0e 	bge	zero,r21,8040ec <_dtoa_r+0xa18>
  8040b0:	800b883a 	mov	r5,r16
  8040b4:	a80d883a 	mov	r6,r21
  8040b8:	b809883a 	mov	r4,r23
  8040bc:	08073840 	call	807384 <__pow5mult>
  8040c0:	b00d883a 	mov	r6,r22
  8040c4:	100b883a 	mov	r5,r2
  8040c8:	b809883a 	mov	r4,r23
  8040cc:	1021883a 	mov	r16,r2
  8040d0:	08070d80 	call	8070d8 <__multiply>
  8040d4:	b00b883a 	mov	r5,r22
  8040d8:	b809883a 	mov	r4,r23
  8040dc:	d8800915 	stw	r2,36(sp)
  8040e0:	0806cb80 	call	806cb8 <_Bfree>
  8040e4:	d8800917 	ldw	r2,36(sp)
  8040e8:	102d883a 	mov	r22,r2
  8040ec:	d8800717 	ldw	r2,28(sp)
  8040f0:	154dc83a 	sub	r6,r2,r21
  8040f4:	1542621e 	bne	r2,r21,804a80 <_dtoa_r+0x13ac>
  8040f8:	01400044 	movi	r5,1
  8040fc:	b809883a 	mov	r4,r23
  804100:	08070840 	call	807084 <__i2b>
  804104:	102b883a 	mov	r21,r2
  804108:	04c0be16 	blt	zero,r19,804404 <_dtoa_r+0xd30>
  80410c:	d8800117 	ldw	r2,4(sp)
  804110:	10800088 	cmpgei	r2,r2,2
  804114:	10015226 	beq	r2,zero,804660 <_dtoa_r+0xf8c>
  804118:	0023883a 	mov	r17,zero
  80411c:	00800044 	movi	r2,1
  804120:	9800c11e 	bne	r19,zero,804428 <_dtoa_r+0xd54>
  804124:	d9400217 	ldw	r5,8(sp)
  804128:	1145883a 	add	r2,r2,r5
  80412c:	108007cc 	andi	r2,r2,31
  804130:	1000a526 	beq	r2,zero,8043c8 <_dtoa_r+0xcf4>
  804134:	00c00804 	movi	r3,32
  804138:	1887c83a 	sub	r3,r3,r2
  80413c:	19000150 	cmplti	r4,r3,5
  804140:	2003311e 	bne	r4,zero,804e08 <_dtoa_r+0x1734>
  804144:	00c00704 	movi	r3,28
  804148:	1885c83a 	sub	r2,r3,r2
  80414c:	d8c00517 	ldw	r3,20(sp)
  804150:	90a5883a 	add	r18,r18,r2
  804154:	1887883a 	add	r3,r3,r2
  804158:	2885883a 	add	r2,r5,r2
  80415c:	d8c00515 	stw	r3,20(sp)
  804160:	d8800215 	stw	r2,8(sp)
  804164:	d8800517 	ldw	r2,20(sp)
  804168:	0080050e 	bge	zero,r2,804180 <_dtoa_r+0xaac>
  80416c:	b00b883a 	mov	r5,r22
  804170:	100d883a 	mov	r6,r2
  804174:	b809883a 	mov	r4,r23
  804178:	080749c0 	call	80749c <__lshift>
  80417c:	102d883a 	mov	r22,r2
  804180:	d8800217 	ldw	r2,8(sp)
  804184:	0080050e 	bge	zero,r2,80419c <_dtoa_r+0xac8>
  804188:	a80b883a 	mov	r5,r21
  80418c:	100d883a 	mov	r6,r2
  804190:	b809883a 	mov	r4,r23
  804194:	080749c0 	call	80749c <__lshift>
  804198:	102b883a 	mov	r21,r2
  80419c:	d8800817 	ldw	r2,32(sp)
  8041a0:	1001161e 	bne	r2,zero,8045fc <_dtoa_r+0xf28>
  8041a4:	d8800417 	ldw	r2,16(sp)
  8041a8:	0081040e 	bge	zero,r2,8045bc <_dtoa_r+0xee8>
  8041ac:	d8800617 	ldw	r2,24(sp)
  8041b0:	1000b01e 	bne	r2,zero,804474 <_dtoa_r+0xda0>
  8041b4:	d8800317 	ldw	r2,12(sp)
  8041b8:	10800044 	addi	r2,r2,1
  8041bc:	d8800315 	stw	r2,12(sp)
  8041c0:	dc800417 	ldw	r18,16(sp)
  8041c4:	04400044 	movi	r17,1
  8041c8:	00000706 	br	8041e8 <_dtoa_r+0xb14>
  8041cc:	b00b883a 	mov	r5,r22
  8041d0:	000f883a 	mov	r7,zero
  8041d4:	01800284 	movi	r6,10
  8041d8:	b809883a 	mov	r4,r23
  8041dc:	0806cdc0 	call	806cdc <__multadd>
  8041e0:	102d883a 	mov	r22,r2
  8041e4:	8c400044 	addi	r17,r17,1
  8041e8:	a80b883a 	mov	r5,r21
  8041ec:	b009883a 	mov	r4,r22
  8041f0:	08034b40 	call	8034b4 <quorem>
  8041f4:	10c00c04 	addi	r3,r2,48
  8041f8:	e445883a 	add	r2,fp,r17
  8041fc:	10ffffc5 	stb	r3,-1(r2)
  804200:	8cbff216 	blt	r17,r18,8041cc <_dtoa_r+0xaf8>
  804204:	d8800417 	ldw	r2,16(sp)
  804208:	0081510e 	bge	zero,r2,804750 <_dtoa_r+0x107c>
  80420c:	e0a5883a 	add	r18,fp,r2
  804210:	0023883a 	mov	r17,zero
  804214:	b00b883a 	mov	r5,r22
  804218:	01800044 	movi	r6,1
  80421c:	b809883a 	mov	r4,r23
  804220:	d8c00115 	stw	r3,4(sp)
  804224:	080749c0 	call	80749c <__lshift>
  804228:	1009883a 	mov	r4,r2
  80422c:	a80b883a 	mov	r5,r21
  804230:	102d883a 	mov	r22,r2
  804234:	08076240 	call	807624 <__mcmp>
  804238:	913fffc3 	ldbu	r4,-1(r18)
  80423c:	00800416 	blt	zero,r2,804250 <_dtoa_r+0xb7c>
  804240:	00014806 	br	804764 <_dtoa_r+0x1090>
  804244:	e0c15626 	beq	fp,r3,8047a0 <_dtoa_r+0x10cc>
  804248:	193fffc3 	ldbu	r4,-1(r3)
  80424c:	1825883a 	mov	r18,r3
  804250:	20803fcc 	andi	r2,r4,255
  804254:	1080201c 	xori	r2,r2,128
  804258:	10bfe004 	addi	r2,r2,-128
  80425c:	10800e60 	cmpeqi	r2,r2,57
  804260:	90ffffc4 	addi	r3,r18,-1
  804264:	103ff71e 	bne	r2,zero,804244 <_dtoa_r+0xb70>
  804268:	21000044 	addi	r4,r4,1
  80426c:	19000005 	stb	r4,0(r3)
  804270:	a80b883a 	mov	r5,r21
  804274:	b809883a 	mov	r4,r23
  804278:	0806cb80 	call	806cb8 <_Bfree>
  80427c:	80000826 	beq	r16,zero,8042a0 <_dtoa_r+0xbcc>
  804280:	88000426 	beq	r17,zero,804294 <_dtoa_r+0xbc0>
  804284:	8c000326 	beq	r17,r16,804294 <_dtoa_r+0xbc0>
  804288:	880b883a 	mov	r5,r17
  80428c:	b809883a 	mov	r4,r23
  804290:	0806cb80 	call	806cb8 <_Bfree>
  804294:	800b883a 	mov	r5,r16
  804298:	b809883a 	mov	r4,r23
  80429c:	0806cb80 	call	806cb8 <_Bfree>
  8042a0:	b00b883a 	mov	r5,r22
  8042a4:	b809883a 	mov	r4,r23
  8042a8:	0806cb80 	call	806cb8 <_Bfree>
  8042ac:	d8801f17 	ldw	r2,124(sp)
  8042b0:	d8c00317 	ldw	r3,12(sp)
  8042b4:	90000005 	stb	zero,0(r18)
  8042b8:	10c00015 	stw	r3,0(r2)
  8042bc:	d8802117 	ldw	r2,132(sp)
  8042c0:	103d3526 	beq	r2,zero,803798 <_dtoa_r+0xc4>
  8042c4:	14800015 	stw	r18,0(r2)
  8042c8:	003d3306 	br	803798 <_dtoa_r+0xc4>
  8042cc:	e0bfffc4 	addi	r2,fp,-1
  8042d0:	d8000815 	stw	zero,32(sp)
  8042d4:	10002616 	blt	r2,zero,804370 <_dtoa_r+0xc9c>
  8042d8:	d8000515 	stw	zero,20(sp)
  8042dc:	d8800217 	ldw	r2,8(sp)
  8042e0:	d8c00117 	ldw	r3,4(sp)
  8042e4:	dcc00315 	stw	r19,12(sp)
  8042e8:	14c5883a 	add	r2,r2,r19
  8042ec:	d8800215 	stw	r2,8(sp)
  8042f0:	d8000715 	stw	zero,28(sp)
  8042f4:	188002a8 	cmpgeui	r2,r3,10
  8042f8:	103d9d26 	beq	r2,zero,803970 <_dtoa_r+0x29c>
  8042fc:	00800044 	movi	r2,1
  804300:	d8800615 	stw	r2,24(sp)
  804304:	00bfffc4 	movi	r2,-1
  804308:	04000044 	movi	r16,1
  80430c:	d8000115 	stw	zero,4(sp)
  804310:	d8800415 	stw	r2,16(sp)
  804314:	d8001e15 	stw	zero,120(sp)
  804318:	d8800417 	ldw	r2,16(sp)
  80431c:	b8001115 	stw	zero,68(r23)
  804320:	000b883a 	mov	r5,zero
  804324:	d8800b15 	stw	r2,44(sp)
  804328:	003dae06 	br	8039e4 <_dtoa_r+0x310>
  80432c:	188000e0 	cmpeqi	r2,r3,3
  804330:	d8000615 	stw	zero,24(sp)
  804334:	103eb126 	beq	r2,zero,803dfc <_dtoa_r+0x728>
  804338:	d8801e17 	ldw	r2,120(sp)
  80433c:	d8c00317 	ldw	r3,12(sp)
  804340:	10c5883a 	add	r2,r2,r3
  804344:	d8800b15 	stw	r2,44(sp)
  804348:	10800044 	addi	r2,r2,1
  80434c:	d8800415 	stw	r2,16(sp)
  804350:	100d883a 	mov	r6,r2
  804354:	00bd9816 	blt	zero,r2,8039b8 <_dtoa_r+0x2e4>
  804358:	01800044 	movi	r6,1
  80435c:	003d9606 	br	8039b8 <_dtoa_r+0x2e4>
  804360:	00800044 	movi	r2,1
  804364:	d8800815 	stw	r2,32(sp)
  804368:	e0bfffc4 	addi	r2,fp,-1
  80436c:	103d740e 	bge	r2,zero,803940 <_dtoa_r+0x26c>
  804370:	00800044 	movi	r2,1
  804374:	1705c83a 	sub	r2,r2,fp
  804378:	d8800515 	stw	r2,20(sp)
  80437c:	d8000215 	stw	zero,8(sp)
  804380:	003d7006 	br	803944 <_dtoa_r+0x270>
  804384:	9809883a 	mov	r4,r19
  804388:	080dbd00 	call	80dbd0 <__floatsidf>
  80438c:	900d883a 	mov	r6,r18
  804390:	a80f883a 	mov	r7,r21
  804394:	1009883a 	mov	r4,r2
  804398:	180b883a 	mov	r5,r3
  80439c:	080c7c00 	call	80c7c0 <__eqdf2>
  8043a0:	103d5426 	beq	r2,zero,8038f4 <_dtoa_r+0x220>
  8043a4:	9cffffc4 	addi	r19,r19,-1
  8043a8:	003d5206 	br	8038f4 <_dtoa_r+0x220>
  8043ac:	07002074 	movhi	fp,129
  8043b0:	e701f504 	addi	fp,fp,2004
  8043b4:	003cf806 	br	803798 <_dtoa_r+0xc4>
  8043b8:	dd400717 	ldw	r21,28(sp)
  8043bc:	dc800517 	ldw	r18,20(sp)
  8043c0:	0021883a 	mov	r16,zero
  8043c4:	003f2906 	br	80406c <_dtoa_r+0x998>
  8043c8:	00800704 	movi	r2,28
  8043cc:	d8c00517 	ldw	r3,20(sp)
  8043d0:	90a5883a 	add	r18,r18,r2
  8043d4:	1887883a 	add	r3,r3,r2
  8043d8:	d8c00515 	stw	r3,20(sp)
  8043dc:	d8c00217 	ldw	r3,8(sp)
  8043e0:	1885883a 	add	r2,r3,r2
  8043e4:	d8800215 	stw	r2,8(sp)
  8043e8:	003f5e06 	br	804164 <_dtoa_r+0xa90>
  8043ec:	01000804 	movi	r4,32
  8043f0:	2089c83a 	sub	r4,r4,r2
  8043f4:	a108983a 	sll	r4,r20,r4
  8043f8:	003d0a06 	br	803824 <_dtoa_r+0x150>
  8043fc:	04000044 	movi	r16,1
  804400:	003d6006 	br	803984 <_dtoa_r+0x2b0>
  804404:	100b883a 	mov	r5,r2
  804408:	980d883a 	mov	r6,r19
  80440c:	b809883a 	mov	r4,r23
  804410:	08073840 	call	807384 <__pow5mult>
  804414:	d8c00117 	ldw	r3,4(sp)
  804418:	102b883a 	mov	r21,r2
  80441c:	18c00090 	cmplti	r3,r3,2
  804420:	18014b1e 	bne	r3,zero,804950 <_dtoa_r+0x127c>
  804424:	0023883a 	mov	r17,zero
  804428:	a8800417 	ldw	r2,16(r21)
  80442c:	10800104 	addi	r2,r2,4
  804430:	100490ba 	slli	r2,r2,2
  804434:	a885883a 	add	r2,r21,r2
  804438:	11000017 	ldw	r4,0(r2)
  80443c:	0806f700 	call	806f70 <__hi0bits>
  804440:	00c00804 	movi	r3,32
  804444:	1885c83a 	sub	r2,r3,r2
  804448:	003f3606 	br	804124 <_dtoa_r+0xa50>
  80444c:	800b883a 	mov	r5,r16
  804450:	000f883a 	mov	r7,zero
  804454:	01800284 	movi	r6,10
  804458:	b809883a 	mov	r4,r23
  80445c:	0806cdc0 	call	806cdc <__multadd>
  804460:	1021883a 	mov	r16,r2
  804464:	d8800b17 	ldw	r2,44(sp)
  804468:	00824d0e 	bge	zero,r2,804da0 <_dtoa_r+0x16cc>
  80446c:	dcc00315 	stw	r19,12(sp)
  804470:	d8800415 	stw	r2,16(sp)
  804474:	0480aa16 	blt	zero,r18,804720 <_dtoa_r+0x104c>
  804478:	8801701e 	bne	r17,zero,804a3c <_dtoa_r+0x1368>
  80447c:	8027883a 	mov	r19,r16
  804480:	d9000417 	ldw	r4,16(sp)
  804484:	e0bfffc4 	addi	r2,fp,-1
  804488:	a0c0004c 	andi	r3,r20,1
  80448c:	1105883a 	add	r2,r2,r4
  804490:	d8800415 	stw	r2,16(sp)
  804494:	d8800117 	ldw	r2,4(sp)
  804498:	d8c00715 	stw	r3,28(sp)
  80449c:	e029883a 	mov	r20,fp
  8044a0:	1884b03a 	or	r2,r3,r2
  8044a4:	d8800615 	stw	r2,24(sp)
  8044a8:	df000815 	stw	fp,32(sp)
  8044ac:	00002906 	br	804554 <_dtoa_r+0xe80>
  8044b0:	b009883a 	mov	r4,r22
  8044b4:	08076240 	call	807624 <__mcmp>
  8044b8:	900b883a 	mov	r5,r18
  8044bc:	b809883a 	mov	r4,r23
  8044c0:	d8800215 	stw	r2,8(sp)
  8044c4:	0806cb80 	call	806cb8 <_Bfree>
  8044c8:	d8800217 	ldw	r2,8(sp)
  8044cc:	1000021e 	bne	r2,zero,8044d8 <_dtoa_r+0xe04>
  8044d0:	d8c00617 	ldw	r3,24(sp)
  8044d4:	18022326 	beq	r3,zero,804d64 <_dtoa_r+0x1690>
  8044d8:	a4800044 	addi	r18,r20,1
  8044dc:	88012216 	blt	r17,zero,804968 <_dtoa_r+0x1294>
  8044e0:	d8c00117 	ldw	r3,4(sp)
  8044e4:	1c62b03a 	or	r17,r3,r17
  8044e8:	d8c00717 	ldw	r3,28(sp)
  8044ec:	1c62b03a 	or	r17,r3,r17
  8044f0:	88011d26 	beq	r17,zero,804968 <_dtoa_r+0x1294>
  8044f4:	00816b16 	blt	zero,r2,804aa4 <_dtoa_r+0x13d0>
  8044f8:	d8800417 	ldw	r2,16(sp)
  8044fc:	a7000005 	stb	fp,0(r20)
  804500:	15017126 	beq	r2,r20,804ac8 <_dtoa_r+0x13f4>
  804504:	b00b883a 	mov	r5,r22
  804508:	000f883a 	mov	r7,zero
  80450c:	01800284 	movi	r6,10
  804510:	b809883a 	mov	r4,r23
  804514:	0806cdc0 	call	806cdc <__multadd>
  804518:	102d883a 	mov	r22,r2
  80451c:	800b883a 	mov	r5,r16
  804520:	000f883a 	mov	r7,zero
  804524:	01800284 	movi	r6,10
  804528:	b809883a 	mov	r4,r23
  80452c:	84c01f26 	beq	r16,r19,8045ac <_dtoa_r+0xed8>
  804530:	0806cdc0 	call	806cdc <__multadd>
  804534:	980b883a 	mov	r5,r19
  804538:	000f883a 	mov	r7,zero
  80453c:	01800284 	movi	r6,10
  804540:	b809883a 	mov	r4,r23
  804544:	1021883a 	mov	r16,r2
  804548:	0806cdc0 	call	806cdc <__multadd>
  80454c:	1027883a 	mov	r19,r2
  804550:	9029883a 	mov	r20,r18
  804554:	a80b883a 	mov	r5,r21
  804558:	b009883a 	mov	r4,r22
  80455c:	08034b40 	call	8034b4 <quorem>
  804560:	800b883a 	mov	r5,r16
  804564:	b009883a 	mov	r4,r22
  804568:	1039883a 	mov	fp,r2
  80456c:	d8800515 	stw	r2,20(sp)
  804570:	08076240 	call	807624 <__mcmp>
  804574:	a80b883a 	mov	r5,r21
  804578:	980d883a 	mov	r6,r19
  80457c:	b809883a 	mov	r4,r23
  804580:	1023883a 	mov	r17,r2
  804584:	080767c0 	call	80767c <__mdiff>
  804588:	1025883a 	mov	r18,r2
  80458c:	10800317 	ldw	r2,12(r2)
  804590:	e7000c04 	addi	fp,fp,48
  804594:	900b883a 	mov	r5,r18
  804598:	103fc526 	beq	r2,zero,8044b0 <_dtoa_r+0xddc>
  80459c:	b809883a 	mov	r4,r23
  8045a0:	0806cb80 	call	806cb8 <_Bfree>
  8045a4:	00800044 	movi	r2,1
  8045a8:	003fcb06 	br	8044d8 <_dtoa_r+0xe04>
  8045ac:	0806cdc0 	call	806cdc <__multadd>
  8045b0:	1021883a 	mov	r16,r2
  8045b4:	1027883a 	mov	r19,r2
  8045b8:	003fe506 	br	804550 <_dtoa_r+0xe7c>
  8045bc:	d8800117 	ldw	r2,4(sp)
  8045c0:	108000d0 	cmplti	r2,r2,3
  8045c4:	10003c26 	beq	r2,zero,8046b8 <_dtoa_r+0xfe4>
  8045c8:	d8800617 	ldw	r2,24(sp)
  8045cc:	103fa91e 	bne	r2,zero,804474 <_dtoa_r+0xda0>
  8045d0:	a80b883a 	mov	r5,r21
  8045d4:	b009883a 	mov	r4,r22
  8045d8:	08034b40 	call	8034b4 <quorem>
  8045dc:	10c00c04 	addi	r3,r2,48
  8045e0:	d8800317 	ldw	r2,12(sp)
  8045e4:	e4800044 	addi	r18,fp,1
  8045e8:	e0c00005 	stb	r3,0(fp)
  8045ec:	10800044 	addi	r2,r2,1
  8045f0:	d8800315 	stw	r2,12(sp)
  8045f4:	0023883a 	mov	r17,zero
  8045f8:	003f0606 	br	804214 <_dtoa_r+0xb40>
  8045fc:	a80b883a 	mov	r5,r21
  804600:	b009883a 	mov	r4,r22
  804604:	08076240 	call	807624 <__mcmp>
  804608:	103ee60e 	bge	r2,zero,8041a4 <_dtoa_r+0xad0>
  80460c:	b00b883a 	mov	r5,r22
  804610:	000f883a 	mov	r7,zero
  804614:	01800284 	movi	r6,10
  804618:	b809883a 	mov	r4,r23
  80461c:	0806cdc0 	call	806cdc <__multadd>
  804620:	d8c00317 	ldw	r3,12(sp)
  804624:	102d883a 	mov	r22,r2
  804628:	d8800617 	ldw	r2,24(sp)
  80462c:	1cffffc4 	addi	r19,r3,-1
  804630:	103f861e 	bne	r2,zero,80444c <_dtoa_r+0xd78>
  804634:	d8800b17 	ldw	r2,44(sp)
  804638:	0081d40e 	bge	zero,r2,804d8c <_dtoa_r+0x16b8>
  80463c:	d8800415 	stw	r2,16(sp)
  804640:	003edf06 	br	8041c0 <_dtoa_r+0xaec>
  804644:	00802074 	movhi	r2,129
  804648:	e701fe04 	addi	fp,fp,2040
  80464c:	1081fec4 	addi	r2,r2,2043
  804650:	003dd906 	br	803db8 <_dtoa_r+0x6e4>
  804654:	00800044 	movi	r2,1
  804658:	d8800615 	stw	r2,24(sp)
  80465c:	003f3606 	br	804338 <_dtoa_r+0xc64>
  804660:	a03ead1e 	bne	r20,zero,804118 <_dtoa_r+0xa44>
  804664:	00800434 	movhi	r2,16
  804668:	10bfffc4 	addi	r2,r2,-1
  80466c:	8884703a 	and	r2,r17,r2
  804670:	103ea91e 	bne	r2,zero,804118 <_dtoa_r+0xa44>
  804674:	8c5ffc2c 	andhi	r17,r17,32752
  804678:	883ea726 	beq	r17,zero,804118 <_dtoa_r+0xa44>
  80467c:	d8800517 	ldw	r2,20(sp)
  804680:	04400044 	movi	r17,1
  804684:	10800044 	addi	r2,r2,1
  804688:	d8800515 	stw	r2,20(sp)
  80468c:	d8800217 	ldw	r2,8(sp)
  804690:	10800044 	addi	r2,r2,1
  804694:	d8800215 	stw	r2,8(sp)
  804698:	003ea006 	br	80411c <_dtoa_r+0xa48>
  80469c:	00800044 	movi	r2,1
  8046a0:	d8800415 	stw	r2,16(sp)
  8046a4:	d8801e15 	stw	r2,120(sp)
  8046a8:	003f1b06 	br	804318 <_dtoa_r+0xc44>
  8046ac:	d8800b17 	ldw	r2,44(sp)
  8046b0:	dcc00315 	stw	r19,12(sp)
  8046b4:	d8800415 	stw	r2,16(sp)
  8046b8:	d8800417 	ldw	r2,16(sp)
  8046bc:	103dfb1e 	bne	r2,zero,803eac <_dtoa_r+0x7d8>
  8046c0:	a80b883a 	mov	r5,r21
  8046c4:	b809883a 	mov	r4,r23
  8046c8:	000f883a 	mov	r7,zero
  8046cc:	01800144 	movi	r6,5
  8046d0:	0806cdc0 	call	806cdc <__multadd>
  8046d4:	100b883a 	mov	r5,r2
  8046d8:	b009883a 	mov	r4,r22
  8046dc:	102b883a 	mov	r21,r2
  8046e0:	08076240 	call	807624 <__mcmp>
  8046e4:	00bdf10e 	bge	zero,r2,803eac <_dtoa_r+0x7d8>
  8046e8:	00800c44 	movi	r2,49
  8046ec:	e0800005 	stb	r2,0(fp)
  8046f0:	d8800317 	ldw	r2,12(sp)
  8046f4:	e4800044 	addi	r18,fp,1
  8046f8:	14400044 	addi	r17,r2,1
  8046fc:	a80b883a 	mov	r5,r21
  804700:	b809883a 	mov	r4,r23
  804704:	0806cb80 	call	806cb8 <_Bfree>
  804708:	88800044 	addi	r2,r17,1
  80470c:	d8800315 	stw	r2,12(sp)
  804710:	803ee01e 	bne	r16,zero,804294 <_dtoa_r+0xbc0>
  804714:	003ee206 	br	8042a0 <_dtoa_r+0xbcc>
  804718:	1805883a 	mov	r2,r3
  80471c:	003e5806 	br	804080 <_dtoa_r+0x9ac>
  804720:	800b883a 	mov	r5,r16
  804724:	900d883a 	mov	r6,r18
  804728:	b809883a 	mov	r4,r23
  80472c:	080749c0 	call	80749c <__lshift>
  804730:	1021883a 	mov	r16,r2
  804734:	003f5006 	br	804478 <_dtoa_r+0xda4>
  804738:	156bc83a 	sub	r21,r2,r21
  80473c:	003e3e06 	br	804038 <_dtoa_r+0x964>
  804740:	dd000a15 	stw	r20,40(sp)
  804744:	dc400c15 	stw	r17,48(sp)
  804748:	04000084 	movi	r16,2
  80474c:	003cc906 	br	803a74 <_dtoa_r+0x3a0>
  804750:	00800044 	movi	r2,1
  804754:	003ead06 	br	80420c <_dtoa_r+0xb38>
  804758:	00800044 	movi	r2,1
  80475c:	d8800615 	stw	r2,24(sp)
  804760:	003c9006 	br	8039a4 <_dtoa_r+0x2d0>
  804764:	1000031e 	bne	r2,zero,804774 <_dtoa_r+0x10a0>
  804768:	d8c00117 	ldw	r3,4(sp)
  80476c:	18c0004c 	andi	r3,r3,1
  804770:	183eb71e 	bne	r3,zero,804250 <_dtoa_r+0xb7c>
  804774:	2005883a 	mov	r2,r4
  804778:	00000206 	br	804784 <_dtoa_r+0x10b0>
  80477c:	90bfff83 	ldbu	r2,-2(r18)
  804780:	1825883a 	mov	r18,r3
  804784:	10803fcc 	andi	r2,r2,255
  804788:	1080201c 	xori	r2,r2,128
  80478c:	10bfe004 	addi	r2,r2,-128
  804790:	10800c18 	cmpnei	r2,r2,48
  804794:	90ffffc4 	addi	r3,r18,-1
  804798:	103ff826 	beq	r2,zero,80477c <_dtoa_r+0x10a8>
  80479c:	003eb406 	br	804270 <_dtoa_r+0xb9c>
  8047a0:	00800c44 	movi	r2,49
  8047a4:	e0800005 	stb	r2,0(fp)
  8047a8:	d8800317 	ldw	r2,12(sp)
  8047ac:	10800044 	addi	r2,r2,1
  8047b0:	d8800315 	stw	r2,12(sp)
  8047b4:	003eae06 	br	804270 <_dtoa_r+0xb9c>
  8047b8:	d8c00917 	ldw	r3,36(sp)
  8047bc:	18011826 	beq	r3,zero,804c20 <_dtoa_r+0x154c>
  8047c0:	d8c00517 	ldw	r3,20(sp)
  8047c4:	d9000217 	ldw	r4,8(sp)
  8047c8:	10810cc4 	addi	r2,r2,1075
  8047cc:	dd400717 	ldw	r21,28(sp)
  8047d0:	2089883a 	add	r4,r4,r2
  8047d4:	1885883a 	add	r2,r3,r2
  8047d8:	1825883a 	mov	r18,r3
  8047dc:	d9000215 	stw	r4,8(sp)
  8047e0:	d8800515 	stw	r2,20(sp)
  8047e4:	003e1d06 	br	80405c <_dtoa_r+0x988>
  8047e8:	8009883a 	mov	r4,r16
  8047ec:	080dbd00 	call	80dbd0 <__floatsidf>
  8047f0:	d9c00a17 	ldw	r7,40(sp)
  8047f4:	900d883a 	mov	r6,r18
  8047f8:	1009883a 	mov	r4,r2
  8047fc:	180b883a 	mov	r5,r3
  804800:	080ca200 	call	80ca20 <__muldf3>
  804804:	000d883a 	mov	r6,zero
  804808:	01d00734 	movhi	r7,16412
  80480c:	1009883a 	mov	r4,r2
  804810:	180b883a 	mov	r5,r3
  804814:	080b5140 	call	80b514 <__adddf3>
  804818:	d8800c15 	stw	r2,48(sp)
  80481c:	00bf3034 	movhi	r2,64704
  804820:	1885883a 	add	r2,r3,r2
  804824:	d8800d15 	stw	r2,52(sp)
  804828:	d9400a17 	ldw	r5,40(sp)
  80482c:	9009883a 	mov	r4,r18
  804830:	000d883a 	mov	r6,zero
  804834:	01d00534 	movhi	r7,16404
  804838:	080d1c80 	call	80d1c8 <__subdf3>
  80483c:	dd400d17 	ldw	r21,52(sp)
  804840:	d9800c17 	ldw	r6,48(sp)
  804844:	1009883a 	mov	r4,r2
  804848:	a80f883a 	mov	r7,r21
  80484c:	180b883a 	mov	r5,r3
  804850:	1025883a 	mov	r18,r2
  804854:	1821883a 	mov	r16,r3
  804858:	080c8400 	call	80c840 <__gedf2>
  80485c:	00812d16 	blt	zero,r2,804d14 <_dtoa_r+0x1640>
  804860:	d9800c17 	ldw	r6,48(sp)
  804864:	a9e0003c 	xorhi	r7,r21,32768
  804868:	9009883a 	mov	r4,r18
  80486c:	800b883a 	mov	r5,r16
  804870:	080c9300 	call	80c930 <__ledf2>
  804874:	103d6e0e 	bge	r2,zero,803e30 <_dtoa_r+0x75c>
  804878:	002b883a 	mov	r21,zero
  80487c:	0021883a 	mov	r16,zero
  804880:	003d8a06 	br	803eac <_dtoa_r+0x7d8>
  804884:	d9800717 	ldw	r6,28(sp)
  804888:	b00b883a 	mov	r5,r22
  80488c:	b809883a 	mov	r4,r23
  804890:	08073840 	call	807384 <__pow5mult>
  804894:	102d883a 	mov	r22,r2
  804898:	003e1706 	br	8040f8 <_dtoa_r+0xa24>
  80489c:	d8800317 	ldw	r2,12(sp)
  8048a0:	10010d26 	beq	r2,zero,804cd8 <_dtoa_r+0x1604>
  8048a4:	00abc83a 	sub	r21,zero,r2
  8048a8:	a88003cc 	andi	r2,r21,15
  8048ac:	100690fa 	slli	r3,r2,3
  8048b0:	00802074 	movhi	r2,129
  8048b4:	10823e04 	addi	r2,r2,2296
  8048b8:	10c5883a 	add	r2,r2,r3
  8048bc:	11800017 	ldw	r6,0(r2)
  8048c0:	11c00117 	ldw	r7,4(r2)
  8048c4:	a009883a 	mov	r4,r20
  8048c8:	880b883a 	mov	r5,r17
  8048cc:	a82bd13a 	srai	r21,r21,4
  8048d0:	080ca200 	call	80ca20 <__muldf3>
  8048d4:	d8c00a15 	stw	r3,40(sp)
  8048d8:	1025883a 	mov	r18,r2
  8048dc:	a8013826 	beq	r21,zero,804dc0 <_dtoa_r+0x16ec>
  8048e0:	02002074 	movhi	r8,129
  8048e4:	04000084 	movi	r16,2
  8048e8:	42023404 	addi	r8,r8,2256
  8048ec:	180b883a 	mov	r5,r3
  8048f0:	dc400c15 	stw	r17,48(sp)
  8048f4:	1009883a 	mov	r4,r2
  8048f8:	8023883a 	mov	r17,r16
  8048fc:	0007883a 	mov	r3,zero
  804900:	4021883a 	mov	r16,r8
  804904:	a980004c 	andi	r6,r21,1
  804908:	30000726 	beq	r6,zero,804928 <_dtoa_r+0x1254>
  80490c:	81800017 	ldw	r6,0(r16)
  804910:	81c00117 	ldw	r7,4(r16)
  804914:	8c400044 	addi	r17,r17,1
  804918:	080ca200 	call	80ca20 <__muldf3>
  80491c:	180b883a 	mov	r5,r3
  804920:	1009883a 	mov	r4,r2
  804924:	00c00044 	movi	r3,1
  804928:	a82bd07a 	srai	r21,r21,1
  80492c:	84000204 	addi	r16,r16,8
  804930:	a83ff41e 	bne	r21,zero,804904 <_dtoa_r+0x1230>
  804934:	18c03fcc 	andi	r3,r3,255
  804938:	8821883a 	mov	r16,r17
  80493c:	dc400c17 	ldw	r17,48(sp)
  804940:	183c6526 	beq	r3,zero,803ad8 <_dtoa_r+0x404>
  804944:	2025883a 	mov	r18,r4
  804948:	d9400a15 	stw	r5,40(sp)
  80494c:	003c6206 	br	803ad8 <_dtoa_r+0x404>
  804950:	a03eb41e 	bne	r20,zero,804424 <_dtoa_r+0xd50>
  804954:	00800434 	movhi	r2,16
  804958:	10bfffc4 	addi	r2,r2,-1
  80495c:	8884703a 	and	r2,r17,r2
  804960:	103f4426 	beq	r2,zero,804674 <_dtoa_r+0xfa0>
  804964:	003eaf06 	br	804424 <_dtoa_r+0xd50>
  804968:	d9000317 	ldw	r4,12(sp)
  80496c:	e007883a 	mov	r3,fp
  804970:	df000817 	ldw	fp,32(sp)
  804974:	21000044 	addi	r4,r4,1
  804978:	d9000315 	stw	r4,12(sp)
  80497c:	00800f0e 	bge	zero,r2,8049bc <_dtoa_r+0x12e8>
  804980:	b00b883a 	mov	r5,r22
  804984:	01800044 	movi	r6,1
  804988:	b809883a 	mov	r4,r23
  80498c:	d8c00115 	stw	r3,4(sp)
  804990:	080749c0 	call	80749c <__lshift>
  804994:	a80b883a 	mov	r5,r21
  804998:	1009883a 	mov	r4,r2
  80499c:	102d883a 	mov	r22,r2
  8049a0:	08076240 	call	807624 <__mcmp>
  8049a4:	d8c00117 	ldw	r3,4(sp)
  8049a8:	0080e40e 	bge	zero,r2,804d3c <_dtoa_r+0x1668>
  8049ac:	18c00e60 	cmpeqi	r3,r3,57
  8049b0:	1800d21e 	bne	r3,zero,804cfc <_dtoa_r+0x1628>
  8049b4:	d8800517 	ldw	r2,20(sp)
  8049b8:	10c00c44 	addi	r3,r2,49
  8049bc:	8023883a 	mov	r17,r16
  8049c0:	a0c00005 	stb	r3,0(r20)
  8049c4:	9821883a 	mov	r16,r19
  8049c8:	003e2906 	br	804270 <_dtoa_r+0xb9c>
  8049cc:	b027883a 	mov	r19,r22
  8049d0:	ddc00417 	ldw	r23,16(sp)
  8049d4:	dd800217 	ldw	r22,8(sp)
  8049d8:	200d883a 	mov	r6,r4
  8049dc:	280f883a 	mov	r7,r5
  8049e0:	080b5140 	call	80b514 <__adddf3>
  8049e4:	dd400117 	ldw	r21,4(sp)
  8049e8:	180b883a 	mov	r5,r3
  8049ec:	900f883a 	mov	r7,r18
  8049f0:	a80d883a 	mov	r6,r21
  8049f4:	1009883a 	mov	r4,r2
  8049f8:	1823883a 	mov	r17,r3
  8049fc:	1029883a 	mov	r20,r2
  804a00:	080c8400 	call	80c840 <__gedf2>
  804a04:	d8c00317 	ldw	r3,12(sp)
  804a08:	18c00044 	addi	r3,r3,1
  804a0c:	d8c00315 	stw	r3,12(sp)
  804a10:	00bcc716 	blt	zero,r2,803d30 <_dtoa_r+0x65c>
  804a14:	a80d883a 	mov	r6,r21
  804a18:	900f883a 	mov	r7,r18
  804a1c:	a009883a 	mov	r4,r20
  804a20:	880b883a 	mov	r5,r17
  804a24:	080c7c00 	call	80c7c0 <__eqdf2>
  804a28:	1000021e 	bne	r2,zero,804a34 <_dtoa_r+0x1360>
  804a2c:	9cc0004c 	andi	r19,r19,1
  804a30:	983cbf1e 	bne	r19,zero,803d30 <_dtoa_r+0x65c>
  804a34:	8025883a 	mov	r18,r16
  804a38:	003e1906 	br	8042a0 <_dtoa_r+0xbcc>
  804a3c:	81400117 	ldw	r5,4(r16)
  804a40:	b809883a 	mov	r4,r23
  804a44:	0806c140 	call	806c14 <_Balloc>
  804a48:	1023883a 	mov	r17,r2
  804a4c:	1000e526 	beq	r2,zero,804de4 <_dtoa_r+0x1710>
  804a50:	81800417 	ldw	r6,16(r16)
  804a54:	81400304 	addi	r5,r16,12
  804a58:	11000304 	addi	r4,r2,12
  804a5c:	31800084 	addi	r6,r6,2
  804a60:	300c90ba 	slli	r6,r6,2
  804a64:	08068f80 	call	8068f8 <memcpy>
  804a68:	01800044 	movi	r6,1
  804a6c:	880b883a 	mov	r5,r17
  804a70:	b809883a 	mov	r4,r23
  804a74:	080749c0 	call	80749c <__lshift>
  804a78:	1027883a 	mov	r19,r2
  804a7c:	003e8006 	br	804480 <_dtoa_r+0xdac>
  804a80:	b00b883a 	mov	r5,r22
  804a84:	b809883a 	mov	r4,r23
  804a88:	08073840 	call	807384 <__pow5mult>
  804a8c:	102d883a 	mov	r22,r2
  804a90:	003d9906 	br	8040f8 <_dtoa_r+0xa24>
  804a94:	d8800517 	ldw	r2,20(sp)
  804a98:	d8c00417 	ldw	r3,16(sp)
  804a9c:	10e5c83a 	sub	r18,r2,r3
  804aa0:	003d6e06 	br	80405c <_dtoa_r+0x988>
  804aa4:	d9000317 	ldw	r4,12(sp)
  804aa8:	e007883a 	mov	r3,fp
  804aac:	18800e58 	cmpnei	r2,r3,57
  804ab0:	21000044 	addi	r4,r4,1
  804ab4:	d9000315 	stw	r4,12(sp)
  804ab8:	df000817 	ldw	fp,32(sp)
  804abc:	10008f26 	beq	r2,zero,804cfc <_dtoa_r+0x1628>
  804ac0:	18c00044 	addi	r3,r3,1
  804ac4:	003fbd06 	br	8049bc <_dtoa_r+0x12e8>
  804ac8:	d8800317 	ldw	r2,12(sp)
  804acc:	e007883a 	mov	r3,fp
  804ad0:	8023883a 	mov	r17,r16
  804ad4:	10800044 	addi	r2,r2,1
  804ad8:	df000817 	ldw	fp,32(sp)
  804adc:	d8800315 	stw	r2,12(sp)
  804ae0:	9821883a 	mov	r16,r19
  804ae4:	003dcb06 	br	804214 <_dtoa_r+0xb40>
  804ae8:	d9000c17 	ldw	r4,48(sp)
  804aec:	d9400d17 	ldw	r5,52(sp)
  804af0:	600d883a 	mov	r6,r12
  804af4:	680f883a 	mov	r7,r13
  804af8:	dac00a15 	stw	r11,40(sp)
  804afc:	080ca200 	call	80ca20 <__muldf3>
  804b00:	dac00a17 	ldw	r11,40(sp)
  804b04:	d9400e17 	ldw	r5,56(sp)
  804b08:	d8800a15 	stw	r2,40(sp)
  804b0c:	e2c00005 	stb	r11,0(fp)
  804b10:	29000058 	cmpnei	r4,r5,1
  804b14:	d8c00c15 	stw	r3,48(sp)
  804b18:	e145883a 	add	r2,fp,r5
  804b1c:	20002126 	beq	r4,zero,804ba4 <_dtoa_r+0x14d0>
  804b20:	dc400e15 	stw	r17,56(sp)
  804b24:	dcc00d15 	stw	r19,52(sp)
  804b28:	8023883a 	mov	r17,r16
  804b2c:	a809883a 	mov	r4,r21
  804b30:	900b883a 	mov	r5,r18
  804b34:	1021883a 	mov	r16,r2
  804b38:	000d883a 	mov	r6,zero
  804b3c:	01d00934 	movhi	r7,16420
  804b40:	080ca200 	call	80ca20 <__muldf3>
  804b44:	180b883a 	mov	r5,r3
  804b48:	1009883a 	mov	r4,r2
  804b4c:	182b883a 	mov	r21,r3
  804b50:	1027883a 	mov	r19,r2
  804b54:	080db500 	call	80db50 <__fixdfsi>
  804b58:	1009883a 	mov	r4,r2
  804b5c:	1025883a 	mov	r18,r2
  804b60:	080dbd00 	call	80dbd0 <__floatsidf>
  804b64:	9809883a 	mov	r4,r19
  804b68:	a80b883a 	mov	r5,r21
  804b6c:	100d883a 	mov	r6,r2
  804b70:	180f883a 	mov	r7,r3
  804b74:	8c400044 	addi	r17,r17,1
  804b78:	94800c04 	addi	r18,r18,48
  804b7c:	080d1c80 	call	80d1c8 <__subdf3>
  804b80:	8cbfffc5 	stb	r18,-1(r17)
  804b84:	1009883a 	mov	r4,r2
  804b88:	180b883a 	mov	r5,r3
  804b8c:	847fea1e 	bne	r16,r17,804b38 <_dtoa_r+0x1464>
  804b90:	8821883a 	mov	r16,r17
  804b94:	dcc00d17 	ldw	r19,52(sp)
  804b98:	dc400e17 	ldw	r17,56(sp)
  804b9c:	102b883a 	mov	r21,r2
  804ba0:	1825883a 	mov	r18,r3
  804ba4:	d9000a17 	ldw	r4,40(sp)
  804ba8:	d9400c17 	ldw	r5,48(sp)
  804bac:	000d883a 	mov	r6,zero
  804bb0:	01cff834 	movhi	r7,16352
  804bb4:	080b5140 	call	80b514 <__adddf3>
  804bb8:	a80d883a 	mov	r6,r21
  804bbc:	900f883a 	mov	r7,r18
  804bc0:	1009883a 	mov	r4,r2
  804bc4:	180b883a 	mov	r5,r3
  804bc8:	080c9300 	call	80c930 <__ledf2>
  804bcc:	103c5316 	blt	r2,zero,803d1c <_dtoa_r+0x648>
  804bd0:	d9800a17 	ldw	r6,40(sp)
  804bd4:	d9c00c17 	ldw	r7,48(sp)
  804bd8:	0009883a 	mov	r4,zero
  804bdc:	014ff834 	movhi	r5,16352
  804be0:	080d1c80 	call	80d1c8 <__subdf3>
  804be4:	a80d883a 	mov	r6,r21
  804be8:	900f883a 	mov	r7,r18
  804bec:	1009883a 	mov	r4,r2
  804bf0:	180b883a 	mov	r5,r3
  804bf4:	080c8400 	call	80c840 <__gedf2>
  804bf8:	00bc8d0e 	bge	zero,r2,803e30 <_dtoa_r+0x75c>
  804bfc:	80bfffc7 	ldb	r2,-1(r16)
  804c00:	8025883a 	mov	r18,r16
  804c04:	843fffc4 	addi	r16,r16,-1
  804c08:	10800c20 	cmpeqi	r2,r2,48
  804c0c:	103ffb1e 	bne	r2,zero,804bfc <_dtoa_r+0x1528>
  804c10:	d8801117 	ldw	r2,68(sp)
  804c14:	10800044 	addi	r2,r2,1
  804c18:	d8800315 	stw	r2,12(sp)
  804c1c:	003da006 	br	8042a0 <_dtoa_r+0xbcc>
  804c20:	d8c01217 	ldw	r3,72(sp)
  804c24:	00800d84 	movi	r2,54
  804c28:	d9000517 	ldw	r4,20(sp)
  804c2c:	10c5c83a 	sub	r2,r2,r3
  804c30:	d8c00217 	ldw	r3,8(sp)
  804c34:	dd400717 	ldw	r21,28(sp)
  804c38:	2025883a 	mov	r18,r4
  804c3c:	1887883a 	add	r3,r3,r2
  804c40:	2085883a 	add	r2,r4,r2
  804c44:	d8c00215 	stw	r3,8(sp)
  804c48:	d8800515 	stw	r2,20(sp)
  804c4c:	003d0306 	br	80405c <_dtoa_r+0x988>
  804c50:	d8800417 	ldw	r2,16(sp)
  804c54:	103ee426 	beq	r2,zero,8047e8 <_dtoa_r+0x1114>
  804c58:	d8800b17 	ldw	r2,44(sp)
  804c5c:	00bc740e 	bge	zero,r2,803e30 <_dtoa_r+0x75c>
  804c60:	a80b883a 	mov	r5,r21
  804c64:	9009883a 	mov	r4,r18
  804c68:	000d883a 	mov	r6,zero
  804c6c:	01d00934 	movhi	r7,16420
  804c70:	080ca200 	call	80ca20 <__muldf3>
  804c74:	81000044 	addi	r4,r16,1
  804c78:	1025883a 	mov	r18,r2
  804c7c:	182b883a 	mov	r21,r3
  804c80:	d8c00a15 	stw	r3,40(sp)
  804c84:	080dbd00 	call	80dbd0 <__floatsidf>
  804c88:	900d883a 	mov	r6,r18
  804c8c:	a80f883a 	mov	r7,r21
  804c90:	1009883a 	mov	r4,r2
  804c94:	180b883a 	mov	r5,r3
  804c98:	080ca200 	call	80ca20 <__muldf3>
  804c9c:	1009883a 	mov	r4,r2
  804ca0:	000d883a 	mov	r6,zero
  804ca4:	01d00734 	movhi	r7,16412
  804ca8:	180b883a 	mov	r5,r3
  804cac:	080b5140 	call	80b514 <__adddf3>
  804cb0:	d9000317 	ldw	r4,12(sp)
  804cb4:	d8800c15 	stw	r2,48(sp)
  804cb8:	00bf3034 	movhi	r2,64704
  804cbc:	1887883a 	add	r3,r3,r2
  804cc0:	d8800b17 	ldw	r2,44(sp)
  804cc4:	213fffc4 	addi	r4,r4,-1
  804cc8:	d9001115 	stw	r4,68(sp)
  804ccc:	d8c00d15 	stw	r3,52(sp)
  804cd0:	d8800e15 	stw	r2,56(sp)
  804cd4:	003b9f06 	br	803b54 <_dtoa_r+0x480>
  804cd8:	a025883a 	mov	r18,r20
  804cdc:	dc400a15 	stw	r17,40(sp)
  804ce0:	04000084 	movi	r16,2
  804ce4:	003b7c06 	br	803ad8 <_dtoa_r+0x404>
  804ce8:	d8800317 	ldw	r2,12(sp)
  804cec:	00c00c44 	movi	r3,49
  804cf0:	10800044 	addi	r2,r2,1
  804cf4:	d8800315 	stw	r2,12(sp)
  804cf8:	003c1606 	br	803d54 <_dtoa_r+0x680>
  804cfc:	00800e44 	movi	r2,57
  804d00:	8023883a 	mov	r17,r16
  804d04:	a0800005 	stb	r2,0(r20)
  804d08:	9821883a 	mov	r16,r19
  804d0c:	01000e44 	movi	r4,57
  804d10:	003d4f06 	br	804250 <_dtoa_r+0xb7c>
  804d14:	002b883a 	mov	r21,zero
  804d18:	0021883a 	mov	r16,zero
  804d1c:	003e7206 	br	8046e8 <_dtoa_r+0x1014>
  804d20:	dd800d17 	ldw	r22,52(sp)
  804d24:	ddc00e17 	ldw	r23,56(sp)
  804d28:	d8801117 	ldw	r2,68(sp)
  804d2c:	8025883a 	mov	r18,r16
  804d30:	10800044 	addi	r2,r2,1
  804d34:	d8800315 	stw	r2,12(sp)
  804d38:	003d5906 	br	8042a0 <_dtoa_r+0xbcc>
  804d3c:	103f1f1e 	bne	r2,zero,8049bc <_dtoa_r+0x12e8>
  804d40:	1880004c 	andi	r2,r3,1
  804d44:	103f191e 	bne	r2,zero,8049ac <_dtoa_r+0x12d8>
  804d48:	003f1c06 	br	8049bc <_dtoa_r+0x12e8>
  804d4c:	dcc00f17 	ldw	r19,60(sp)
  804d50:	dd800d17 	ldw	r22,52(sp)
  804d54:	ddc00e17 	ldw	r23,56(sp)
  804d58:	dc400c17 	ldw	r17,48(sp)
  804d5c:	dd000a17 	ldw	r20,40(sp)
  804d60:	003c3306 	br	803e30 <_dtoa_r+0x75c>
  804d64:	d9000317 	ldw	r4,12(sp)
  804d68:	e007883a 	mov	r3,fp
  804d6c:	18800e60 	cmpeqi	r2,r3,57
  804d70:	21000044 	addi	r4,r4,1
  804d74:	d9000315 	stw	r4,12(sp)
  804d78:	df000817 	ldw	fp,32(sp)
  804d7c:	a4800044 	addi	r18,r20,1
  804d80:	103fde1e 	bne	r2,zero,804cfc <_dtoa_r+0x1628>
  804d84:	047f0b16 	blt	zero,r17,8049b4 <_dtoa_r+0x12e0>
  804d88:	003f0c06 	br	8049bc <_dtoa_r+0x12e8>
  804d8c:	d8800117 	ldw	r2,4(sp)
  804d90:	108000c8 	cmpgei	r2,r2,3
  804d94:	103e451e 	bne	r2,zero,8046ac <_dtoa_r+0xfd8>
  804d98:	dcc00315 	stw	r19,12(sp)
  804d9c:	003e0c06 	br	8045d0 <_dtoa_r+0xefc>
  804da0:	d8800117 	ldw	r2,4(sp)
  804da4:	108000c8 	cmpgei	r2,r2,3
  804da8:	103e401e 	bne	r2,zero,8046ac <_dtoa_r+0xfd8>
  804dac:	d8800b17 	ldw	r2,44(sp)
  804db0:	dcc00315 	stw	r19,12(sp)
  804db4:	d8800415 	stw	r2,16(sp)
  804db8:	04bdaf0e 	bge	zero,r18,804478 <_dtoa_r+0xda4>
  804dbc:	003e5806 	br	804720 <_dtoa_r+0x104c>
  804dc0:	04000084 	movi	r16,2
  804dc4:	003b4406 	br	803ad8 <_dtoa_r+0x404>
  804dc8:	01c02074 	movhi	r7,129
  804dcc:	01002074 	movhi	r4,129
  804dd0:	39c20204 	addi	r7,r7,2056
  804dd4:	000d883a 	mov	r6,zero
  804dd8:	01406a84 	movi	r5,426
  804ddc:	21020704 	addi	r4,r4,2076
  804de0:	0809a000 	call	809a00 <__assert_func>
  804de4:	01c02074 	movhi	r7,129
  804de8:	01002074 	movhi	r4,129
  804dec:	39c20204 	addi	r7,r7,2056
  804df0:	000d883a 	mov	r6,zero
  804df4:	0140ba84 	movi	r5,746
  804df8:	21020704 	addi	r4,r4,2076
  804dfc:	0809a000 	call	809a00 <__assert_func>
  804e00:	e701ff04 	addi	fp,fp,2044
  804e04:	003a6406 	br	803798 <_dtoa_r+0xc4>
  804e08:	18c00120 	cmpeqi	r3,r3,4
  804e0c:	183cd51e 	bne	r3,zero,804164 <_dtoa_r+0xa90>
  804e10:	00c00f04 	movi	r3,60
  804e14:	1885c83a 	sub	r2,r3,r2
  804e18:	003d6c06 	br	8043cc <_dtoa_r+0xcf8>
  804e1c:	000b883a 	mov	r5,zero
  804e20:	003af006 	br	8039e4 <_dtoa_r+0x310>

00804e24 <__sflush_r>:
  804e24:	2880030b 	ldhu	r2,12(r5)
  804e28:	defffb04 	addi	sp,sp,-20
  804e2c:	dcc00315 	stw	r19,12(sp)
  804e30:	dc000015 	stw	r16,0(sp)
  804e34:	dfc00415 	stw	ra,16(sp)
  804e38:	dc800215 	stw	r18,8(sp)
  804e3c:	dc400115 	stw	r17,4(sp)
  804e40:	10c0020c 	andi	r3,r2,8
  804e44:	2821883a 	mov	r16,r5
  804e48:	2027883a 	mov	r19,r4
  804e4c:	18003f1e 	bne	r3,zero,804f4c <__sflush_r+0x128>
  804e50:	28c00117 	ldw	r3,4(r5)
  804e54:	10820014 	ori	r2,r2,2048
  804e58:	2880030d 	sth	r2,12(r5)
  804e5c:	00c0550e 	bge	zero,r3,804fb4 <__sflush_r+0x190>
  804e60:	82000a17 	ldw	r8,40(r16)
  804e64:	40003126 	beq	r8,zero,804f2c <__sflush_r+0x108>
  804e68:	9c400017 	ldw	r17,0(r19)
  804e6c:	1104000c 	andi	r4,r2,4096
  804e70:	98000015 	stw	zero,0(r19)
  804e74:	81400717 	ldw	r5,28(r16)
  804e78:	1007883a 	mov	r3,r2
  804e7c:	2000521e 	bne	r4,zero,804fc8 <__sflush_r+0x1a4>
  804e80:	01c00044 	movi	r7,1
  804e84:	000d883a 	mov	r6,zero
  804e88:	9809883a 	mov	r4,r19
  804e8c:	403ee83a 	callr	r8
  804e90:	10ffffd8 	cmpnei	r3,r2,-1
  804e94:	18005826 	beq	r3,zero,804ff8 <__sflush_r+0x1d4>
  804e98:	80c0030b 	ldhu	r3,12(r16)
  804e9c:	82000a17 	ldw	r8,40(r16)
  804ea0:	81400717 	ldw	r5,28(r16)
  804ea4:	18c0010c 	andi	r3,r3,4
  804ea8:	18000626 	beq	r3,zero,804ec4 <__sflush_r+0xa0>
  804eac:	81000117 	ldw	r4,4(r16)
  804eb0:	80c00c17 	ldw	r3,48(r16)
  804eb4:	1105c83a 	sub	r2,r2,r4
  804eb8:	18000226 	beq	r3,zero,804ec4 <__sflush_r+0xa0>
  804ebc:	80c00f17 	ldw	r3,60(r16)
  804ec0:	10c5c83a 	sub	r2,r2,r3
  804ec4:	100d883a 	mov	r6,r2
  804ec8:	000f883a 	mov	r7,zero
  804ecc:	9809883a 	mov	r4,r19
  804ed0:	403ee83a 	callr	r8
  804ed4:	10ffffd8 	cmpnei	r3,r2,-1
  804ed8:	18003d1e 	bne	r3,zero,804fd0 <__sflush_r+0x1ac>
  804edc:	99000017 	ldw	r4,0(r19)
  804ee0:	80c0030b 	ldhu	r3,12(r16)
  804ee4:	20004e26 	beq	r4,zero,805020 <__sflush_r+0x1fc>
  804ee8:	21400760 	cmpeqi	r5,r4,29
  804eec:	2800021e 	bne	r5,zero,804ef8 <__sflush_r+0xd4>
  804ef0:	210005a0 	cmpeqi	r4,r4,22
  804ef4:	20002c26 	beq	r4,zero,804fa8 <__sflush_r+0x184>
  804ef8:	80800417 	ldw	r2,16(r16)
  804efc:	18fdffcc 	andi	r3,r3,63487
  804f00:	80c0030d 	sth	r3,12(r16)
  804f04:	80000115 	stw	zero,4(r16)
  804f08:	80800015 	stw	r2,0(r16)
  804f0c:	81400c17 	ldw	r5,48(r16)
  804f10:	9c400015 	stw	r17,0(r19)
  804f14:	28000526 	beq	r5,zero,804f2c <__sflush_r+0x108>
  804f18:	80801004 	addi	r2,r16,64
  804f1c:	28800226 	beq	r5,r2,804f28 <__sflush_r+0x104>
  804f20:	9809883a 	mov	r4,r19
  804f24:	08055440 	call	805544 <_free_r>
  804f28:	80000c15 	stw	zero,48(r16)
  804f2c:	0005883a 	mov	r2,zero
  804f30:	dfc00417 	ldw	ra,16(sp)
  804f34:	dcc00317 	ldw	r19,12(sp)
  804f38:	dc800217 	ldw	r18,8(sp)
  804f3c:	dc400117 	ldw	r17,4(sp)
  804f40:	dc000017 	ldw	r16,0(sp)
  804f44:	dec00504 	addi	sp,sp,20
  804f48:	f800283a 	ret
  804f4c:	2c800417 	ldw	r18,16(r5)
  804f50:	903ff626 	beq	r18,zero,804f2c <__sflush_r+0x108>
  804f54:	2c400017 	ldw	r17,0(r5)
  804f58:	108000cc 	andi	r2,r2,3
  804f5c:	2c800015 	stw	r18,0(r5)
  804f60:	8ca3c83a 	sub	r17,r17,r18
  804f64:	1000161e 	bne	r2,zero,804fc0 <__sflush_r+0x19c>
  804f68:	28800517 	ldw	r2,20(r5)
  804f6c:	80800215 	stw	r2,8(r16)
  804f70:	04400316 	blt	zero,r17,804f80 <__sflush_r+0x15c>
  804f74:	003fed06 	br	804f2c <__sflush_r+0x108>
  804f78:	90a5883a 	add	r18,r18,r2
  804f7c:	047feb0e 	bge	zero,r17,804f2c <__sflush_r+0x108>
  804f80:	80800917 	ldw	r2,36(r16)
  804f84:	81400717 	ldw	r5,28(r16)
  804f88:	880f883a 	mov	r7,r17
  804f8c:	900d883a 	mov	r6,r18
  804f90:	9809883a 	mov	r4,r19
  804f94:	103ee83a 	callr	r2
  804f98:	88a3c83a 	sub	r17,r17,r2
  804f9c:	00bff616 	blt	zero,r2,804f78 <__sflush_r+0x154>
  804fa0:	80c0030b 	ldhu	r3,12(r16)
  804fa4:	00bfffc4 	movi	r2,-1
  804fa8:	18c01014 	ori	r3,r3,64
  804fac:	80c0030d 	sth	r3,12(r16)
  804fb0:	003fdf06 	br	804f30 <__sflush_r+0x10c>
  804fb4:	28c00f17 	ldw	r3,60(r5)
  804fb8:	00ffa916 	blt	zero,r3,804e60 <__sflush_r+0x3c>
  804fbc:	003fdb06 	br	804f2c <__sflush_r+0x108>
  804fc0:	0005883a 	mov	r2,zero
  804fc4:	003fe906 	br	804f6c <__sflush_r+0x148>
  804fc8:	80801417 	ldw	r2,80(r16)
  804fcc:	003fb506 	br	804ea4 <__sflush_r+0x80>
  804fd0:	80c0030b 	ldhu	r3,12(r16)
  804fd4:	81000417 	ldw	r4,16(r16)
  804fd8:	80000115 	stw	zero,4(r16)
  804fdc:	197dffcc 	andi	r5,r3,63487
  804fe0:	8140030d 	sth	r5,12(r16)
  804fe4:	81000015 	stw	r4,0(r16)
  804fe8:	18c4000c 	andi	r3,r3,4096
  804fec:	183fc726 	beq	r3,zero,804f0c <__sflush_r+0xe8>
  804ff0:	80801415 	stw	r2,80(r16)
  804ff4:	003fc506 	br	804f0c <__sflush_r+0xe8>
  804ff8:	98c00017 	ldw	r3,0(r19)
  804ffc:	183fa626 	beq	r3,zero,804e98 <__sflush_r+0x74>
  805000:	19000760 	cmpeqi	r4,r3,29
  805004:	20000e1e 	bne	r4,zero,805040 <__sflush_r+0x21c>
  805008:	18c00598 	cmpnei	r3,r3,22
  80500c:	18000c26 	beq	r3,zero,805040 <__sflush_r+0x21c>
  805010:	80c0030b 	ldhu	r3,12(r16)
  805014:	18c01014 	ori	r3,r3,64
  805018:	80c0030d 	sth	r3,12(r16)
  80501c:	003fc406 	br	804f30 <__sflush_r+0x10c>
  805020:	81000417 	ldw	r4,16(r16)
  805024:	197dffcc 	andi	r5,r3,63487
  805028:	8140030d 	sth	r5,12(r16)
  80502c:	80000115 	stw	zero,4(r16)
  805030:	81000015 	stw	r4,0(r16)
  805034:	18c4000c 	andi	r3,r3,4096
  805038:	183fb426 	beq	r3,zero,804f0c <__sflush_r+0xe8>
  80503c:	003fec06 	br	804ff0 <__sflush_r+0x1cc>
  805040:	9c400015 	stw	r17,0(r19)
  805044:	0005883a 	mov	r2,zero
  805048:	003fb906 	br	804f30 <__sflush_r+0x10c>

0080504c <_fflush_r>:
  80504c:	defffd04 	addi	sp,sp,-12
  805050:	dc000115 	stw	r16,4(sp)
  805054:	dfc00215 	stw	ra,8(sp)
  805058:	2021883a 	mov	r16,r4
  80505c:	20000226 	beq	r4,zero,805068 <_fflush_r+0x1c>
  805060:	20800e17 	ldw	r2,56(r4)
  805064:	10000726 	beq	r2,zero,805084 <_fflush_r+0x38>
  805068:	2880030f 	ldh	r2,12(r5)
  80506c:	10000a1e 	bne	r2,zero,805098 <_fflush_r+0x4c>
  805070:	0005883a 	mov	r2,zero
  805074:	dfc00217 	ldw	ra,8(sp)
  805078:	dc000117 	ldw	r16,4(sp)
  80507c:	dec00304 	addi	sp,sp,12
  805080:	f800283a 	ret
  805084:	d9400015 	stw	r5,0(sp)
  805088:	08053e00 	call	8053e0 <__sinit>
  80508c:	d9400017 	ldw	r5,0(sp)
  805090:	2880030f 	ldh	r2,12(r5)
  805094:	103ff626 	beq	r2,zero,805070 <_fflush_r+0x24>
  805098:	8009883a 	mov	r4,r16
  80509c:	dfc00217 	ldw	ra,8(sp)
  8050a0:	dc000117 	ldw	r16,4(sp)
  8050a4:	dec00304 	addi	sp,sp,12
  8050a8:	0804e241 	jmpi	804e24 <__sflush_r>

008050ac <fflush>:
  8050ac:	200b883a 	mov	r5,r4
  8050b0:	20000326 	beq	r4,zero,8050c0 <fflush+0x14>
  8050b4:	00802074 	movhi	r2,129
  8050b8:	110a2117 	ldw	r4,10372(r2)
  8050bc:	080504c1 	jmpi	80504c <_fflush_r>
  8050c0:	00802074 	movhi	r2,129
  8050c4:	110a2017 	ldw	r4,10368(r2)
  8050c8:	01402034 	movhi	r5,128
  8050cc:	29541304 	addi	r5,r5,20556
  8050d0:	0805da41 	jmpi	805da4 <_fwalk_reent>

008050d4 <__fp_lock>:
  8050d4:	0005883a 	mov	r2,zero
  8050d8:	f800283a 	ret

008050dc <_cleanup_r>:
  8050dc:	01402074 	movhi	r5,129
  8050e0:	2966cf04 	addi	r5,r5,-25796
  8050e4:	0805da41 	jmpi	805da4 <_fwalk_reent>

008050e8 <__sinit.part.0>:
  8050e8:	00c02034 	movhi	r3,128
  8050ec:	20800117 	ldw	r2,4(r4)
  8050f0:	18d43704 	addi	r3,r3,20700
  8050f4:	20c00f15 	stw	r3,60(r4)
  8050f8:	2140bb04 	addi	r5,r4,748
  8050fc:	00c000c4 	movi	r3,3
  805100:	20c0b915 	stw	r3,740(r4)
  805104:	2140ba15 	stw	r5,744(r4)
  805108:	2000b815 	stw	zero,736(r4)
  80510c:	10001705 	stb	zero,92(r2)
  805110:	10001745 	stb	zero,93(r2)
  805114:	10001785 	stb	zero,94(r2)
  805118:	100017c5 	stb	zero,95(r2)
  80511c:	10001805 	stb	zero,96(r2)
  805120:	10001845 	stb	zero,97(r2)
  805124:	10001885 	stb	zero,98(r2)
  805128:	100018c5 	stb	zero,99(r2)
  80512c:	00c00104 	movi	r3,4
  805130:	10c00315 	stw	r3,12(r2)
  805134:	02002074 	movhi	r8,129
  805138:	20c00217 	ldw	r3,8(r4)
  80513c:	01c02074 	movhi	r7,129
  805140:	01802074 	movhi	r6,129
  805144:	01402074 	movhi	r5,129
  805148:	4220c204 	addi	r8,r8,-31992
  80514c:	39e0d904 	addi	r7,r7,-31900
  805150:	31a0f904 	addi	r6,r6,-31772
  805154:	29611004 	addi	r5,r5,-31680
  805158:	02400074 	movhi	r9,1
  80515c:	10001915 	stw	zero,100(r2)
  805160:	10000015 	stw	zero,0(r2)
  805164:	10000115 	stw	zero,4(r2)
  805168:	10000215 	stw	zero,8(r2)
  80516c:	10000415 	stw	zero,16(r2)
  805170:	10000515 	stw	zero,20(r2)
  805174:	10000615 	stw	zero,24(r2)
  805178:	10800715 	stw	r2,28(r2)
  80517c:	12000815 	stw	r8,32(r2)
  805180:	11c00915 	stw	r7,36(r2)
  805184:	11800a15 	stw	r6,40(r2)
  805188:	11400b15 	stw	r5,44(r2)
  80518c:	4a400284 	addi	r9,r9,10
  805190:	1a400315 	stw	r9,12(r3)
  805194:	18001915 	stw	zero,100(r3)
  805198:	18000015 	stw	zero,0(r3)
  80519c:	18000115 	stw	zero,4(r3)
  8051a0:	18000215 	stw	zero,8(r3)
  8051a4:	18000415 	stw	zero,16(r3)
  8051a8:	18001705 	stb	zero,92(r3)
  8051ac:	18001745 	stb	zero,93(r3)
  8051b0:	18001785 	stb	zero,94(r3)
  8051b4:	180017c5 	stb	zero,95(r3)
  8051b8:	18001805 	stb	zero,96(r3)
  8051bc:	18001845 	stb	zero,97(r3)
  8051c0:	18001885 	stb	zero,98(r3)
  8051c4:	180018c5 	stb	zero,99(r3)
  8051c8:	20800317 	ldw	r2,12(r4)
  8051cc:	024000b4 	movhi	r9,2
  8051d0:	18000515 	stw	zero,20(r3)
  8051d4:	18000615 	stw	zero,24(r3)
  8051d8:	18c00715 	stw	r3,28(r3)
  8051dc:	1a000815 	stw	r8,32(r3)
  8051e0:	19c00915 	stw	r7,36(r3)
  8051e4:	19800a15 	stw	r6,40(r3)
  8051e8:	19400b15 	stw	r5,44(r3)
  8051ec:	4a400484 	addi	r9,r9,18
  8051f0:	10001915 	stw	zero,100(r2)
  8051f4:	10000015 	stw	zero,0(r2)
  8051f8:	10000115 	stw	zero,4(r2)
  8051fc:	10000215 	stw	zero,8(r2)
  805200:	12400315 	stw	r9,12(r2)
  805204:	10000415 	stw	zero,16(r2)
  805208:	10000515 	stw	zero,20(r2)
  80520c:	10000615 	stw	zero,24(r2)
  805210:	10001705 	stb	zero,92(r2)
  805214:	10001745 	stb	zero,93(r2)
  805218:	10001785 	stb	zero,94(r2)
  80521c:	100017c5 	stb	zero,95(r2)
  805220:	10001805 	stb	zero,96(r2)
  805224:	10001845 	stb	zero,97(r2)
  805228:	10001885 	stb	zero,98(r2)
  80522c:	100018c5 	stb	zero,99(r2)
  805230:	10800715 	stw	r2,28(r2)
  805234:	12000815 	stw	r8,32(r2)
  805238:	11c00915 	stw	r7,36(r2)
  80523c:	11800a15 	stw	r6,40(r2)
  805240:	11400b15 	stw	r5,44(r2)
  805244:	00800044 	movi	r2,1
  805248:	20800e15 	stw	r2,56(r4)
  80524c:	f800283a 	ret

00805250 <__fp_unlock>:
  805250:	0005883a 	mov	r2,zero
  805254:	f800283a 	ret

00805258 <__sfmoreglue>:
  805258:	defffc04 	addi	sp,sp,-16
  80525c:	dc800215 	stw	r18,8(sp)
  805260:	2825883a 	mov	r18,r5
  805264:	dc000015 	stw	r16,0(sp)
  805268:	01401a04 	movi	r5,104
  80526c:	2021883a 	mov	r16,r4
  805270:	913fffc4 	addi	r4,r18,-1
  805274:	dfc00315 	stw	ra,12(sp)
  805278:	dc400115 	stw	r17,4(sp)
  80527c:	0800f8c0 	call	800f8c <__mulsi3>
  805280:	8009883a 	mov	r4,r16
  805284:	11401d04 	addi	r5,r2,116
  805288:	1023883a 	mov	r17,r2
  80528c:	08060440 	call	806044 <_malloc_r>
  805290:	1021883a 	mov	r16,r2
  805294:	10000726 	beq	r2,zero,8052b4 <__sfmoreglue+0x5c>
  805298:	11000304 	addi	r4,r2,12
  80529c:	10000015 	stw	zero,0(r2)
  8052a0:	14800115 	stw	r18,4(r2)
  8052a4:	11000215 	stw	r4,8(r2)
  8052a8:	89801a04 	addi	r6,r17,104
  8052ac:	000b883a 	mov	r5,zero
  8052b0:	0806b240 	call	806b24 <memset>
  8052b4:	8005883a 	mov	r2,r16
  8052b8:	dfc00317 	ldw	ra,12(sp)
  8052bc:	dc800217 	ldw	r18,8(sp)
  8052c0:	dc400117 	ldw	r17,4(sp)
  8052c4:	dc000017 	ldw	r16,0(sp)
  8052c8:	dec00404 	addi	sp,sp,16
  8052cc:	f800283a 	ret

008052d0 <__sfp>:
  8052d0:	defffd04 	addi	sp,sp,-12
  8052d4:	00802074 	movhi	r2,129
  8052d8:	dc000015 	stw	r16,0(sp)
  8052dc:	140a2017 	ldw	r16,10368(r2)
  8052e0:	dc400115 	stw	r17,4(sp)
  8052e4:	dfc00215 	stw	ra,8(sp)
  8052e8:	80800e17 	ldw	r2,56(r16)
  8052ec:	2023883a 	mov	r17,r4
  8052f0:	10002b26 	beq	r2,zero,8053a0 <__sfp+0xd0>
  8052f4:	8400b804 	addi	r16,r16,736
  8052f8:	80c00117 	ldw	r3,4(r16)
  8052fc:	80800217 	ldw	r2,8(r16)
  805300:	18ffffc4 	addi	r3,r3,-1
  805304:	1800030e 	bge	r3,zero,805314 <__sfp+0x44>
  805308:	00002106 	br	805390 <__sfp+0xc0>
  80530c:	10801a04 	addi	r2,r2,104
  805310:	30001f26 	beq	r6,zero,805390 <__sfp+0xc0>
  805314:	1140030f 	ldh	r5,12(r2)
  805318:	18ffffc4 	addi	r3,r3,-1
  80531c:	19bfffd8 	cmpnei	r6,r3,-1
  805320:	283ffa1e 	bne	r5,zero,80530c <__sfp+0x3c>
  805324:	00fffff4 	movhi	r3,65535
  805328:	18c00044 	addi	r3,r3,1
  80532c:	10001915 	stw	zero,100(r2)
  805330:	10000015 	stw	zero,0(r2)
  805334:	10000115 	stw	zero,4(r2)
  805338:	10000215 	stw	zero,8(r2)
  80533c:	10c00315 	stw	r3,12(r2)
  805340:	10000415 	stw	zero,16(r2)
  805344:	10000515 	stw	zero,20(r2)
  805348:	10000615 	stw	zero,24(r2)
  80534c:	10001705 	stb	zero,92(r2)
  805350:	10001745 	stb	zero,93(r2)
  805354:	10001785 	stb	zero,94(r2)
  805358:	100017c5 	stb	zero,95(r2)
  80535c:	10001805 	stb	zero,96(r2)
  805360:	10001845 	stb	zero,97(r2)
  805364:	10001885 	stb	zero,98(r2)
  805368:	100018c5 	stb	zero,99(r2)
  80536c:	10000c15 	stw	zero,48(r2)
  805370:	10000d15 	stw	zero,52(r2)
  805374:	10001115 	stw	zero,68(r2)
  805378:	10001215 	stw	zero,72(r2)
  80537c:	dfc00217 	ldw	ra,8(sp)
  805380:	dc400117 	ldw	r17,4(sp)
  805384:	dc000017 	ldw	r16,0(sp)
  805388:	dec00304 	addi	sp,sp,12
  80538c:	f800283a 	ret
  805390:	80800017 	ldw	r2,0(r16)
  805394:	10000526 	beq	r2,zero,8053ac <__sfp+0xdc>
  805398:	1021883a 	mov	r16,r2
  80539c:	003fd606 	br	8052f8 <__sfp+0x28>
  8053a0:	8009883a 	mov	r4,r16
  8053a4:	08050e80 	call	8050e8 <__sinit.part.0>
  8053a8:	003fd206 	br	8052f4 <__sfp+0x24>
  8053ac:	01400104 	movi	r5,4
  8053b0:	8809883a 	mov	r4,r17
  8053b4:	08052580 	call	805258 <__sfmoreglue>
  8053b8:	80800015 	stw	r2,0(r16)
  8053bc:	103ff61e 	bne	r2,zero,805398 <__sfp+0xc8>
  8053c0:	00c00304 	movi	r3,12
  8053c4:	88c00015 	stw	r3,0(r17)
  8053c8:	003fec06 	br	80537c <__sfp+0xac>

008053cc <_cleanup>:
  8053cc:	00802074 	movhi	r2,129
  8053d0:	110a2017 	ldw	r4,10368(r2)
  8053d4:	01402074 	movhi	r5,129
  8053d8:	2966cf04 	addi	r5,r5,-25796
  8053dc:	0805da41 	jmpi	805da4 <_fwalk_reent>

008053e0 <__sinit>:
  8053e0:	20800e17 	ldw	r2,56(r4)
  8053e4:	10000126 	beq	r2,zero,8053ec <__sinit+0xc>
  8053e8:	f800283a 	ret
  8053ec:	08050e81 	jmpi	8050e8 <__sinit.part.0>

008053f0 <__sfp_lock_acquire>:
  8053f0:	f800283a 	ret

008053f4 <__sfp_lock_release>:
  8053f4:	f800283a 	ret

008053f8 <__sinit_lock_acquire>:
  8053f8:	f800283a 	ret

008053fc <__sinit_lock_release>:
  8053fc:	f800283a 	ret

00805400 <__fp_lock_all>:
  805400:	00802074 	movhi	r2,129
  805404:	110a2117 	ldw	r4,10372(r2)
  805408:	01402034 	movhi	r5,128
  80540c:	29543504 	addi	r5,r5,20692
  805410:	0805d0c1 	jmpi	805d0c <_fwalk>

00805414 <__fp_unlock_all>:
  805414:	00802074 	movhi	r2,129
  805418:	110a2117 	ldw	r4,10372(r2)
  80541c:	01402034 	movhi	r5,128
  805420:	29549404 	addi	r5,r5,21072
  805424:	0805d0c1 	jmpi	805d0c <_fwalk>

00805428 <_malloc_trim_r>:
  805428:	defffb04 	addi	sp,sp,-20
  80542c:	dcc00315 	stw	r19,12(sp)
  805430:	04c02074 	movhi	r19,129
  805434:	dc800215 	stw	r18,8(sp)
  805438:	dc400115 	stw	r17,4(sp)
  80543c:	dc000015 	stw	r16,0(sp)
  805440:	dfc00415 	stw	ra,16(sp)
  805444:	2821883a 	mov	r16,r5
  805448:	9cc44104 	addi	r19,r19,4356
  80544c:	2025883a 	mov	r18,r4
  805450:	080e4880 	call	80e488 <__malloc_lock>
  805454:	98800217 	ldw	r2,8(r19)
  805458:	14400117 	ldw	r17,4(r2)
  80545c:	00bfff04 	movi	r2,-4
  805460:	88a2703a 	and	r17,r17,r2
  805464:	8c21c83a 	sub	r16,r17,r16
  805468:	8403fbc4 	addi	r16,r16,4079
  80546c:	8020d33a 	srli	r16,r16,12
  805470:	843fffc4 	addi	r16,r16,-1
  805474:	8020933a 	slli	r16,r16,12
  805478:	80840008 	cmpgei	r2,r16,4096
  80547c:	10000626 	beq	r2,zero,805498 <_malloc_trim_r+0x70>
  805480:	000b883a 	mov	r5,zero
  805484:	9009883a 	mov	r4,r18
  805488:	08082b00 	call	8082b0 <_sbrk_r>
  80548c:	98c00217 	ldw	r3,8(r19)
  805490:	1c47883a 	add	r3,r3,r17
  805494:	10c00a26 	beq	r2,r3,8054c0 <_malloc_trim_r+0x98>
  805498:	9009883a 	mov	r4,r18
  80549c:	080e4ac0 	call	80e4ac <__malloc_unlock>
  8054a0:	0005883a 	mov	r2,zero
  8054a4:	dfc00417 	ldw	ra,16(sp)
  8054a8:	dcc00317 	ldw	r19,12(sp)
  8054ac:	dc800217 	ldw	r18,8(sp)
  8054b0:	dc400117 	ldw	r17,4(sp)
  8054b4:	dc000017 	ldw	r16,0(sp)
  8054b8:	dec00504 	addi	sp,sp,20
  8054bc:	f800283a 	ret
  8054c0:	040bc83a 	sub	r5,zero,r16
  8054c4:	9009883a 	mov	r4,r18
  8054c8:	08082b00 	call	8082b0 <_sbrk_r>
  8054cc:	10bfffd8 	cmpnei	r2,r2,-1
  8054d0:	10000d26 	beq	r2,zero,805508 <_malloc_trim_r+0xe0>
  8054d4:	00802074 	movhi	r2,129
  8054d8:	10913017 	ldw	r2,17600(r2)
  8054dc:	98c00217 	ldw	r3,8(r19)
  8054e0:	8c23c83a 	sub	r17,r17,r16
  8054e4:	8c400054 	ori	r17,r17,1
  8054e8:	1421c83a 	sub	r16,r2,r16
  8054ec:	1c400115 	stw	r17,4(r3)
  8054f0:	00802074 	movhi	r2,129
  8054f4:	9009883a 	mov	r4,r18
  8054f8:	14113015 	stw	r16,17600(r2)
  8054fc:	080e4ac0 	call	80e4ac <__malloc_unlock>
  805500:	00800044 	movi	r2,1
  805504:	003fe706 	br	8054a4 <_malloc_trim_r+0x7c>
  805508:	000b883a 	mov	r5,zero
  80550c:	9009883a 	mov	r4,r18
  805510:	08082b00 	call	8082b0 <_sbrk_r>
  805514:	99000217 	ldw	r4,8(r19)
  805518:	1107c83a 	sub	r3,r2,r4
  80551c:	19400410 	cmplti	r5,r3,16
  805520:	283fdd1e 	bne	r5,zero,805498 <_malloc_trim_r+0x70>
  805524:	01402074 	movhi	r5,129
  805528:	294a2217 	ldw	r5,10376(r5)
  80552c:	18c00054 	ori	r3,r3,1
  805530:	20c00115 	stw	r3,4(r4)
  805534:	1145c83a 	sub	r2,r2,r5
  805538:	01402074 	movhi	r5,129
  80553c:	28913015 	stw	r2,17600(r5)
  805540:	003fd506 	br	805498 <_malloc_trim_r+0x70>

00805544 <_free_r>:
  805544:	28004f26 	beq	r5,zero,805684 <_free_r+0x140>
  805548:	defffd04 	addi	sp,sp,-12
  80554c:	dc400115 	stw	r17,4(sp)
  805550:	dc000015 	stw	r16,0(sp)
  805554:	2023883a 	mov	r17,r4
  805558:	2821883a 	mov	r16,r5
  80555c:	dfc00215 	stw	ra,8(sp)
  805560:	080e4880 	call	80e488 <__malloc_lock>
  805564:	81ffff17 	ldw	r7,-4(r16)
  805568:	00bfff84 	movi	r2,-2
  80556c:	80fffe04 	addi	r3,r16,-8
  805570:	3884703a 	and	r2,r7,r2
  805574:	01002074 	movhi	r4,129
  805578:	188d883a 	add	r6,r3,r2
  80557c:	21044104 	addi	r4,r4,4356
  805580:	31400117 	ldw	r5,4(r6)
  805584:	22000217 	ldw	r8,8(r4)
  805588:	027fff04 	movi	r9,-4
  80558c:	2a4a703a 	and	r5,r5,r9
  805590:	41806426 	beq	r8,r6,805724 <_free_r+0x1e0>
  805594:	31400115 	stw	r5,4(r6)
  805598:	39c0004c 	andi	r7,r7,1
  80559c:	3151883a 	add	r8,r6,r5
  8055a0:	3800281e 	bne	r7,zero,805644 <_free_r+0x100>
  8055a4:	82bffe17 	ldw	r10,-8(r16)
  8055a8:	42000117 	ldw	r8,4(r8)
  8055ac:	01c02074 	movhi	r7,129
  8055b0:	1a87c83a 	sub	r3,r3,r10
  8055b4:	1a400217 	ldw	r9,8(r3)
  8055b8:	39c44304 	addi	r7,r7,4364
  8055bc:	1285883a 	add	r2,r2,r10
  8055c0:	4200004c 	andi	r8,r8,1
  8055c4:	49c04c26 	beq	r9,r7,8056f8 <_free_r+0x1b4>
  8055c8:	1a800317 	ldw	r10,12(r3)
  8055cc:	4a800315 	stw	r10,12(r9)
  8055d0:	52400215 	stw	r9,8(r10)
  8055d4:	40007126 	beq	r8,zero,80579c <_free_r+0x258>
  8055d8:	11400054 	ori	r5,r2,1
  8055dc:	19400115 	stw	r5,4(r3)
  8055e0:	30800015 	stw	r2,0(r6)
  8055e4:	11408028 	cmpgeui	r5,r2,512
  8055e8:	28002c1e 	bne	r5,zero,80569c <_free_r+0x158>
  8055ec:	100ad0fa 	srli	r5,r2,3
  8055f0:	100cd17a 	srli	r6,r2,5
  8055f4:	00800044 	movi	r2,1
  8055f8:	29400044 	addi	r5,r5,1
  8055fc:	280a90fa 	slli	r5,r5,3
  805600:	21c00117 	ldw	r7,4(r4)
  805604:	1184983a 	sll	r2,r2,r6
  805608:	214b883a 	add	r5,r4,r5
  80560c:	29800017 	ldw	r6,0(r5)
  805610:	11c4b03a 	or	r2,r2,r7
  805614:	29fffe04 	addi	r7,r5,-8
  805618:	19c00315 	stw	r7,12(r3)
  80561c:	19800215 	stw	r6,8(r3)
  805620:	20800115 	stw	r2,4(r4)
  805624:	28c00015 	stw	r3,0(r5)
  805628:	30c00315 	stw	r3,12(r6)
  80562c:	8809883a 	mov	r4,r17
  805630:	dfc00217 	ldw	ra,8(sp)
  805634:	dc400117 	ldw	r17,4(sp)
  805638:	dc000017 	ldw	r16,0(sp)
  80563c:	dec00304 	addi	sp,sp,12
  805640:	080e4ac1 	jmpi	80e4ac <__malloc_unlock>
  805644:	41c00117 	ldw	r7,4(r8)
  805648:	39c0004c 	andi	r7,r7,1
  80564c:	38000e1e 	bne	r7,zero,805688 <_free_r+0x144>
  805650:	01c02074 	movhi	r7,129
  805654:	1145883a 	add	r2,r2,r5
  805658:	39c44304 	addi	r7,r7,4364
  80565c:	31400217 	ldw	r5,8(r6)
  805660:	12400054 	ori	r9,r2,1
  805664:	1891883a 	add	r8,r3,r2
  805668:	29c05226 	beq	r5,r7,8057b4 <_free_r+0x270>
  80566c:	31800317 	ldw	r6,12(r6)
  805670:	29800315 	stw	r6,12(r5)
  805674:	31400215 	stw	r5,8(r6)
  805678:	1a400115 	stw	r9,4(r3)
  80567c:	40800015 	stw	r2,0(r8)
  805680:	003fd806 	br	8055e4 <_free_r+0xa0>
  805684:	f800283a 	ret
  805688:	11400054 	ori	r5,r2,1
  80568c:	817fff15 	stw	r5,-4(r16)
  805690:	30800015 	stw	r2,0(r6)
  805694:	11408028 	cmpgeui	r5,r2,512
  805698:	283fd426 	beq	r5,zero,8055ec <_free_r+0xa8>
  80569c:	100ad27a 	srli	r5,r2,9
  8056a0:	29800168 	cmpgeui	r6,r5,5
  8056a4:	3000341e 	bne	r6,zero,805778 <_free_r+0x234>
  8056a8:	100ad1ba 	srli	r5,r2,6
  8056ac:	29800e44 	addi	r6,r5,57
  8056b0:	300c90fa 	slli	r6,r6,3
  8056b4:	29c00e04 	addi	r7,r5,56
  8056b8:	218d883a 	add	r6,r4,r6
  8056bc:	31400017 	ldw	r5,0(r6)
  8056c0:	31bffe04 	addi	r6,r6,-8
  8056c4:	31404226 	beq	r6,r5,8057d0 <_free_r+0x28c>
  8056c8:	01ffff04 	movi	r7,-4
  8056cc:	29000117 	ldw	r4,4(r5)
  8056d0:	21c8703a 	and	r4,r4,r7
  8056d4:	1100022e 	bgeu	r2,r4,8056e0 <_free_r+0x19c>
  8056d8:	29400217 	ldw	r5,8(r5)
  8056dc:	317ffb1e 	bne	r6,r5,8056cc <_free_r+0x188>
  8056e0:	29800317 	ldw	r6,12(r5)
  8056e4:	19800315 	stw	r6,12(r3)
  8056e8:	19400215 	stw	r5,8(r3)
  8056ec:	30c00215 	stw	r3,8(r6)
  8056f0:	28c00315 	stw	r3,12(r5)
  8056f4:	003fcd06 	br	80562c <_free_r+0xe8>
  8056f8:	40004d1e 	bne	r8,zero,805830 <_free_r+0x2ec>
  8056fc:	31000317 	ldw	r4,12(r6)
  805700:	31800217 	ldw	r6,8(r6)
  805704:	2885883a 	add	r2,r5,r2
  805708:	11400054 	ori	r5,r2,1
  80570c:	31000315 	stw	r4,12(r6)
  805710:	21800215 	stw	r6,8(r4)
  805714:	19400115 	stw	r5,4(r3)
  805718:	1887883a 	add	r3,r3,r2
  80571c:	18800015 	stw	r2,0(r3)
  805720:	003fc206 	br	80562c <_free_r+0xe8>
  805724:	39c0004c 	andi	r7,r7,1
  805728:	1145883a 	add	r2,r2,r5
  80572c:	3800071e 	bne	r7,zero,80574c <_free_r+0x208>
  805730:	81fffe17 	ldw	r7,-8(r16)
  805734:	19c7c83a 	sub	r3,r3,r7
  805738:	19400317 	ldw	r5,12(r3)
  80573c:	19800217 	ldw	r6,8(r3)
  805740:	11c5883a 	add	r2,r2,r7
  805744:	31400315 	stw	r5,12(r6)
  805748:	29800215 	stw	r6,8(r5)
  80574c:	01402074 	movhi	r5,129
  805750:	11800054 	ori	r6,r2,1
  805754:	294a2317 	ldw	r5,10380(r5)
  805758:	19800115 	stw	r6,4(r3)
  80575c:	20c00215 	stw	r3,8(r4)
  805760:	117fb236 	bltu	r2,r5,80562c <_free_r+0xe8>
  805764:	00802074 	movhi	r2,129
  805768:	11512617 	ldw	r5,17560(r2)
  80576c:	8809883a 	mov	r4,r17
  805770:	08054280 	call	805428 <_malloc_trim_r>
  805774:	003fad06 	br	80562c <_free_r+0xe8>
  805778:	29800568 	cmpgeui	r6,r5,21
  80577c:	30000926 	beq	r6,zero,8057a4 <_free_r+0x260>
  805780:	29801568 	cmpgeui	r6,r5,85
  805784:	3000191e 	bne	r6,zero,8057ec <_free_r+0x2a8>
  805788:	100ad33a 	srli	r5,r2,12
  80578c:	29801bc4 	addi	r6,r5,111
  805790:	300c90fa 	slli	r6,r6,3
  805794:	29c01b84 	addi	r7,r5,110
  805798:	003fc706 	br	8056b8 <_free_r+0x174>
  80579c:	1145883a 	add	r2,r2,r5
  8057a0:	003fae06 	br	80565c <_free_r+0x118>
  8057a4:	29801704 	addi	r6,r5,92
  8057a8:	300c90fa 	slli	r6,r6,3
  8057ac:	29c016c4 	addi	r7,r5,91
  8057b0:	003fc106 	br	8056b8 <_free_r+0x174>
  8057b4:	20c00515 	stw	r3,20(r4)
  8057b8:	20c00415 	stw	r3,16(r4)
  8057bc:	19c00315 	stw	r7,12(r3)
  8057c0:	19c00215 	stw	r7,8(r3)
  8057c4:	1a400115 	stw	r9,4(r3)
  8057c8:	40800015 	stw	r2,0(r8)
  8057cc:	003f9706 	br	80562c <_free_r+0xe8>
  8057d0:	380fd0ba 	srai	r7,r7,2
  8057d4:	00800044 	movi	r2,1
  8057d8:	22000117 	ldw	r8,4(r4)
  8057dc:	11ce983a 	sll	r7,r2,r7
  8057e0:	3a0eb03a 	or	r7,r7,r8
  8057e4:	21c00115 	stw	r7,4(r4)
  8057e8:	003fbe06 	br	8056e4 <_free_r+0x1a0>
  8057ec:	29805568 	cmpgeui	r6,r5,341
  8057f0:	3000051e 	bne	r6,zero,805808 <_free_r+0x2c4>
  8057f4:	100ad3fa 	srli	r5,r2,15
  8057f8:	29801e04 	addi	r6,r5,120
  8057fc:	300c90fa 	slli	r6,r6,3
  805800:	29c01dc4 	addi	r7,r5,119
  805804:	003fac06 	br	8056b8 <_free_r+0x174>
  805808:	29415568 	cmpgeui	r5,r5,1365
  80580c:	2800051e 	bne	r5,zero,805824 <_free_r+0x2e0>
  805810:	100ad4ba 	srli	r5,r2,18
  805814:	29801f44 	addi	r6,r5,125
  805818:	300c90fa 	slli	r6,r6,3
  80581c:	29c01f04 	addi	r7,r5,124
  805820:	003fa506 	br	8056b8 <_free_r+0x174>
  805824:	0180fe04 	movi	r6,1016
  805828:	01c01f84 	movi	r7,126
  80582c:	003fa206 	br	8056b8 <_free_r+0x174>
  805830:	11000054 	ori	r4,r2,1
  805834:	19000115 	stw	r4,4(r3)
  805838:	30800015 	stw	r2,0(r6)
  80583c:	003f7b06 	br	80562c <_free_r+0xe8>

00805840 <__sfvwrite_r>:
  805840:	30800217 	ldw	r2,8(r6)
  805844:	1000c826 	beq	r2,zero,805b68 <__sfvwrite_r+0x328>
  805848:	29c0030b 	ldhu	r7,12(r5)
  80584c:	defff404 	addi	sp,sp,-48
  805850:	dd800815 	stw	r22,32(sp)
  805854:	dd400715 	stw	r21,28(sp)
  805858:	dc000215 	stw	r16,8(sp)
  80585c:	dfc00b15 	stw	ra,44(sp)
  805860:	df000a15 	stw	fp,40(sp)
  805864:	ddc00915 	stw	r23,36(sp)
  805868:	dd000615 	stw	r20,24(sp)
  80586c:	dcc00515 	stw	r19,20(sp)
  805870:	dc800415 	stw	r18,16(sp)
  805874:	dc400315 	stw	r17,12(sp)
  805878:	3880020c 	andi	r2,r7,8
  80587c:	302d883a 	mov	r22,r6
  805880:	202b883a 	mov	r21,r4
  805884:	2821883a 	mov	r16,r5
  805888:	10002226 	beq	r2,zero,805914 <__sfvwrite_r+0xd4>
  80588c:	28800417 	ldw	r2,16(r5)
  805890:	10002026 	beq	r2,zero,805914 <__sfvwrite_r+0xd4>
  805894:	3880008c 	andi	r2,r7,2
  805898:	b4400017 	ldw	r17,0(r22)
  80589c:	10002526 	beq	r2,zero,805934 <__sfvwrite_r+0xf4>
  8058a0:	80800917 	ldw	r2,36(r16)
  8058a4:	81400717 	ldw	r5,28(r16)
  8058a8:	05200034 	movhi	r20,32768
  8058ac:	0027883a 	mov	r19,zero
  8058b0:	0025883a 	mov	r18,zero
  8058b4:	a53f0004 	addi	r20,r20,-1024
  8058b8:	980d883a 	mov	r6,r19
  8058bc:	a809883a 	mov	r4,r21
  8058c0:	90001026 	beq	r18,zero,805904 <__sfvwrite_r+0xc4>
  8058c4:	900f883a 	mov	r7,r18
  8058c8:	a480012e 	bgeu	r20,r18,8058d0 <__sfvwrite_r+0x90>
  8058cc:	a00f883a 	mov	r7,r20
  8058d0:	103ee83a 	callr	r2
  8058d4:	00809f0e 	bge	zero,r2,805b54 <__sfvwrite_r+0x314>
  8058d8:	b1000217 	ldw	r4,8(r22)
  8058dc:	98a7883a 	add	r19,r19,r2
  8058e0:	90a5c83a 	sub	r18,r18,r2
  8058e4:	2085c83a 	sub	r2,r4,r2
  8058e8:	b0800215 	stw	r2,8(r22)
  8058ec:	10006326 	beq	r2,zero,805a7c <__sfvwrite_r+0x23c>
  8058f0:	80800917 	ldw	r2,36(r16)
  8058f4:	81400717 	ldw	r5,28(r16)
  8058f8:	980d883a 	mov	r6,r19
  8058fc:	a809883a 	mov	r4,r21
  805900:	903ff01e 	bne	r18,zero,8058c4 <__sfvwrite_r+0x84>
  805904:	8cc00017 	ldw	r19,0(r17)
  805908:	8c800117 	ldw	r18,4(r17)
  80590c:	8c400204 	addi	r17,r17,8
  805910:	003fe906 	br	8058b8 <__sfvwrite_r+0x78>
  805914:	800b883a 	mov	r5,r16
  805918:	a809883a 	mov	r4,r21
  80591c:	08033580 	call	803358 <__swsetup_r>
  805920:	1000f81e 	bne	r2,zero,805d04 <__sfvwrite_r+0x4c4>
  805924:	81c0030b 	ldhu	r7,12(r16)
  805928:	b4400017 	ldw	r17,0(r22)
  80592c:	3880008c 	andi	r2,r7,2
  805930:	103fdb1e 	bne	r2,zero,8058a0 <__sfvwrite_r+0x60>
  805934:	3880004c 	andi	r2,r7,1
  805938:	84800217 	ldw	r18,8(r16)
  80593c:	82000017 	ldw	r8,0(r16)
  805940:	10008b1e 	bne	r2,zero,805b70 <__sfvwrite_r+0x330>
  805944:	00a00034 	movhi	r2,32768
  805948:	10bfff84 	addi	r2,r2,-2
  80594c:	00e00034 	movhi	r3,32768
  805950:	d8800015 	stw	r2,0(sp)
  805954:	18bfffc4 	addi	r2,r3,-1
  805958:	0039883a 	mov	fp,zero
  80595c:	0027883a 	mov	r19,zero
  805960:	d8800115 	stw	r2,4(sp)
  805964:	98004126 	beq	r19,zero,805a6c <__sfvwrite_r+0x22c>
  805968:	3880800c 	andi	r2,r7,512
  80596c:	10009326 	beq	r2,zero,805bbc <__sfvwrite_r+0x37c>
  805970:	902f883a 	mov	r23,r18
  805974:	9c80ba36 	bltu	r19,r18,805c60 <__sfvwrite_r+0x420>
  805978:	3881200c 	andi	r2,r7,1152
  80597c:	10002626 	beq	r2,zero,805a18 <__sfvwrite_r+0x1d8>
  805980:	81800517 	ldw	r6,20(r16)
  805984:	81400417 	ldw	r5,16(r16)
  805988:	98800044 	addi	r2,r19,1
  80598c:	3189883a 	add	r4,r6,r6
  805990:	2189883a 	add	r4,r4,r6
  805994:	2028d7fa 	srli	r20,r4,31
  805998:	4165c83a 	sub	r18,r8,r5
  80599c:	1485883a 	add	r2,r2,r18
  8059a0:	a109883a 	add	r4,r20,r4
  8059a4:	2029d07a 	srai	r20,r4,1
  8059a8:	a00d883a 	mov	r6,r20
  8059ac:	a080022e 	bgeu	r20,r2,8059b8 <__sfvwrite_r+0x178>
  8059b0:	1029883a 	mov	r20,r2
  8059b4:	100d883a 	mov	r6,r2
  8059b8:	39c1000c 	andi	r7,r7,1024
  8059bc:	3800c126 	beq	r7,zero,805cc4 <__sfvwrite_r+0x484>
  8059c0:	a809883a 	mov	r4,r21
  8059c4:	300b883a 	mov	r5,r6
  8059c8:	08060440 	call	806044 <_malloc_r>
  8059cc:	1009883a 	mov	r4,r2
  8059d0:	1000c826 	beq	r2,zero,805cf4 <__sfvwrite_r+0x4b4>
  8059d4:	81400417 	ldw	r5,16(r16)
  8059d8:	900d883a 	mov	r6,r18
  8059dc:	08068f80 	call	8068f8 <memcpy>
  8059e0:	1009883a 	mov	r4,r2
  8059e4:	8080030b 	ldhu	r2,12(r16)
  8059e8:	00fedfc4 	movi	r3,-1153
  8059ec:	10c4703a 	and	r2,r2,r3
  8059f0:	10802014 	ori	r2,r2,128
  8059f4:	8080030d 	sth	r2,12(r16)
  8059f8:	2491883a 	add	r8,r4,r18
  8059fc:	a485c83a 	sub	r2,r20,r18
  805a00:	81000415 	stw	r4,16(r16)
  805a04:	82000015 	stw	r8,0(r16)
  805a08:	85000515 	stw	r20,20(r16)
  805a0c:	9825883a 	mov	r18,r19
  805a10:	80800215 	stw	r2,8(r16)
  805a14:	982f883a 	mov	r23,r19
  805a18:	4009883a 	mov	r4,r8
  805a1c:	b80d883a 	mov	r6,r23
  805a20:	e00b883a 	mov	r5,fp
  805a24:	08069f80 	call	8069f8 <memmove>
  805a28:	81000217 	ldw	r4,8(r16)
  805a2c:	80800017 	ldw	r2,0(r16)
  805a30:	9829883a 	mov	r20,r19
  805a34:	24a5c83a 	sub	r18,r4,r18
  805a38:	15c5883a 	add	r2,r2,r23
  805a3c:	84800215 	stw	r18,8(r16)
  805a40:	80800015 	stw	r2,0(r16)
  805a44:	0027883a 	mov	r19,zero
  805a48:	b0800217 	ldw	r2,8(r22)
  805a4c:	e539883a 	add	fp,fp,r20
  805a50:	1529c83a 	sub	r20,r2,r20
  805a54:	b5000215 	stw	r20,8(r22)
  805a58:	a0000826 	beq	r20,zero,805a7c <__sfvwrite_r+0x23c>
  805a5c:	81c0030b 	ldhu	r7,12(r16)
  805a60:	84800217 	ldw	r18,8(r16)
  805a64:	82000017 	ldw	r8,0(r16)
  805a68:	983fbf1e 	bne	r19,zero,805968 <__sfvwrite_r+0x128>
  805a6c:	8f000017 	ldw	fp,0(r17)
  805a70:	8cc00117 	ldw	r19,4(r17)
  805a74:	8c400204 	addi	r17,r17,8
  805a78:	003fba06 	br	805964 <__sfvwrite_r+0x124>
  805a7c:	0005883a 	mov	r2,zero
  805a80:	dfc00b17 	ldw	ra,44(sp)
  805a84:	df000a17 	ldw	fp,40(sp)
  805a88:	ddc00917 	ldw	r23,36(sp)
  805a8c:	dd800817 	ldw	r22,32(sp)
  805a90:	dd400717 	ldw	r21,28(sp)
  805a94:	dd000617 	ldw	r20,24(sp)
  805a98:	dcc00517 	ldw	r19,20(sp)
  805a9c:	dc800417 	ldw	r18,16(sp)
  805aa0:	dc400317 	ldw	r17,12(sp)
  805aa4:	dc000217 	ldw	r16,8(sp)
  805aa8:	dec00c04 	addi	sp,sp,48
  805aac:	f800283a 	ret
  805ab0:	e1c07316 	blt	fp,r7,805c80 <__sfvwrite_r+0x440>
  805ab4:	80800917 	ldw	r2,36(r16)
  805ab8:	81400717 	ldw	r5,28(r16)
  805abc:	b80d883a 	mov	r6,r23
  805ac0:	a809883a 	mov	r4,r21
  805ac4:	103ee83a 	callr	r2
  805ac8:	1025883a 	mov	r18,r2
  805acc:	0080210e 	bge	zero,r2,805b54 <__sfvwrite_r+0x314>
  805ad0:	a4a9c83a 	sub	r20,r20,r18
  805ad4:	a0006526 	beq	r20,zero,805c6c <__sfvwrite_r+0x42c>
  805ad8:	00800044 	movi	r2,1
  805adc:	b1800217 	ldw	r6,8(r22)
  805ae0:	bcaf883a 	add	r23,r23,r18
  805ae4:	9ca7c83a 	sub	r19,r19,r18
  805ae8:	34a5c83a 	sub	r18,r6,r18
  805aec:	b4800215 	stw	r18,8(r22)
  805af0:	903fe226 	beq	r18,zero,805a7c <__sfvwrite_r+0x23c>
  805af4:	84800217 	ldw	r18,8(r16)
  805af8:	82000017 	ldw	r8,0(r16)
  805afc:	98002126 	beq	r19,zero,805b84 <__sfvwrite_r+0x344>
  805b00:	10002426 	beq	r2,zero,805b94 <__sfvwrite_r+0x354>
  805b04:	a005883a 	mov	r2,r20
  805b08:	9839883a 	mov	fp,r19
  805b0c:	14c0012e 	bgeu	r2,r19,805b14 <__sfvwrite_r+0x2d4>
  805b10:	1039883a 	mov	fp,r2
  805b14:	80800417 	ldw	r2,16(r16)
  805b18:	81c00517 	ldw	r7,20(r16)
  805b1c:	123fe42e 	bgeu	r2,r8,805ab0 <__sfvwrite_r+0x270>
  805b20:	3ca5883a 	add	r18,r7,r18
  805b24:	973fe20e 	bge	r18,fp,805ab0 <__sfvwrite_r+0x270>
  805b28:	b80b883a 	mov	r5,r23
  805b2c:	4009883a 	mov	r4,r8
  805b30:	900d883a 	mov	r6,r18
  805b34:	08069f80 	call	8069f8 <memmove>
  805b38:	80800017 	ldw	r2,0(r16)
  805b3c:	800b883a 	mov	r5,r16
  805b40:	a809883a 	mov	r4,r21
  805b44:	1485883a 	add	r2,r2,r18
  805b48:	80800015 	stw	r2,0(r16)
  805b4c:	080504c0 	call	80504c <_fflush_r>
  805b50:	103fdf26 	beq	r2,zero,805ad0 <__sfvwrite_r+0x290>
  805b54:	8080030b 	ldhu	r2,12(r16)
  805b58:	10801014 	ori	r2,r2,64
  805b5c:	8080030d 	sth	r2,12(r16)
  805b60:	00bfffc4 	movi	r2,-1
  805b64:	003fc606 	br	805a80 <__sfvwrite_r+0x240>
  805b68:	0005883a 	mov	r2,zero
  805b6c:	f800283a 	ret
  805b70:	0027883a 	mov	r19,zero
  805b74:	0029883a 	mov	r20,zero
  805b78:	0005883a 	mov	r2,zero
  805b7c:	002f883a 	mov	r23,zero
  805b80:	983fdf1e 	bne	r19,zero,805b00 <__sfvwrite_r+0x2c0>
  805b84:	8cc00117 	ldw	r19,4(r17)
  805b88:	8dc00017 	ldw	r23,0(r17)
  805b8c:	8c400204 	addi	r17,r17,8
  805b90:	983ffc26 	beq	r19,zero,805b84 <__sfvwrite_r+0x344>
  805b94:	980d883a 	mov	r6,r19
  805b98:	01400284 	movi	r5,10
  805b9c:	b809883a 	mov	r4,r23
  805ba0:	da000015 	stw	r8,0(sp)
  805ba4:	08068240 	call	806824 <memchr>
  805ba8:	da000017 	ldw	r8,0(sp)
  805bac:	10004226 	beq	r2,zero,805cb8 <__sfvwrite_r+0x478>
  805bb0:	10800044 	addi	r2,r2,1
  805bb4:	15e9c83a 	sub	r20,r2,r23
  805bb8:	003fd206 	br	805b04 <__sfvwrite_r+0x2c4>
  805bbc:	80800417 	ldw	r2,16(r16)
  805bc0:	12001436 	bltu	r2,r8,805c14 <__sfvwrite_r+0x3d4>
  805bc4:	85000517 	ldw	r20,20(r16)
  805bc8:	9d001236 	bltu	r19,r20,805c14 <__sfvwrite_r+0x3d4>
  805bcc:	d8800017 	ldw	r2,0(sp)
  805bd0:	14c0372e 	bgeu	r2,r19,805cb0 <__sfvwrite_r+0x470>
  805bd4:	d9000117 	ldw	r4,4(sp)
  805bd8:	a00b883a 	mov	r5,r20
  805bdc:	080b3600 	call	80b360 <__divsi3>
  805be0:	a00b883a 	mov	r5,r20
  805be4:	1009883a 	mov	r4,r2
  805be8:	0800f8c0 	call	800f8c <__mulsi3>
  805bec:	82000917 	ldw	r8,36(r16)
  805bf0:	81400717 	ldw	r5,28(r16)
  805bf4:	100f883a 	mov	r7,r2
  805bf8:	e00d883a 	mov	r6,fp
  805bfc:	a809883a 	mov	r4,r21
  805c00:	403ee83a 	callr	r8
  805c04:	1029883a 	mov	r20,r2
  805c08:	00bfd20e 	bge	zero,r2,805b54 <__sfvwrite_r+0x314>
  805c0c:	9d27c83a 	sub	r19,r19,r20
  805c10:	003f8d06 	br	805a48 <__sfvwrite_r+0x208>
  805c14:	9029883a 	mov	r20,r18
  805c18:	9c80012e 	bgeu	r19,r18,805c20 <__sfvwrite_r+0x3e0>
  805c1c:	9829883a 	mov	r20,r19
  805c20:	4009883a 	mov	r4,r8
  805c24:	a00d883a 	mov	r6,r20
  805c28:	e00b883a 	mov	r5,fp
  805c2c:	08069f80 	call	8069f8 <memmove>
  805c30:	80800217 	ldw	r2,8(r16)
  805c34:	81000017 	ldw	r4,0(r16)
  805c38:	1505c83a 	sub	r2,r2,r20
  805c3c:	2509883a 	add	r4,r4,r20
  805c40:	80800215 	stw	r2,8(r16)
  805c44:	81000015 	stw	r4,0(r16)
  805c48:	103ff01e 	bne	r2,zero,805c0c <__sfvwrite_r+0x3cc>
  805c4c:	800b883a 	mov	r5,r16
  805c50:	a809883a 	mov	r4,r21
  805c54:	080504c0 	call	80504c <_fflush_r>
  805c58:	103fec26 	beq	r2,zero,805c0c <__sfvwrite_r+0x3cc>
  805c5c:	003fbd06 	br	805b54 <__sfvwrite_r+0x314>
  805c60:	9825883a 	mov	r18,r19
  805c64:	982f883a 	mov	r23,r19
  805c68:	003f6b06 	br	805a18 <__sfvwrite_r+0x1d8>
  805c6c:	800b883a 	mov	r5,r16
  805c70:	a809883a 	mov	r4,r21
  805c74:	080504c0 	call	80504c <_fflush_r>
  805c78:	103f9826 	beq	r2,zero,805adc <__sfvwrite_r+0x29c>
  805c7c:	003fb506 	br	805b54 <__sfvwrite_r+0x314>
  805c80:	e00d883a 	mov	r6,fp
  805c84:	b80b883a 	mov	r5,r23
  805c88:	4009883a 	mov	r4,r8
  805c8c:	08069f80 	call	8069f8 <memmove>
  805c90:	80800217 	ldw	r2,8(r16)
  805c94:	81800017 	ldw	r6,0(r16)
  805c98:	e025883a 	mov	r18,fp
  805c9c:	1705c83a 	sub	r2,r2,fp
  805ca0:	370d883a 	add	r6,r6,fp
  805ca4:	80800215 	stw	r2,8(r16)
  805ca8:	81800015 	stw	r6,0(r16)
  805cac:	003f8806 	br	805ad0 <__sfvwrite_r+0x290>
  805cb0:	9809883a 	mov	r4,r19
  805cb4:	003fc806 	br	805bd8 <__sfvwrite_r+0x398>
  805cb8:	98800044 	addi	r2,r19,1
  805cbc:	1029883a 	mov	r20,r2
  805cc0:	003f9106 	br	805b08 <__sfvwrite_r+0x2c8>
  805cc4:	a809883a 	mov	r4,r21
  805cc8:	0807d4c0 	call	807d4c <_realloc_r>
  805ccc:	1009883a 	mov	r4,r2
  805cd0:	103f491e 	bne	r2,zero,8059f8 <__sfvwrite_r+0x1b8>
  805cd4:	81400417 	ldw	r5,16(r16)
  805cd8:	a809883a 	mov	r4,r21
  805cdc:	08055440 	call	805544 <_free_r>
  805ce0:	8080030b 	ldhu	r2,12(r16)
  805ce4:	00c00304 	movi	r3,12
  805ce8:	a8c00015 	stw	r3,0(r21)
  805cec:	10bfdfcc 	andi	r2,r2,65407
  805cf0:	003f9906 	br	805b58 <__sfvwrite_r+0x318>
  805cf4:	00c00304 	movi	r3,12
  805cf8:	8080030b 	ldhu	r2,12(r16)
  805cfc:	a8c00015 	stw	r3,0(r21)
  805d00:	003f9506 	br	805b58 <__sfvwrite_r+0x318>
  805d04:	00bfffc4 	movi	r2,-1
  805d08:	003f5d06 	br	805a80 <__sfvwrite_r+0x240>

00805d0c <_fwalk>:
  805d0c:	defffa04 	addi	sp,sp,-24
  805d10:	dd000415 	stw	r20,16(sp)
  805d14:	dcc00315 	stw	r19,12(sp)
  805d18:	dc800215 	stw	r18,8(sp)
  805d1c:	dfc00515 	stw	ra,20(sp)
  805d20:	dc400115 	stw	r17,4(sp)
  805d24:	dc000015 	stw	r16,0(sp)
  805d28:	2827883a 	mov	r19,r5
  805d2c:	2480b804 	addi	r18,r4,736
  805d30:	0029883a 	mov	r20,zero
  805d34:	94400117 	ldw	r17,4(r18)
  805d38:	94000217 	ldw	r16,8(r18)
  805d3c:	8c7fffc4 	addi	r17,r17,-1
  805d40:	88000d16 	blt	r17,zero,805d78 <_fwalk+0x6c>
  805d44:	8080030b 	ldhu	r2,12(r16)
  805d48:	8c7fffc4 	addi	r17,r17,-1
  805d4c:	108000b0 	cmpltui	r2,r2,2
  805d50:	1000061e 	bne	r2,zero,805d6c <_fwalk+0x60>
  805d54:	8080038f 	ldh	r2,14(r16)
  805d58:	8009883a 	mov	r4,r16
  805d5c:	10bfffe0 	cmpeqi	r2,r2,-1
  805d60:	1000021e 	bne	r2,zero,805d6c <_fwalk+0x60>
  805d64:	983ee83a 	callr	r19
  805d68:	a0a8b03a 	or	r20,r20,r2
  805d6c:	88bfffd8 	cmpnei	r2,r17,-1
  805d70:	84001a04 	addi	r16,r16,104
  805d74:	103ff31e 	bne	r2,zero,805d44 <_fwalk+0x38>
  805d78:	94800017 	ldw	r18,0(r18)
  805d7c:	903fed1e 	bne	r18,zero,805d34 <_fwalk+0x28>
  805d80:	a005883a 	mov	r2,r20
  805d84:	dfc00517 	ldw	ra,20(sp)
  805d88:	dd000417 	ldw	r20,16(sp)
  805d8c:	dcc00317 	ldw	r19,12(sp)
  805d90:	dc800217 	ldw	r18,8(sp)
  805d94:	dc400117 	ldw	r17,4(sp)
  805d98:	dc000017 	ldw	r16,0(sp)
  805d9c:	dec00604 	addi	sp,sp,24
  805da0:	f800283a 	ret

00805da4 <_fwalk_reent>:
  805da4:	defff904 	addi	sp,sp,-28
  805da8:	dd400515 	stw	r21,20(sp)
  805dac:	dd000415 	stw	r20,16(sp)
  805db0:	dcc00315 	stw	r19,12(sp)
  805db4:	dc800215 	stw	r18,8(sp)
  805db8:	dfc00615 	stw	ra,24(sp)
  805dbc:	dc400115 	stw	r17,4(sp)
  805dc0:	dc000015 	stw	r16,0(sp)
  805dc4:	202b883a 	mov	r21,r4
  805dc8:	2827883a 	mov	r19,r5
  805dcc:	2480b804 	addi	r18,r4,736
  805dd0:	0029883a 	mov	r20,zero
  805dd4:	94400117 	ldw	r17,4(r18)
  805dd8:	94000217 	ldw	r16,8(r18)
  805ddc:	8c7fffc4 	addi	r17,r17,-1
  805de0:	88000e16 	blt	r17,zero,805e1c <_fwalk_reent+0x78>
  805de4:	8080030b 	ldhu	r2,12(r16)
  805de8:	8c7fffc4 	addi	r17,r17,-1
  805dec:	108000b0 	cmpltui	r2,r2,2
  805df0:	1000071e 	bne	r2,zero,805e10 <_fwalk_reent+0x6c>
  805df4:	8080038f 	ldh	r2,14(r16)
  805df8:	800b883a 	mov	r5,r16
  805dfc:	a809883a 	mov	r4,r21
  805e00:	10bfffe0 	cmpeqi	r2,r2,-1
  805e04:	1000021e 	bne	r2,zero,805e10 <_fwalk_reent+0x6c>
  805e08:	983ee83a 	callr	r19
  805e0c:	a0a8b03a 	or	r20,r20,r2
  805e10:	88bfffd8 	cmpnei	r2,r17,-1
  805e14:	84001a04 	addi	r16,r16,104
  805e18:	103ff21e 	bne	r2,zero,805de4 <_fwalk_reent+0x40>
  805e1c:	94800017 	ldw	r18,0(r18)
  805e20:	903fec1e 	bne	r18,zero,805dd4 <_fwalk_reent+0x30>
  805e24:	a005883a 	mov	r2,r20
  805e28:	dfc00617 	ldw	ra,24(sp)
  805e2c:	dd400517 	ldw	r21,20(sp)
  805e30:	dd000417 	ldw	r20,16(sp)
  805e34:	dcc00317 	ldw	r19,12(sp)
  805e38:	dc800217 	ldw	r18,8(sp)
  805e3c:	dc400117 	ldw	r17,4(sp)
  805e40:	dc000017 	ldw	r16,0(sp)
  805e44:	dec00704 	addi	sp,sp,28
  805e48:	f800283a 	ret

00805e4c <__localeconv_l>:
  805e4c:	20803c04 	addi	r2,r4,240
  805e50:	f800283a 	ret

00805e54 <_localeconv_r>:
  805e54:	00802074 	movhi	r2,129
  805e58:	10857f04 	addi	r2,r2,5628
  805e5c:	f800283a 	ret

00805e60 <localeconv>:
  805e60:	00802074 	movhi	r2,129
  805e64:	10857f04 	addi	r2,r2,5628
  805e68:	f800283a 	ret

00805e6c <__swhatbuf_r>:
  805e6c:	deffea04 	addi	sp,sp,-88
  805e70:	dc001215 	stw	r16,72(sp)
  805e74:	2821883a 	mov	r16,r5
  805e78:	2940038f 	ldh	r5,14(r5)
  805e7c:	dc801415 	stw	r18,80(sp)
  805e80:	dc401315 	stw	r17,76(sp)
  805e84:	dfc01515 	stw	ra,84(sp)
  805e88:	3023883a 	mov	r17,r6
  805e8c:	3825883a 	mov	r18,r7
  805e90:	28001016 	blt	r5,zero,805ed4 <__swhatbuf_r+0x68>
  805e94:	d80d883a 	mov	r6,sp
  805e98:	0809e9c0 	call	809e9c <_fstat_r>
  805e9c:	10000d16 	blt	r2,zero,805ed4 <__swhatbuf_r+0x68>
  805ea0:	d8c00117 	ldw	r3,4(sp)
  805ea4:	00820004 	movi	r2,2048
  805ea8:	18fc000c 	andi	r3,r3,61440
  805eac:	18c80020 	cmpeqi	r3,r3,8192
  805eb0:	90c00015 	stw	r3,0(r18)
  805eb4:	00c10004 	movi	r3,1024
  805eb8:	88c00015 	stw	r3,0(r17)
  805ebc:	dfc01517 	ldw	ra,84(sp)
  805ec0:	dc801417 	ldw	r18,80(sp)
  805ec4:	dc401317 	ldw	r17,76(sp)
  805ec8:	dc001217 	ldw	r16,72(sp)
  805ecc:	dec01604 	addi	sp,sp,88
  805ed0:	f800283a 	ret
  805ed4:	8080030b 	ldhu	r2,12(r16)
  805ed8:	90000015 	stw	zero,0(r18)
  805edc:	1080200c 	andi	r2,r2,128
  805ee0:	10000426 	beq	r2,zero,805ef4 <__swhatbuf_r+0x88>
  805ee4:	00801004 	movi	r2,64
  805ee8:	88800015 	stw	r2,0(r17)
  805eec:	0005883a 	mov	r2,zero
  805ef0:	003ff206 	br	805ebc <__swhatbuf_r+0x50>
  805ef4:	00810004 	movi	r2,1024
  805ef8:	88800015 	stw	r2,0(r17)
  805efc:	0005883a 	mov	r2,zero
  805f00:	003fee06 	br	805ebc <__swhatbuf_r+0x50>

00805f04 <__smakebuf_r>:
  805f04:	2880030b 	ldhu	r2,12(r5)
  805f08:	defffa04 	addi	sp,sp,-24
  805f0c:	dc000215 	stw	r16,8(sp)
  805f10:	dfc00515 	stw	ra,20(sp)
  805f14:	dc800415 	stw	r18,16(sp)
  805f18:	dc400315 	stw	r17,12(sp)
  805f1c:	1080008c 	andi	r2,r2,2
  805f20:	2821883a 	mov	r16,r5
  805f24:	10000b26 	beq	r2,zero,805f54 <__smakebuf_r+0x50>
  805f28:	288010c4 	addi	r2,r5,67
  805f2c:	28800015 	stw	r2,0(r5)
  805f30:	28800415 	stw	r2,16(r5)
  805f34:	00800044 	movi	r2,1
  805f38:	28800515 	stw	r2,20(r5)
  805f3c:	dfc00517 	ldw	ra,20(sp)
  805f40:	dc800417 	ldw	r18,16(sp)
  805f44:	dc400317 	ldw	r17,12(sp)
  805f48:	dc000217 	ldw	r16,8(sp)
  805f4c:	dec00604 	addi	sp,sp,24
  805f50:	f800283a 	ret
  805f54:	d9c00104 	addi	r7,sp,4
  805f58:	d80d883a 	mov	r6,sp
  805f5c:	2023883a 	mov	r17,r4
  805f60:	0805e6c0 	call	805e6c <__swhatbuf_r>
  805f64:	d9000117 	ldw	r4,4(sp)
  805f68:	1025883a 	mov	r18,r2
  805f6c:	2000131e 	bne	r4,zero,805fbc <__smakebuf_r+0xb8>
  805f70:	d9400017 	ldw	r5,0(sp)
  805f74:	8809883a 	mov	r4,r17
  805f78:	08060440 	call	806044 <_malloc_r>
  805f7c:	10001c26 	beq	r2,zero,805ff0 <__smakebuf_r+0xec>
  805f80:	01002034 	movhi	r4,128
  805f84:	21143704 	addi	r4,r4,20700
  805f88:	80c0030b 	ldhu	r3,12(r16)
  805f8c:	89000f15 	stw	r4,60(r17)
  805f90:	80800015 	stw	r2,0(r16)
  805f94:	80800415 	stw	r2,16(r16)
  805f98:	d8800017 	ldw	r2,0(sp)
  805f9c:	d9400117 	ldw	r5,4(sp)
  805fa0:	18c02014 	ori	r3,r3,128
  805fa4:	80c0030d 	sth	r3,12(r16)
  805fa8:	80800515 	stw	r2,20(r16)
  805fac:	28001d1e 	bne	r5,zero,806024 <__smakebuf_r+0x120>
  805fb0:	90c6b03a 	or	r3,r18,r3
  805fb4:	80c0030d 	sth	r3,12(r16)
  805fb8:	003fe006 	br	805f3c <__smakebuf_r+0x38>
  805fbc:	8140038f 	ldh	r5,14(r16)
  805fc0:	8809883a 	mov	r4,r17
  805fc4:	0809efc0 	call	809efc <_isatty_r>
  805fc8:	103fe926 	beq	r2,zero,805f70 <__smakebuf_r+0x6c>
  805fcc:	8080030b 	ldhu	r2,12(r16)
  805fd0:	80c010c4 	addi	r3,r16,67
  805fd4:	80c00015 	stw	r3,0(r16)
  805fd8:	10800054 	ori	r2,r2,1
  805fdc:	8080030d 	sth	r2,12(r16)
  805fe0:	00800044 	movi	r2,1
  805fe4:	80c00415 	stw	r3,16(r16)
  805fe8:	80800515 	stw	r2,20(r16)
  805fec:	003fe006 	br	805f70 <__smakebuf_r+0x6c>
  805ff0:	8080030b 	ldhu	r2,12(r16)
  805ff4:	10c0800c 	andi	r3,r2,512
  805ff8:	183fd01e 	bne	r3,zero,805f3c <__smakebuf_r+0x38>
  805ffc:	00ffff04 	movi	r3,-4
  806000:	10c4703a 	and	r2,r2,r3
  806004:	10800094 	ori	r2,r2,2
  806008:	80c010c4 	addi	r3,r16,67
  80600c:	8080030d 	sth	r2,12(r16)
  806010:	00800044 	movi	r2,1
  806014:	80c00015 	stw	r3,0(r16)
  806018:	80c00415 	stw	r3,16(r16)
  80601c:	80800515 	stw	r2,20(r16)
  806020:	003fc606 	br	805f3c <__smakebuf_r+0x38>
  806024:	8140038f 	ldh	r5,14(r16)
  806028:	8809883a 	mov	r4,r17
  80602c:	0809efc0 	call	809efc <_isatty_r>
  806030:	80c0030b 	ldhu	r3,12(r16)
  806034:	103fde26 	beq	r2,zero,805fb0 <__smakebuf_r+0xac>
  806038:	18ffff0c 	andi	r3,r3,65532
  80603c:	18c00054 	ori	r3,r3,1
  806040:	003fdb06 	br	805fb0 <__smakebuf_r+0xac>

00806044 <_malloc_r>:
  806044:	defff604 	addi	sp,sp,-40
  806048:	dc400115 	stw	r17,4(sp)
  80604c:	2c4002c4 	addi	r17,r5,11
  806050:	dc800215 	stw	r18,8(sp)
  806054:	dfc00915 	stw	ra,36(sp)
  806058:	df000815 	stw	fp,32(sp)
  80605c:	ddc00715 	stw	r23,28(sp)
  806060:	dd800615 	stw	r22,24(sp)
  806064:	dd400515 	stw	r21,20(sp)
  806068:	dd000415 	stw	r20,16(sp)
  80606c:	dcc00315 	stw	r19,12(sp)
  806070:	dc000015 	stw	r16,0(sp)
  806074:	888005e8 	cmpgeui	r2,r17,23
  806078:	2025883a 	mov	r18,r4
  80607c:	10001b1e 	bne	r2,zero,8060ec <_malloc_r+0xa8>
  806080:	29400468 	cmpgeui	r5,r5,17
  806084:	2800821e 	bne	r5,zero,806290 <_malloc_r+0x24c>
  806088:	080e4880 	call	80e488 <__malloc_lock>
  80608c:	04400404 	movi	r17,16
  806090:	01c00084 	movi	r7,2
  806094:	00800604 	movi	r2,24
  806098:	04c02074 	movhi	r19,129
  80609c:	9cc44104 	addi	r19,r19,4356
  8060a0:	9885883a 	add	r2,r19,r2
  8060a4:	14000117 	ldw	r16,4(r2)
  8060a8:	10fffe04 	addi	r3,r2,-8
  8060ac:	80c08b26 	beq	r16,r3,8062dc <_malloc_r+0x298>
  8060b0:	80800117 	ldw	r2,4(r16)
  8060b4:	81000317 	ldw	r4,12(r16)
  8060b8:	00ffff04 	movi	r3,-4
  8060bc:	10c4703a 	and	r2,r2,r3
  8060c0:	81400217 	ldw	r5,8(r16)
  8060c4:	8085883a 	add	r2,r16,r2
  8060c8:	10c00117 	ldw	r3,4(r2)
  8060cc:	29000315 	stw	r4,12(r5)
  8060d0:	21400215 	stw	r5,8(r4)
  8060d4:	18c00054 	ori	r3,r3,1
  8060d8:	10c00115 	stw	r3,4(r2)
  8060dc:	9009883a 	mov	r4,r18
  8060e0:	080e4ac0 	call	80e4ac <__malloc_unlock>
  8060e4:	80800204 	addi	r2,r16,8
  8060e8:	00006c06 	br	80629c <_malloc_r+0x258>
  8060ec:	00bffe04 	movi	r2,-8
  8060f0:	88a2703a 	and	r17,r17,r2
  8060f4:	88006616 	blt	r17,zero,806290 <_malloc_r+0x24c>
  8060f8:	89406536 	bltu	r17,r5,806290 <_malloc_r+0x24c>
  8060fc:	080e4880 	call	80e488 <__malloc_lock>
  806100:	88807e28 	cmpgeui	r2,r17,504
  806104:	10012226 	beq	r2,zero,806590 <_malloc_r+0x54c>
  806108:	8804d27a 	srli	r2,r17,9
  80610c:	10006f26 	beq	r2,zero,8062cc <_malloc_r+0x288>
  806110:	10c00168 	cmpgeui	r3,r2,5
  806114:	1800fe1e 	bne	r3,zero,806510 <_malloc_r+0x4cc>
  806118:	8804d1ba 	srli	r2,r17,6
  80611c:	11c00e44 	addi	r7,r2,57
  806120:	380890fa 	slli	r4,r7,3
  806124:	12000e04 	addi	r8,r2,56
  806128:	04c02074 	movhi	r19,129
  80612c:	9cc44104 	addi	r19,r19,4356
  806130:	9909883a 	add	r4,r19,r4
  806134:	24000117 	ldw	r16,4(r4)
  806138:	213ffe04 	addi	r4,r4,-8
  80613c:	24000b26 	beq	r4,r16,80616c <_malloc_r+0x128>
  806140:	01bfff04 	movi	r6,-4
  806144:	00000306 	br	806154 <_malloc_r+0x110>
  806148:	1800d60e 	bge	r3,zero,8064a4 <_malloc_r+0x460>
  80614c:	84000317 	ldw	r16,12(r16)
  806150:	24000626 	beq	r4,r16,80616c <_malloc_r+0x128>
  806154:	80800117 	ldw	r2,4(r16)
  806158:	1184703a 	and	r2,r2,r6
  80615c:	1447c83a 	sub	r3,r2,r17
  806160:	19400408 	cmpgei	r5,r3,16
  806164:	283ff826 	beq	r5,zero,806148 <_malloc_r+0x104>
  806168:	400f883a 	mov	r7,r8
  80616c:	9c000417 	ldw	r16,16(r19)
  806170:	02402074 	movhi	r9,129
  806174:	4a444304 	addi	r9,r9,4364
  806178:	82405f26 	beq	r16,r9,8062f8 <_malloc_r+0x2b4>
  80617c:	80c00117 	ldw	r3,4(r16)
  806180:	00bfff04 	movi	r2,-4
  806184:	1884703a 	and	r2,r3,r2
  806188:	1447c83a 	sub	r3,r2,r17
  80618c:	19000410 	cmplti	r4,r3,16
  806190:	20010a26 	beq	r4,zero,8065bc <_malloc_r+0x578>
  806194:	9a400515 	stw	r9,20(r19)
  806198:	9a400415 	stw	r9,16(r19)
  80619c:	1800ff0e 	bge	r3,zero,80659c <_malloc_r+0x558>
  8061a0:	10c08028 	cmpgeui	r3,r2,512
  8061a4:	1800c11e 	bne	r3,zero,8064ac <_malloc_r+0x468>
  8061a8:	1006d0fa 	srli	r3,r2,3
  8061ac:	1008d17a 	srli	r4,r2,5
  8061b0:	00800044 	movi	r2,1
  8061b4:	18c00044 	addi	r3,r3,1
  8061b8:	180690fa 	slli	r3,r3,3
  8061bc:	99400117 	ldw	r5,4(r19)
  8061c0:	1104983a 	sll	r2,r2,r4
  8061c4:	98c7883a 	add	r3,r19,r3
  8061c8:	19000017 	ldw	r4,0(r3)
  8061cc:	1144b03a 	or	r2,r2,r5
  8061d0:	197ffe04 	addi	r5,r3,-8
  8061d4:	81400315 	stw	r5,12(r16)
  8061d8:	81000215 	stw	r4,8(r16)
  8061dc:	98800115 	stw	r2,4(r19)
  8061e0:	1c000015 	stw	r16,0(r3)
  8061e4:	24000315 	stw	r16,12(r4)
  8061e8:	3807d0ba 	srai	r3,r7,2
  8061ec:	01000044 	movi	r4,1
  8061f0:	20c8983a 	sll	r4,r4,r3
  8061f4:	11004536 	bltu	r2,r4,80630c <_malloc_r+0x2c8>
  8061f8:	2086703a 	and	r3,r4,r2
  8061fc:	18000a1e 	bne	r3,zero,806228 <_malloc_r+0x1e4>
  806200:	00ffff04 	movi	r3,-4
  806204:	2109883a 	add	r4,r4,r4
  806208:	38ce703a 	and	r7,r7,r3
  80620c:	2086703a 	and	r3,r4,r2
  806210:	39c00104 	addi	r7,r7,4
  806214:	1800041e 	bne	r3,zero,806228 <_malloc_r+0x1e4>
  806218:	2109883a 	add	r4,r4,r4
  80621c:	2086703a 	and	r3,r4,r2
  806220:	39c00104 	addi	r7,r7,4
  806224:	183ffc26 	beq	r3,zero,806218 <_malloc_r+0x1d4>
  806228:	02bfff04 	movi	r10,-4
  80622c:	381690fa 	slli	r11,r7,3
  806230:	3819883a 	mov	r12,r7
  806234:	9ad7883a 	add	r11,r19,r11
  806238:	5811883a 	mov	r8,r11
  80623c:	40800317 	ldw	r2,12(r8)
  806240:	4080bc26 	beq	r8,r2,806534 <_malloc_r+0x4f0>
  806244:	10c00117 	ldw	r3,4(r2)
  806248:	1021883a 	mov	r16,r2
  80624c:	10800317 	ldw	r2,12(r2)
  806250:	1a86703a 	and	r3,r3,r10
  806254:	1c4bc83a 	sub	r5,r3,r17
  806258:	29800410 	cmplti	r6,r5,16
  80625c:	3000ba26 	beq	r6,zero,806548 <_malloc_r+0x504>
  806260:	283ff716 	blt	r5,zero,806240 <_malloc_r+0x1fc>
  806264:	80c7883a 	add	r3,r16,r3
  806268:	19400117 	ldw	r5,4(r3)
  80626c:	81800217 	ldw	r6,8(r16)
  806270:	9009883a 	mov	r4,r18
  806274:	29400054 	ori	r5,r5,1
  806278:	19400115 	stw	r5,4(r3)
  80627c:	30800315 	stw	r2,12(r6)
  806280:	11800215 	stw	r6,8(r2)
  806284:	080e4ac0 	call	80e4ac <__malloc_unlock>
  806288:	80800204 	addi	r2,r16,8
  80628c:	00000306 	br	80629c <_malloc_r+0x258>
  806290:	00800304 	movi	r2,12
  806294:	90800015 	stw	r2,0(r18)
  806298:	0005883a 	mov	r2,zero
  80629c:	dfc00917 	ldw	ra,36(sp)
  8062a0:	df000817 	ldw	fp,32(sp)
  8062a4:	ddc00717 	ldw	r23,28(sp)
  8062a8:	dd800617 	ldw	r22,24(sp)
  8062ac:	dd400517 	ldw	r21,20(sp)
  8062b0:	dd000417 	ldw	r20,16(sp)
  8062b4:	dcc00317 	ldw	r19,12(sp)
  8062b8:	dc800217 	ldw	r18,8(sp)
  8062bc:	dc400117 	ldw	r17,4(sp)
  8062c0:	dc000017 	ldw	r16,0(sp)
  8062c4:	dec00a04 	addi	sp,sp,40
  8062c8:	f800283a 	ret
  8062cc:	01008004 	movi	r4,512
  8062d0:	01c01004 	movi	r7,64
  8062d4:	02000fc4 	movi	r8,63
  8062d8:	003f9306 	br	806128 <_malloc_r+0xe4>
  8062dc:	14000317 	ldw	r16,12(r2)
  8062e0:	39c00084 	addi	r7,r7,2
  8062e4:	143f721e 	bne	r2,r16,8060b0 <_malloc_r+0x6c>
  8062e8:	9c000417 	ldw	r16,16(r19)
  8062ec:	02402074 	movhi	r9,129
  8062f0:	4a444304 	addi	r9,r9,4364
  8062f4:	827fa11e 	bne	r16,r9,80617c <_malloc_r+0x138>
  8062f8:	3807d0ba 	srai	r3,r7,2
  8062fc:	01000044 	movi	r4,1
  806300:	98800117 	ldw	r2,4(r19)
  806304:	20c8983a 	sll	r4,r4,r3
  806308:	113fbb2e 	bgeu	r2,r4,8061f8 <_malloc_r+0x1b4>
  80630c:	9c000217 	ldw	r16,8(r19)
  806310:	00bfff04 	movi	r2,-4
  806314:	85400117 	ldw	r21,4(r16)
  806318:	a8ac703a 	and	r22,r21,r2
  80631c:	b4400336 	bltu	r22,r17,80632c <_malloc_r+0x2e8>
  806320:	b445c83a 	sub	r2,r22,r17
  806324:	10c00408 	cmpgei	r3,r2,16
  806328:	1800541e 	bne	r3,zero,80647c <_malloc_r+0x438>
  80632c:	00802074 	movhi	r2,129
  806330:	108a2217 	ldw	r2,10376(r2)
  806334:	00c02074 	movhi	r3,129
  806338:	1d512617 	ldw	r21,17560(r3)
  80633c:	10bfffd8 	cmpnei	r2,r2,-1
  806340:	85b9883a 	add	fp,r16,r22
  806344:	8d6b883a 	add	r21,r17,r21
  806348:	1000d626 	beq	r2,zero,8066a4 <_malloc_r+0x660>
  80634c:	ad4403c4 	addi	r21,r21,4111
  806350:	00bc0004 	movi	r2,-4096
  806354:	a8aa703a 	and	r21,r21,r2
  806358:	a80b883a 	mov	r5,r21
  80635c:	9009883a 	mov	r4,r18
  806360:	08082b00 	call	8082b0 <_sbrk_r>
  806364:	102f883a 	mov	r23,r2
  806368:	10bfffd8 	cmpnei	r2,r2,-1
  80636c:	1000a826 	beq	r2,zero,806610 <_malloc_r+0x5cc>
  806370:	bf00a636 	bltu	r23,fp,80660c <_malloc_r+0x5c8>
  806374:	00802074 	movhi	r2,129
  806378:	15113017 	ldw	r20,17600(r2)
  80637c:	ad29883a 	add	r20,r21,r20
  806380:	15113015 	stw	r20,17600(r2)
  806384:	a007883a 	mov	r3,r20
  806388:	e5c0ec26 	beq	fp,r23,80673c <_malloc_r+0x6f8>
  80638c:	00802074 	movhi	r2,129
  806390:	108a2217 	ldw	r2,10376(r2)
  806394:	10bfffd8 	cmpnei	r2,r2,-1
  806398:	1000ef26 	beq	r2,zero,806758 <_malloc_r+0x714>
  80639c:	bf39c83a 	sub	fp,r23,fp
  8063a0:	e0c7883a 	add	r3,fp,r3
  8063a4:	00802074 	movhi	r2,129
  8063a8:	10d13015 	stw	r3,17600(r2)
  8063ac:	bf0001cc 	andi	fp,r23,7
  8063b0:	e000c526 	beq	fp,zero,8066c8 <_malloc_r+0x684>
  8063b4:	bf2fc83a 	sub	r23,r23,fp
  8063b8:	bdc00204 	addi	r23,r23,8
  8063bc:	05040204 	movi	r20,4104
  8063c0:	a729c83a 	sub	r20,r20,fp
  8063c4:	bd6b883a 	add	r21,r23,r21
  8063c8:	a569c83a 	sub	r20,r20,r21
  8063cc:	a503ffcc 	andi	r20,r20,4095
  8063d0:	a00b883a 	mov	r5,r20
  8063d4:	9009883a 	mov	r4,r18
  8063d8:	08082b00 	call	8082b0 <_sbrk_r>
  8063dc:	10ffffe0 	cmpeqi	r3,r2,-1
  8063e0:	1800f31e 	bne	r3,zero,8067b0 <_malloc_r+0x76c>
  8063e4:	15c5c83a 	sub	r2,r2,r23
  8063e8:	152b883a 	add	r21,r2,r20
  8063ec:	00802074 	movhi	r2,129
  8063f0:	11513017 	ldw	r5,17600(r2)
  8063f4:	9dc00215 	stw	r23,8(r19)
  8063f8:	ad400054 	ori	r21,r21,1
  8063fc:	a169883a 	add	r20,r20,r5
  806400:	15113015 	stw	r20,17600(r2)
  806404:	bd400115 	stw	r21,4(r23)
  806408:	84c0d626 	beq	r16,r19,806764 <_malloc_r+0x720>
  80640c:	b0800428 	cmpgeui	r2,r22,16
  806410:	1000d626 	beq	r2,zero,80676c <_malloc_r+0x728>
  806414:	80c00117 	ldw	r3,4(r16)
  806418:	013ffe04 	movi	r4,-8
  80641c:	b0bffd04 	addi	r2,r22,-12
  806420:	1104703a 	and	r2,r2,r4
  806424:	18c0004c 	andi	r3,r3,1
  806428:	1886b03a 	or	r3,r3,r2
  80642c:	80c00115 	stw	r3,4(r16)
  806430:	01000144 	movi	r4,5
  806434:	8087883a 	add	r3,r16,r2
  806438:	19000115 	stw	r4,4(r3)
  80643c:	19000215 	stw	r4,8(r3)
  806440:	10800428 	cmpgeui	r2,r2,16
  806444:	1000df1e 	bne	r2,zero,8067c4 <_malloc_r+0x780>
  806448:	bd400117 	ldw	r21,4(r23)
  80644c:	b821883a 	mov	r16,r23
  806450:	00802074 	movhi	r2,129
  806454:	10912517 	ldw	r2,17556(r2)
  806458:	1500022e 	bgeu	r2,r20,806464 <_malloc_r+0x420>
  80645c:	00802074 	movhi	r2,129
  806460:	15112515 	stw	r20,17556(r2)
  806464:	00802074 	movhi	r2,129
  806468:	10912417 	ldw	r2,17552(r2)
  80646c:	15006a2e 	bgeu	r2,r20,806618 <_malloc_r+0x5d4>
  806470:	00802074 	movhi	r2,129
  806474:	15112415 	stw	r20,17552(r2)
  806478:	00006706 	br	806618 <_malloc_r+0x5d4>
  80647c:	88c00054 	ori	r3,r17,1
  806480:	80c00115 	stw	r3,4(r16)
  806484:	8463883a 	add	r17,r16,r17
  806488:	10800054 	ori	r2,r2,1
  80648c:	9c400215 	stw	r17,8(r19)
  806490:	88800115 	stw	r2,4(r17)
  806494:	9009883a 	mov	r4,r18
  806498:	080e4ac0 	call	80e4ac <__malloc_unlock>
  80649c:	80800204 	addi	r2,r16,8
  8064a0:	003f7e06 	br	80629c <_malloc_r+0x258>
  8064a4:	81000317 	ldw	r4,12(r16)
  8064a8:	003f0506 	br	8060c0 <_malloc_r+0x7c>
  8064ac:	1006d27a 	srli	r3,r2,9
  8064b0:	19000168 	cmpgeui	r4,r3,5
  8064b4:	20005026 	beq	r4,zero,8065f8 <_malloc_r+0x5b4>
  8064b8:	19000568 	cmpgeui	r4,r3,21
  8064bc:	20008c1e 	bne	r4,zero,8066f0 <_malloc_r+0x6ac>
  8064c0:	19401704 	addi	r5,r3,92
  8064c4:	280a90fa 	slli	r5,r5,3
  8064c8:	190016c4 	addi	r4,r3,91
  8064cc:	994b883a 	add	r5,r19,r5
  8064d0:	28c00017 	ldw	r3,0(r5)
  8064d4:	297ffe04 	addi	r5,r5,-8
  8064d8:	28c07426 	beq	r5,r3,8066ac <_malloc_r+0x668>
  8064dc:	01bfff04 	movi	r6,-4
  8064e0:	19000117 	ldw	r4,4(r3)
  8064e4:	2188703a 	and	r4,r4,r6
  8064e8:	1100022e 	bgeu	r2,r4,8064f4 <_malloc_r+0x4b0>
  8064ec:	18c00217 	ldw	r3,8(r3)
  8064f0:	28fffb1e 	bne	r5,r3,8064e0 <_malloc_r+0x49c>
  8064f4:	19400317 	ldw	r5,12(r3)
  8064f8:	98800117 	ldw	r2,4(r19)
  8064fc:	81400315 	stw	r5,12(r16)
  806500:	80c00215 	stw	r3,8(r16)
  806504:	2c000215 	stw	r16,8(r5)
  806508:	1c000315 	stw	r16,12(r3)
  80650c:	003f3606 	br	8061e8 <_malloc_r+0x1a4>
  806510:	10c00568 	cmpgeui	r3,r2,21
  806514:	18004a26 	beq	r3,zero,806640 <_malloc_r+0x5fc>
  806518:	10c01568 	cmpgeui	r3,r2,85
  80651c:	18007b1e 	bne	r3,zero,80670c <_malloc_r+0x6c8>
  806520:	8804d33a 	srli	r2,r17,12
  806524:	11c01bc4 	addi	r7,r2,111
  806528:	380890fa 	slli	r4,r7,3
  80652c:	12001b84 	addi	r8,r2,110
  806530:	003efd06 	br	806128 <_malloc_r+0xe4>
  806534:	63000044 	addi	r12,r12,1
  806538:	608000cc 	andi	r2,r12,3
  80653c:	42000204 	addi	r8,r8,8
  806540:	103f3e1e 	bne	r2,zero,80623c <_malloc_r+0x1f8>
  806544:	00004506 	br	80665c <_malloc_r+0x618>
  806548:	81000217 	ldw	r4,8(r16)
  80654c:	89800054 	ori	r6,r17,1
  806550:	81800115 	stw	r6,4(r16)
  806554:	20800315 	stw	r2,12(r4)
  806558:	11000215 	stw	r4,8(r2)
  80655c:	8463883a 	add	r17,r16,r17
  806560:	9c400515 	stw	r17,20(r19)
  806564:	9c400415 	stw	r17,16(r19)
  806568:	28800054 	ori	r2,r5,1
  80656c:	88800115 	stw	r2,4(r17)
  806570:	8a400315 	stw	r9,12(r17)
  806574:	8a400215 	stw	r9,8(r17)
  806578:	80c7883a 	add	r3,r16,r3
  80657c:	19400015 	stw	r5,0(r3)
  806580:	9009883a 	mov	r4,r18
  806584:	080e4ac0 	call	80e4ac <__malloc_unlock>
  806588:	80800204 	addi	r2,r16,8
  80658c:	003f4306 	br	80629c <_malloc_r+0x258>
  806590:	880ed0fa 	srli	r7,r17,3
