
task6_fp_mult.elf:     file format elf32-littlenios2
task6_fp_mult.elf
architecture: nios2:r1, flags 0x00000112:
EXEC_P, HAS_SYMS, D_PAGED
start address 0x00800238

Program Header:
    LOAD off    0x00001000 vaddr 0x00800000 paddr 0x00800000 align 2**12
         filesz 0x00000020 memsz 0x00000020 flags r-x
    LOAD off    0x00001020 vaddr 0x00800020 paddr 0x00800020 align 2**12
         filesz 0x00013400 memsz 0x00013400 flags r-x
    LOAD off    0x00014420 vaddr 0x00813420 paddr 0x00815118 align 2**12
         filesz 0x00001cf8 memsz 0x00001cf8 flags rw-
    LOAD off    0x00016e10 vaddr 0x00816e10 paddr 0x00816e10 align 2**12
         filesz 0x00000000 memsz 0x00000158 flags rw-

Sections:
Idx Name          Size      VMA       LMA       File off  Algn
  0 .entry        00000020  00800000  00800000  00001000  2**5
                  CONTENTS, ALLOC, LOAD, READONLY, CODE
  1 .exceptions   00000218  00800020  00800020  00001020  2**2
                  CONTENTS, ALLOC, LOAD, READONLY, CODE
  2 .text         00012764  00800238  00800238  00001238  2**2
                  CONTENTS, ALLOC, LOAD, READONLY, CODE
  3 .rodata       00000a84  0081299c  0081299c  0001399c  2**2
                  CONTENTS, ALLOC, LOAD, READONLY, DATA
  4 .rwdata       00001cf8  00813420  00815118  00014420  2**2
                  CONTENTS, ALLOC, LOAD, DATA, SMALL_DATA
  5 .bss          00000158  00816e10  00816e10  00016e10  2**2
                  ALLOC, SMALL_DATA
  6 .sdram        00000000  00816f68  00816f68  00016118  2**0
                  CONTENTS
  7 .comment      0000002d  00000000  00000000  00016118  2**0
                  CONTENTS, READONLY
  8 .debug_aranges 00001208  00000000  00000000  00016148  2**3
                  CONTENTS, READONLY, DEBUGGING, OCTETS
  9 .debug_info   00031475  00000000  00000000  00017350  2**0
                  CONTENTS, READONLY, DEBUGGING, OCTETS
 10 .debug_abbrev 0000c6a3  00000000  00000000  000487c5  2**0
                  CONTENTS, READONLY, DEBUGGING, OCTETS
 11 .debug_line   0001b552  00000000  00000000  00054e68  2**0
                  CONTENTS, READONLY, DEBUGGING, OCTETS
 12 .debug_frame  00002764  00000000  00000000  000703bc  2**2
                  CONTENTS, READONLY, DEBUGGING, OCTETS
 13 .debug_str    00004f78  00000000  00000000  00072b20  2**0
                  CONTENTS, READONLY, DEBUGGING, OCTETS
 14 .debug_loc    00023d92  00000000  00000000  00077a98  2**0
                  CONTENTS, READONLY, DEBUGGING, OCTETS
 15 .debug_alt_sim_info 00000030  00000000  00000000  0009b82c  2**2
                  CONTENTS, READONLY, DEBUGGING, OCTETS
 16 .debug_ranges 00002f80  00000000  00000000  0009b860  2**3
                  CONTENTS, READONLY, DEBUGGING, OCTETS
 17 .thread_model 00000003  00000000  00000000  000a1f86  2**0
                  CONTENTS, READONLY
 18 .cpu          00000003  00000000  00000000  000a1f89  2**0
                  CONTENTS, READONLY
 19 .qsys         00000001  00000000  00000000  000a1f8c  2**0
                  CONTENTS, READONLY
 20 .simulation_enabled 00000001  00000000  00000000  000a1f8d  2**0
                  CONTENTS, READONLY
 21 .sysid_hash   00000004  00000000  00000000  000a1f8e  2**0
                  CONTENTS, READONLY
 22 .sysid_base   00000004  00000000  00000000  000a1f92  2**0
                  CONTENTS, READONLY
 23 .sysid_time   00000004  00000000  00000000  000a1f96  2**0
                  CONTENTS, READONLY
 24 .stderr_dev   00000009  00000000  00000000  000a1f9a  2**0
                  CONTENTS, READONLY
 25 .stdin_dev    00000009  00000000  00000000  000a1fa3  2**0
                  CONTENTS, READONLY
 26 .stdout_dev   00000009  00000000  00000000  000a1fac  2**0
                  CONTENTS, READONLY
 27 .sopc_system_name 00000012  00000000  00000000  000a1fb5  2**0
                  CONTENTS, READONLY
 28 .quartus_project_dir 00000038  00000000  00000000  000a1fc7  2**0
                  CONTENTS, READONLY
 29 .jdi          00005099  00000000  00000000  000a1fff  2**0
                  CONTENTS, READONLY
 30 .sopcinfo     00040645  00000000  00000000  000a7098  2**0
                  CONTENTS, READONLY
SYMBOL TABLE:
00800000 l    d  .entry	00000000 .entry
00800020 l    d  .exceptions	00000000 .exceptions
00800238 l    d  .text	00000000 .text
0081299c l    d  .rodata	00000000 .rodata
00813420 l    d  .rwdata	00000000 .rwdata
00816e10 l    d  .bss	00000000 .bss
00816f68 l    d  .sdram	00000000 .sdram
00000000 l    d  .comment	00000000 .comment
00000000 l    d  .debug_aranges	00000000 .debug_aranges
00000000 l    d  .debug_info	00000000 .debug_info
00000000 l    d  .debug_abbrev	00000000 .debug_abbrev
00000000 l    d  .debug_line	00000000 .debug_line
00000000 l    d  .debug_frame	00000000 .debug_frame
00000000 l    d  .debug_str	00000000 .debug_str
00000000 l    d  .debug_loc	00000000 .debug_loc
00000000 l    d  .debug_alt_sim_info	00000000 .debug_alt_sim_info
00000000 l    d  .debug_ranges	00000000 .debug_ranges
00000000 l    df *ABS*	00000000 ../task6_fp_mult_bsp//obj/HAL/src/crt0.o
00800280 l       .text	00000000 alt_after_alt_main
00000000 l    df *ABS*	00000000 alt_irq_handler.c
00000000 l    df *ABS*	00000000 alt_instruction_exception_entry.c
00000000 l    df *ABS*	00000000 hello_world.c
00800284 l     F .text	00000078 theFunction.constprop.0
00000000 l    df *ABS*	00000000 sf_cos.c
00000000 l    df *ABS*	00000000 ef_rem_pio2.c
008129f0 l     O .rodata	00000080 npio2_hw
00812a70 l     O .rodata	00000318 two_over_pi
00000000 l    df *ABS*	00000000 kf_cos.c
00000000 l    df *ABS*	00000000 kf_rem_pio2.c
00812d88 l     O .rodata	0000000c init_jk
00000000 l    df *ABS*	00000000 kf_sin.c
00000000 l    df *ABS*	00000000 sf_floor.c
00000000 l    df *ABS*	00000000 sf_scalbn.c
00000000 l    df *ABS*	00000000 eqsf2.c
00000000 l    df *ABS*	00000000 gesf2.c
00000000 l    df *ABS*	00000000 fixsfsi.c
00000000 l    df *ABS*	00000000 floatsisf.c
00000000 l    df *ABS*	00000000 extendsfdf2.c
00000000 l    df *ABS*	00000000 libgcc2.c
00000000 l    df *ABS*	00000000 libgcc2.c
00000000 l    df *ABS*	00000000 memset.c
00000000 l    df *ABS*	00000000 printf.c
00000000 l    df *ABS*	00000000 puts.c
00000000 l    df *ABS*	00000000 strlen.c
00000000 l    df *ABS*	00000000 vfprintf.c
00803e78 l     F .text	000000c0 __sbprintf
00812ed8 l     O .rodata	00000010 blanks.1
00812ec8 l     O .rodata	00000010 zeroes.0
00000000 l    df *ABS*	00000000 wsetup.c
00000000 l    df *ABS*	00000000 dtoa.c
00804098 l     F .text	00000220 quorem
00000000 l    df *ABS*	00000000 fflush.c
00000000 l    df *ABS*	00000000 findfp.c
00805d98 l     F .text	00000008 __fp_lock
00805dac l     F .text	00000008 __fp_unlock
00000000 l    df *ABS*	00000000 mallocr.c
00000000 l    df *ABS*	00000000 fvwrite.c
00000000 l    df *ABS*	00000000 fwalk.c
00000000 l    df *ABS*	00000000 impure.c
00813420 l     O .rwdata	00000424 impure_data
00000000 l    df *ABS*	00000000 localeconv.c
00000000 l    df *ABS*	00000000 locale.c
00000000 l    df *ABS*	00000000 makebuf.c
00000000 l    df *ABS*	00000000 mallocr.c
00000000 l    df *ABS*	00000000 mbtowc_r.c
00000000 l    df *ABS*	00000000 memchr.c
00000000 l    df *ABS*	00000000 memcpy.c
00000000 l    df *ABS*	00000000 memmove.c
00000000 l    df *ABS*	00000000 mprec.c
00812fec l     O .rodata	0000000c p05.0
00000000 l    df *ABS*	00000000 mallocr.c
00000000 l    df *ABS*	00000000 sbrkr.c
00000000 l    df *ABS*	00000000 stdio.c
00000000 l    df *ABS*	00000000 strcmp.c
00000000 l    df *ABS*	00000000 vfprintf.c
0080b5e8 l     F .text	000000c0 __sbprintf
00813110 l     O .rodata	00000010 zeroes.0
00813120 l     O .rodata	00000010 blanks.1
00000000 l    df *ABS*	00000000 wctomb_r.c
00000000 l    df *ABS*	00000000 writer.c
00000000 l    df *ABS*	00000000 closer.c
00000000 l    df *ABS*	00000000 assert.c
00000000 l    df *ABS*	00000000 mallocr.c
00000000 l    df *ABS*	00000000 ctype_.c
00000000 l    df *ABS*	00000000 fclose.c
00000000 l    df *ABS*	00000000 fiprintf.c
00000000 l    df *ABS*	00000000 fputwc.c
00000000 l    df *ABS*	00000000 fstatr.c
00000000 l    df *ABS*	00000000 int_errno.c
00000000 l    df *ABS*	00000000 isattyr.c
00000000 l    df *ABS*	00000000 lseekr.c
00000000 l    df *ABS*	00000000 readr.c
00000000 l    df *ABS*	00000000 vfiprintfr_1.c
00000000 l    df *ABS*	00000000 wbuf.c
00000000 l    df *ABS*	00000000 wcrtomb.c
00000000 l    df *ABS*	00000000 abort.c
00000000 l    df *ABS*	00000000 signal.c
00000000 l    df *ABS*	00000000 signalr.c
00000000 l    df *ABS*	00000000 libgcc2.c
00000000 l    df *ABS*	00000000 libgcc2.c
00000000 l    df *ABS*	00000000 lib2-divmod.c
00000000 l    df *ABS*	00000000 lib2-divtable.c
00000000 l    df *ABS*	00000000 lib2-mul.c
00000000 l    df *ABS*	00000000 adddf3.c
00000000 l    df *ABS*	00000000 divdf3.c
00000000 l    df *ABS*	00000000 eqdf2.c
00000000 l    df *ABS*	00000000 gedf2.c
00000000 l    df *ABS*	00000000 ledf2.c
00000000 l    df *ABS*	00000000 muldf3.c
00000000 l    df *ABS*	00000000 subdf3.c
00000000 l    df *ABS*	00000000 fixdfsi.c
00000000 l    df *ABS*	00000000 floatsidf.c
00000000 l    df *ABS*	00000000 floatunsidf.c
00000000 l    df *ABS*	00000000 alt_close.c
0080ff50 l     F .text	0000003c alt_get_errno
00000000 l    df *ABS*	00000000 alt_dev.c
00810068 l     F .text	0000002c alt_dev_null_write
00000000 l    df *ABS*	00000000 alt_errno.c
00000000 l    df *ABS*	00000000 alt_exit.c
00000000 l    df *ABS*	00000000 alt_fstat.c
008100cc l     F .text	0000003c alt_get_errno
00000000 l    df *ABS*	00000000 alt_getpid.c
00000000 l    df *ABS*	00000000 alt_isatty.c
008101e4 l     F .text	0000003c alt_get_errno
00000000 l    df *ABS*	00000000 alt_kill.c
008102d0 l     F .text	0000003c alt_get_errno
00000000 l    df *ABS*	00000000 alt_load.c
00810438 l     F .text	00000068 alt_load_section
00000000 l    df *ABS*	00000000 alt_lseek.c
00810524 l     F .text	0000003c alt_get_errno
00000000 l    df *ABS*	00000000 alt_main.c
00000000 l    df *ABS*	00000000 alt_malloc_lock.c
00000000 l    df *ABS*	00000000 alt_read.c
00810704 l     F .text	0000003c alt_get_errno
00000000 l    df *ABS*	00000000 alt_release_fd.c
00000000 l    df *ABS*	00000000 alt_sbrk.c
00815108 l     O .rwdata	00000004 heap_end
00000000 l    df *ABS*	00000000 alt_times.c
00810970 l     F .text	0000003c alt_get_errno
00000000 l    df *ABS*	00000000 alt_write.c
00810a24 l     F .text	0000003c alt_get_errno
00000000 l    df *ABS*	00000000 alt_sys_init.c
00810b64 l     F .text	00000034 alt_dev_reg
00814060 l     O .rwdata	00001060 jtag_uart
00000000 l    df *ABS*	00000000 altera_avalon_jtag_uart_fd.c
00000000 l    df *ABS*	00000000 altera_avalon_jtag_uart_init.c
00810e5c l     F .text	0000020c altera_avalon_jtag_uart_irq
00811068 l     F .text	000000a0 altera_avalon_jtag_uart_timeout
00000000 l    df *ABS*	00000000 altera_avalon_jtag_uart_ioctl.c
00000000 l    df *ABS*	00000000 altera_avalon_jtag_uart_read.c
00000000 l    df *ABS*	00000000 altera_avalon_jtag_uart_write.c
00000000 l    df *ABS*	00000000 altera_avalon_timer_sc.c
008116ac l     F .text	0000007c alt_avalon_timer_sc_irq
00000000 l    df *ABS*	00000000 alt_alarm_start.c
00000000 l    df *ABS*	00000000 alt_dcache_flush_all.c
00000000 l    df *ABS*	00000000 alt_dev_llist_insert.c
0081192c l     F .text	0000003c alt_get_errno
00000000 l    df *ABS*	00000000 alt_do_ctors.c
00000000 l    df *ABS*	00000000 alt_do_dtors.c
00000000 l    df *ABS*	00000000 alt_icache_flush_all.c
00000000 l    df *ABS*	00000000 alt_iic.c
00000000 l    df *ABS*	00000000 alt_iic_isr_register.c
00000000 l    df *ABS*	00000000 alt_io_redirect.c
00811da4 l     F .text	000000d4 alt_open_fd
00000000 l    df *ABS*	00000000 alt_irq_vars.c
00000000 l    df *ABS*	00000000 alt_open.c
00811ef4 l     F .text	0000003c alt_get_errno
00811f30 l     F .text	000000dc alt_file_locked
00000000 l    df *ABS*	00000000 alt_tick.c
00000000 l    df *ABS*	00000000 altera_nios2_gen2_irq.c
00000000 l    df *ABS*	00000000 alt_find_dev.c
00000000 l    df *ABS*	00000000 alt_find_file.c
00000000 l    df *ABS*	00000000 alt_get_fd.c
00000000 l    df *ABS*	00000000 alt_icache_flush.c
00000000 l    df *ABS*	00000000 atexit.c
00000000 l    df *ABS*	00000000 exit.c
00000000 l    df *ABS*	00000000 memcmp.c
00000000 l    df *ABS*	00000000 __atexit.c
00000000 l    df *ABS*	00000000 __call_atexit.c
00816e3c g     O .bss	00000004 alt_instruction_exception_handler
00809320 g     F .text	00000070 _mprec_log10
0080940c g     F .text	00000060 __any_on
0080c118 g     F .text	00000050 _isatty_r
00812ff8 g     O .rodata	00000028 __mprec_tinytens
00810640 g     F .text	0000007c alt_main
00801ca4 g     F .text	000000cc _puts_r
00816e68 g     O .bss	00000100 alt_irq
0080c168 g     F .text	0000005c _lseek_r
00815118 g       *ABS*	00000000 __flash_rwdata_start
0080ead8 g     F .text	00000080 .hidden __eqdf2
00816f68 g       *ABS*	00000000 __alt_heap_start
008150d0 g     O .rwdata	00000004 c_term1
0080ca9c g     F .text	00000058 _kill_r
00801c70 g     F .text	00000034 printf
0080c4b8 g     F .text	0000006c _wcrtomb_r
0080c61c g     F .text	00000098 _signal_r
00809afc g     F .text	0000005c __sseek
008060e8 g     F .text	00000170 __sinit
0080c224 g     F .text	00000148 __swbuf_r
00806ce4 g     F .text	00000074 _setlocale_r
00805db4 g     F .text	00000078 __sfmoreglue
008106e0 g     F .text	00000024 __malloc_unlock
00807a88 g     F .text	000001c4 memmove
008060d8 g     F .text	00000010 _cleanup
00807c4c g     F .text	000000a4 _Balloc
0080185c g     F .text	00000070 .hidden __fixsfsi
008150d4 g     O .rwdata	00000004 coeff3
0080eb58 g     F .text	000000e8 .hidden __gtdf2
00812318 g     F .text	00000024 altera_nios2_gen2_irq_init
00800000 g     F .entry	0000001c __reset
008109ac g     F .text	00000078 times
00806cc4 g     F .text	00000008 __localeconv_l
0080053c g     F .text	00000320 __ieee754_rem_pio2f
00800020 g       *ABS*	00000000 __flash_exceptions_start
0080c0c0 g     F .text	00000058 _fstat_r
00816e20 g     O .bss	00000004 errno
00809a74 g     F .text	00000008 __seofread
00816e28 g     O .bss	00000004 alt_argv
0081d0c0 g       *ABS*	00000000 _gp
008101c4 g     F .text	00000020 getpid
00813ee0 g     O .rwdata	00000180 alt_fd_list
0081233c g     F .text	00000090 alt_find_dev
008078fc g     F .text	0000018c memcpy
00805da0 g     F .text	0000000c _cleanup_r
0080fe08 g     F .text	000000b8 .hidden __floatsidf
00811e78 g     F .text	0000007c alt_io_redirect
0080ec40 g     F .text	000000e8 .hidden __ltdf2
0081299c g       *ABS*	00000000 __DTOR_END__
00801d70 g     F .text	000000c0 puts
0081261c g     F .text	00000098 alt_exception_cause_generated_bad_addr
0080916c g     F .text	000001b4 __ratio
008150c0 g     O .rwdata	00000004 c_term5
0080b5d0 g     F .text	00000018 __vfiprintf_internal
00811264 g     F .text	00000220 altera_avalon_jtag_uart_read
00801c40 g     F .text	00000030 _printf_r
0080d7d0 g     F .text	00000064 .hidden __udivsi3
00810220 g     F .text	000000b0 isatty
0080c6b4 g     F .text	000000c4 _raise_r
0080b790 g     F .text	00000060 __assert_func
00813048 g     O .rodata	000000c8 __mprec_tens
0081258c g     F .text	00000090 alt_icache_flush
00816e1c g     O .bss	00000004 __malloc_top_pad
0080caf4 g     F .text	00000004 _getpid_r
00806ccc g     F .text	0000000c _localeconv_r
008081b0 g     F .text	000000b0 __i2b
00806694 g     F .text	000004f0 __sfvwrite_r
0080c778 g     F .text	000000bc __sigtramp_r
008099d0 g     F .text	00000050 _sbrk_r
0080c1c4 g     F .text	0000005c _read_r
00815100 g     O .rwdata	00000004 alt_max_fd
0080b8c8 g     F .text	000000f8 _fclose_r
00805d1c g     F .text	0000007c fflush
00816e18 g     O .bss	00000004 __malloc_max_sbrked_mem
008019f0 g     F .text	000000fc .hidden __extendsfdf2
0080d8b8 g     F .text	000008f0 .hidden __adddf3
00801734 g     F .text	00000070 .hidden __nesf2
00808cbc g     F .text	0000015c __b2d
0080d118 g     F .text	000005c4 .hidden __umoddi3
00810560 g     F .text	000000e0 lseek
008150e0 g     O .rwdata	00000004 _global_impure_ptr
0080946c g     F .text	00000564 _realloc_r
00801474 g     F .text	000000f8 __kernel_sinf
00816f68 g       *ABS*	00000000 __bss_end
00811cbc g     F .text	000000e8 alt_iic_isr_register
00812210 g     F .text	00000108 alt_tick
0080caf8 g     F .text	00000620 .hidden __udivdi3
0080bcd8 g     F .text	000001e8 _fputwc_r
00813020 g     O .rodata	00000028 __mprec_bigtens
00807ec8 g     F .text	000001c4 __s2b
0080c5a8 g     F .text	00000018 abort
0080fec0 g     F .text	00000090 .hidden __floatunsidf
00808914 g     F .text	00000058 __mcmp
00806268 g     F .text	00000010 __fp_lock_all
00811c70 g     F .text	0000004c alt_ic_irq_enabled
0081216c g     F .text	000000a4 alt_alarm_stop
008004a4 g     F .text	00000098 cosf
00816e30 g     O .bss	00000004 alt_irq_active
008000fc g     F .exceptions	000000c8 alt_irq_handler
00813eb8 g     O .rwdata	00000028 alt_dev_null
008118e0 g     F .text	0000004c alt_dcache_flush_all
0080808c g     F .text	0000006c __hi0bits
0080fd88 g     F .text	00000080 .hidden __fixdfsi
0080085c g     F .text	00000160 __kernel_cosf
00815118 g       *ABS*	00000000 __ram_rwdata_end
008150f8 g     O .rwdata	00000008 alt_dev_list
00810a60 g     F .text	00000104 write
008017a4 g     F .text	000000b8 .hidden __gtsf2
00813420 g       *ABS*	00000000 __ram_rodata_end
00810108 g     F .text	000000bc fstat
0081030c g     F .text	0000012c kill
008150c4 g     O .rwdata	00000004 c_term4
0080ec40 g     F .text	000000e8 .hidden __ledf2
00800358 g     F .text	00000088 theFunction
00808588 g     F .text	00000194 __pow5mult
00809d08 g     F .text	000018c8 ___vfiprintf_internal_r
0080d834 g     F .text	0000005c .hidden __umodsi3
00816f68 g       *ABS*	00000000 end
00810d9c g     F .text	000000c0 altera_avalon_jtag_uart_init
008001c4 g     F .exceptions	00000074 alt_instruction_exception_entry
0081299c g       *ABS*	00000000 __CTOR_LIST__
01000000 g       *ABS*	00000000 __alt_stack_pointer
00811728 g     F .text	00000084 alt_avalon_timer_sc_init
00801aec g     F .text	00000054 .hidden __clzsi2
00811484 g     F .text	00000228 altera_avalon_jtag_uart_write
00806258 g     F .text	00000004 __sfp_lock_acquire
0080782c g     F .text	000000d0 memchr
00801ec8 g     F .text	00001f98 ___vfprintf_internal_r
008063a0 g     F .text	000002f4 _free_r
00813274 g     O .rodata	00000180 _ctype_b
00806d58 g     F .text	0000000c __locale_mb_cur_max
008127fc g     F .text	000001a0 __call_exitprocs
008150e8 g     O .rwdata	00000004 __malloc_sbrk_base
00800238 g     F .text	0000004c _start
00816e34 g     O .bss	00000004 _alt_tick_rate
0080871c g     F .text	000001f8 __lshift
00816e38 g     O .bss	00000004 _alt_nticks
0080c8ec g     F .text	0000009c signal
00810740 g     F .text	00000108 read
00810bd4 g     F .text	00000064 alt_sys_init
008018cc g     F .text	00000124 .hidden __floatsisf
00812770 g     F .text	0000008c __register_exitproc
00808260 g     F .text	00000328 __multiply
00811108 g     F .text	00000068 altera_avalon_jtag_uart_close
0080d890 g     F .text	00000028 .hidden __mulsi3
00813420 g       *ABS*	00000000 __ram_rwdata_start
0081299c g       *ABS*	00000000 __ram_rodata_start
00816e40 g     O .bss	00000028 __malloc_current_mallinfo
00801734 g     F .text	00000070 .hidden __eqsf2
00808e18 g     F .text	00000354 __d2b
008150cc g     O .rwdata	00000004 c_term2
00810c38 g     F .text	00000060 altera_avalon_jtag_uart_read_fd
008124d4 g     F .text	000000b8 alt_get_fd
0080b740 g     F .text	00000050 _close_r
008002fc g     F .text	00000028 generateVector
008126f8 g     F .text	00000078 memcmp
00810cf8 g     F .text	00000050 altera_avalon_jtag_uart_close_fd
00816f68 g       *ABS*	00000000 __alt_stack_base
00810d48 g     F .text	00000054 altera_avalon_jtag_uart_ioctl_fd
00803f38 g     F .text	00000160 __swsetup_r
0080e1a8 g     F .text	00000930 .hidden __divdf3
00805e2c g     F .text	000002ac __sfp
00809390 g     F .text	0000007c __copybits
008139b0 g     O .rwdata	00000408 __malloc_av_
00806264 g     F .text	00000004 __sinit_lock_release
0080ed28 g     F .text	000007ac .hidden __muldf3
00809a20 g     F .text	00000054 __sread
008123cc g     F .text	00000108 alt_find_file
00811968 g     F .text	000000a8 alt_dev_llist_insert
008106bc g     F .text	00000024 __malloc_lock
008108b8 g     F .text	000000b8 sbrk
00801640 g     F .text	000000f4 scalbnf
00805cbc g     F .text	00000060 _fflush_r
0080b804 g     F .text	000000c4 _calloc_r
00813db8 g     O .rwdata	00000100 .hidden __divsi3_table
00816e10 g       *ABS*	00000000 __bss_start
00801b40 g     F .text	00000100 memset
008003e0 g     F .text	000000c4 main
00816e2c g     O .bss	00000004 alt_envp
00816e14 g     O .bss	00000004 __malloc_max_total_mem
00810c98 g     F .text	00000060 altera_avalon_jtag_uart_write_fd
0080c36c g     F .text	0000014c __swbuf
00809b58 g     F .text	00000008 __sclose
01000000 g       *ABS*	00000000 __alt_heap_limit
0080b9c0 g     F .text	000000fc fclose
008042b8 g     F .text	000017dc _dtoa_r
0080701c g     F .text	000007c0 _malloc_r
0080b6b4 g     F .text	00000030 __ascii_wctomb
00815104 g     O .rwdata	00000004 alt_errno
0080babc g     F .text	00000020 _fiprintf_r
0080c988 g     F .text	0000005c _init_signal
00806b84 g     F .text	00000098 _fwalk
008077dc g     F .text	0000000c _mbtowc_r
0080d6dc g     F .text	00000080 .hidden __divsi3
00806288 g     F .text	00000118 _malloc_trim_r
0081299c g       *ABS*	00000000 __CTOR_END__
00809b60 g     F .text	000000b8 strcmp
0081299c g       *ABS*	00000000 __flash_rodata_start
0081299c g       *ABS*	00000000 __DTOR_LIST__
0080ead8 g     F .text	00000080 .hidden __nedf2
00810b98 g     F .text	0000003c alt_irq_init
00810848 g     F .text	00000070 alt_release_fd
00812d94 g     O .rodata	00000100 .hidden __clz_tab
00816e10 g     O .bss	00000004 _PathLocale
008126b4 g     F .text	00000014 atexit
008017a4 g     F .text	000000b8 .hidden __gesf2
00800324 g     F .text	00000034 sumVector
0080b6e4 g     F .text	0000005c _write_r
008150d8 g     O .rwdata	00000004 coeff2
00806d64 g     F .text	00000074 setlocale
008150e4 g     O .rwdata	00000004 _impure_ptr
00816e24 g     O .bss	00000004 alt_argc
00805a94 g     F .text	00000228 __sflush_r
00811a74 g     F .text	00000064 _do_dtors
008150c8 g     O .rwdata	00000004 c_term3
00800020 g       .exceptions	00000000 alt_irq_entry
008077e8 g     F .text	00000044 __ascii_mbtowc
00808c60 g     F .text	0000005c __ulp
00806278 g     F .text	00000010 __fp_unlock_all
008150f0 g     O .rwdata	00000008 alt_fs_list
00800020 g       *ABS*	00000000 __ram_exceptions_start
00806cd8 g     F .text	0000000c localeconv
00806f84 g     F .text	00000098 __swhatbuf_r
00811b0c g     F .text	00000050 alt_ic_isr_register
00815118 g       *ABS*	00000000 _edata
00816f68 g       *ABS*	00000000 _end
0080bb10 g     F .text	000001c8 __fputwc
00800238 g       *ABS*	00000000 __ram_exceptions_end
00811170 g     F .text	000000f4 altera_avalon_jtag_uart_ioctl
00811be4 g     F .text	0000008c alt_ic_irq_disable
00809a7c g     F .text	00000080 __swrite
008150ec g     O .rwdata	00000004 __malloc_trim_threshold
008126c8 g     F .text	00000030 exit
0080badc g     F .text	00000034 fiprintf
0080c220 g     F .text	00000004 _vfiprintf_r
00806c1c g     F .text	000000a8 _fwalk_reent
0080896c g     F .text	000002f4 __mdiff
0080d75c g     F .text	00000074 .hidden __modsi3
01000000 g       *ABS*	00000000 __alt_data_end
00800020 g     F .exceptions	00000000 alt_exception
0080625c g     F .text	00000004 __sfp_lock_release
00800000 g       *ABS*	00000000 __alt_mem_sdram
00813170 g     O .rodata	00000101 _ctype_
00810094 g     F .text	00000038 _exit
008009bc g     F .text	00000ab8 __kernel_rem_pio2f
008117ac g     F .text	00000134 alt_alarm_start
00806dd8 g     F .text	000001ac __smakebuf_r
00801e30 g     F .text	00000098 strlen
0080c5c0 g     F .text	0000005c _init_signal_r
0081200c g     F .text	00000160 open
0080eb58 g     F .text	000000e8 .hidden __gedf2
0080b7f0 g     F .text	00000014 __assert
00809c18 g     F .text	000000f0 __sprint_r
00811ad8 g     F .text	00000034 alt_icache_flush_all
0080156c g     F .text	000000d4 floorf
0081510c g     O .rwdata	00000004 alt_priority_mask
00811b5c g     F .text	00000088 alt_ic_irq_enable
00803e60 g     F .text	00000018 __vfprintf_internal
0080b6a8 g     F .text	0000000c _wctomb_r
0080f4d4 g     F .text	000008b4 .hidden __subdf3
008080f8 g     F .text	000000b8 __lo0bits
00815110 g     O .rwdata	00000008 alt_alarm_list
00811a10 g     F .text	00000064 _do_ctors
0080c9e4 g     F .text	000000b8 __sigtramp
0080c524 g     F .text	00000084 wcrtomb
008150dc g     O .rwdata	00000004 coeff1
0080ff8c g     F .text	000000dc close
00813844 g     O .rwdata	0000016c __global_locale
008104a0 g     F .text	00000084 alt_load
0080bec0 g     F .text	00000200 fputwc
0080c834 g     F .text	000000b8 raise
00806260 g     F .text	00000004 __sinit_lock_acquire
00807d14 g     F .text	000001b4 __multadd
00807cf0 g     F .text	00000024 _Bfree



Disassembly of section .entry:

00800000 <__reset>:
#if NIOS2_ICACHE_SIZE > 0 && defined(ALT_ALLOW_CODE_AT_RESET) && (!defined(ALT_SIM_OPTIMIZE) || defined(NIOS2_ECC_PRESENT))
    /* Assume the instruction cache size is always a power of two. */
#if NIOS2_ICACHE_SIZE > 0x8000
    movhi r2, %hi(NIOS2_ICACHE_SIZE)
#else
    movui r2, NIOS2_ICACHE_SIZE
  800000:	00820014 	movui	r2,2048
#endif

0:
    initi r2
  800004:	1001483a 	initi	r2
    addi r2, r2, -NIOS2_ICACHE_LINE_SIZE
  800008:	10bff804 	addi	r2,r2,-32
    bgt r2, zero, 0b
  80000c:	00bffd16 	blt	zero,r2,800004 <__reset+0x4>
 * Jump to the _start entry point in the .text section if reset code
 * is allowed or if optimizing for RTL simulation.
 */
#if defined(ALT_ALLOW_CODE_AT_RESET) || defined(ALT_SIM_OPTIMIZE)
    /* Jump to the _start entry point in the .text section. */
    movhi r1, %hi(_start)
  800010:	00402034 	movhi	at,128
    ori r1, r1, %lo(_start)
  800014:	08408e14 	ori	at,at,568
    jmp r1
  800018:	0800683a 	jmp	at
  80001c:	00000000 	call	0 <__alt_mem_sdram-0x800000>

Disassembly of section .exceptions:

00800020 <alt_exception>:

#else /* ALT_EXCEPTION_STACK disabled */
        /* 
         * Reserve space on normal stack for registers about to be pushed.
         */
        addi  sp, sp, -76
  800020:	deffed04 	addi	sp,sp,-76
         * documentation for details).
         *
         * Leave a gap in the stack frame at 4(sp) for the muldiv handler to
         * store zero into.
         */
        stw   ra,  0(sp)
  800024:	dfc00015 	stw	ra,0(sp)
        stw   r1,   8(sp)
  800028:	d8400215 	stw	at,8(sp)
        stw   r2,  12(sp)
  80002c:	d8800315 	stw	r2,12(sp)
        stw   r3,  16(sp)
  800030:	d8c00415 	stw	r3,16(sp)
        stw   r4,  20(sp)
  800034:	d9000515 	stw	r4,20(sp)
        stw   r5,  24(sp)
  800038:	d9400615 	stw	r5,24(sp)
        stw   r6,  28(sp)
  80003c:	d9800715 	stw	r6,28(sp)
        stw   r7,  32(sp)
  800040:	d9c00815 	stw	r7,32(sp)
        rdctl r5, estatus   /* Read early to avoid usage stall */
  800044:	000b307a 	rdctl	r5,estatus
        stw   r8,  36(sp)
  800048:	da000915 	stw	r8,36(sp)
        stw   r9,  40(sp)
  80004c:	da400a15 	stw	r9,40(sp)
        stw   r10, 44(sp)
  800050:	da800b15 	stw	r10,44(sp)
        stw   r11, 48(sp)
  800054:	dac00c15 	stw	r11,48(sp)
        stw   r12, 52(sp)
  800058:	db000d15 	stw	r12,52(sp)
        stw   r13, 56(sp)
  80005c:	db400e15 	stw	r13,56(sp)
        stw   r14, 60(sp)
  800060:	db800f15 	stw	r14,60(sp)
        stw   r15, 64(sp)
  800064:	dbc01015 	stw	r15,64(sp)
        /*
         * ea-4 contains the address of the instruction being executed
         * when the exception occured. For interrupt exceptions, we will
         * will be re-issue the isntruction. Store it in 72(sp)
         */
        stw   r5,  68(sp)  /* estatus */
  800068:	d9401115 	stw	r5,68(sp)
        addi  r15, ea, -4  /* instruction that caused exception */
  80006c:	ebffff04 	addi	r15,ea,-4
        stw   r15,  72(sp)
  800070:	dbc01215 	stw	r15,72(sp)
#else
        /*
         * Test to see if the exception was a software exception or caused 
         * by an external interrupt, and vector accordingly.
         */
        rdctl r4, ipending
  800074:	0009313a 	rdctl	r4,ipending
        andi  r2, r5, 1
  800078:	2880004c 	andi	r2,r5,1
        beq   r2, zero, .Lnot_irq
  80007c:	10000326 	beq	r2,zero,80008c <alt_exception+0x6c>
        beq   r4, zero, .Lnot_irq
  800080:	20000226 	beq	r4,zero,80008c <alt_exception+0x6c>
        /*
         * Now that all necessary registers have been preserved, call 
         * alt_irq_handler() to process the interrupts.
         */

        call alt_irq_handler
  800084:	08000fc0 	call	8000fc <alt_irq_handler>

        .section .exceptions.irqreturn, "xa"

        br    .Lexception_exit
  800088:	00000706 	br	8000a8 <alt_exception+0x88>
         * upon completion, so we write ea (address of instruction *after*
         * the one where the exception occured) into 72(sp). The actual
         * instruction that caused the exception is written in r2, which these
         * handlers will utilize.
         */
        stw ea, 72(sp) /* EA is PC+4 so will skip over instruction causing exception */
  80008c:	df401215 	stw	ea,72(sp)
.Lunknown_16bit:
        addi.n r4, r4, 2 /* Need PC+2 to skip over instruction causing exception */
        stw r4, 72(sp)

#else /* CDX is not Enabled and all instructions are 32bits */
        ldw r2, -4(ea) /* Instruction value that caused exception */
  800090:	e8bfff17 	ldw	r2,-4(ea)
         * debugger is present) or go into an infinite loop since the
         * handling behavior is undefined; in that case we will not return here.
         */

        /* Load exception-causing address as first argument (r4) */
        addi   r4, ea, -4
  800094:	e93fff04 	addi	r4,ea,-4

        /* Call the instruction-exception entry */
        call   alt_instruction_exception_entry
  800098:	08001c40 	call	8001c4 <alt_instruction_exception_entry>
         * instruction
         *
         * Return code was 0: Skip. The instruction after the exception is
         * already stored in 72(sp).
         */
        bne   r2, r0, .Lexception_exit
  80009c:	1000021e 	bne	r2,zero,8000a8 <alt_exception+0x88>

        /*
         * Otherwise, modify 72(sp) to re-issue the instruction that caused the
         * exception.
         */
        addi  r15, ea, -4  /* instruction that caused exception */
  8000a0:	ebffff04 	addi	r15,ea,-4
        stw   r15,  72(sp)
  8000a4:	dbc01215 	stw	r15,72(sp)
        /* 
         * Restore the saved registers, so that all general purpose registers 
         * have been restored to their state at the time the interrupt occured.
         */

        ldw   r5,  68(sp)
  8000a8:	d9401117 	ldw	r5,68(sp)
        ldw   ea,  72(sp)  /* This becomes the PC once eret is executed */
  8000ac:	df401217 	ldw	ea,72(sp)
        ldw   ra,   0(sp)
  8000b0:	dfc00017 	ldw	ra,0(sp)

        wrctl estatus, r5
  8000b4:	2801707a 	wrctl	estatus,r5

        ldw   r1,   8(sp)
  8000b8:	d8400217 	ldw	at,8(sp)
        ldw   r2,  12(sp)
  8000bc:	d8800317 	ldw	r2,12(sp)
        ldw   r3,  16(sp)
  8000c0:	d8c00417 	ldw	r3,16(sp)
        ldw   r4,  20(sp)
  8000c4:	d9000517 	ldw	r4,20(sp)
        ldw   r5,  24(sp)
  8000c8:	d9400617 	ldw	r5,24(sp)
        ldw   r6,  28(sp)
  8000cc:	d9800717 	ldw	r6,28(sp)
        ldw   r7,  32(sp)
  8000d0:	d9c00817 	ldw	r7,32(sp)

#if defined(ALT_EXCEPTION_STACK) && defined(ALT_STACK_CHECK)
        ldw   et, %gprel(alt_exception_old_stack_limit)(gp)
#endif

        ldw   r8,  36(sp)
  8000d4:	da000917 	ldw	r8,36(sp)
        ldw   r9,  40(sp)
  8000d8:	da400a17 	ldw	r9,40(sp)
        ldw   r10, 44(sp)
  8000dc:	da800b17 	ldw	r10,44(sp)
        ldw   r11, 48(sp)
  8000e0:	dac00c17 	ldw	r11,48(sp)
        ldw   r12, 52(sp)
  8000e4:	db000d17 	ldw	r12,52(sp)
        ldw   r13, 56(sp)
  8000e8:	db400e17 	ldw	r13,56(sp)
        ldw   r14, 60(sp)
  8000ec:	db800f17 	ldw	r14,60(sp)
        ldw   r15, 64(sp)
  8000f0:	dbc01017 	ldw	r15,64(sp)
        stw   et, %gprel(alt_stack_limit_value)(gp)
        stw   zero, %gprel(alt_exception_old_stack_limit)(gp)
#endif /* ALT_STACK_CHECK */
        ldw   sp,  76(sp)
#else /* ALT_EXCEPTION_STACK disabled */
        addi  sp, sp, 76
  8000f4:	dec01304 	addi	sp,sp,76

        /*
         * Return to the interrupted instruction.
         */

        eret
  8000f8:	ef80083a 	eret

008000fc <alt_irq_handler>:
 * instruction is present if the macro ALT_CI_INTERRUPT_VECTOR defined.
 */

void alt_irq_handler (void) __attribute__ ((section (".exceptions")));
void alt_irq_handler (void)
{
  8000fc:	defff904 	addi	sp,sp,-28
  800100:	dfc00615 	stw	ra,24(sp)
  800104:	df000515 	stw	fp,20(sp)
  800108:	df000504 	addi	fp,sp,20
  
  /*
   * Notify the operating system that we are at interrupt level.
   */ 
  
  ALT_OS_INT_ENTER();
  80010c:	0001883a 	nop
#ifndef NIOS2_EIC_PRESENT
static ALT_INLINE alt_u32 ALT_ALWAYS_INLINE alt_irq_pending (void)
{
  alt_u32 active;

  NIOS2_READ_IPENDING (active);
  800110:	0005313a 	rdctl	r2,ipending
  800114:	e0bffc15 	stw	r2,-16(fp)

  return active;
  800118:	e0bffc17 	ldw	r2,-16(fp)
   * Consider the case where the high priority interupt is asserted during
   * the interrupt entry sequence for a lower priority interrupt to see why
   * this is the case.
   */

  active = alt_irq_pending ();
  80011c:	e0bfff15 	stw	r2,-4(fp)

  do
  {
    i = 0;
  800120:	e03ffd15 	stw	zero,-12(fp)
    mask = 1;
  800124:	00800044 	movi	r2,1
  800128:	e0bffe15 	stw	r2,-8(fp)
     * called to clear the interrupt condition.
     */

    do
    {
      if (active & mask)
  80012c:	e0ffff17 	ldw	r3,-4(fp)
  800130:	e0bffe17 	ldw	r2,-8(fp)
  800134:	1884703a 	and	r2,r3,r2
  800138:	10001126 	beq	r2,zero,800180 <alt_irq_handler+0x84>
      { 
#ifdef ALT_ENHANCED_INTERRUPT_API_PRESENT
        alt_irq[i].handler(alt_irq[i].context); 
  80013c:	e0bffd17 	ldw	r2,-12(fp)
  800140:	100690fa 	slli	r3,r2,3
  800144:	00802074 	movhi	r2,129
  800148:	1885883a 	add	r2,r3,r2
  80014c:	10db9a17 	ldw	r3,28264(r2)
  800150:	e0bffd17 	ldw	r2,-12(fp)
  800154:	100890fa 	slli	r4,r2,3
  800158:	00802074 	movhi	r2,129
  80015c:	2085883a 	add	r2,r4,r2
  800160:	109b9b17 	ldw	r2,28268(r2)
  800164:	1009883a 	mov	r4,r2
  800168:	183ee83a 	callr	r3
#else
        alt_irq[i].handler(alt_irq[i].context, i); 
#endif
        break;
  80016c:	0001883a 	nop
  NIOS2_READ_IPENDING (active);
  800170:	0005313a 	rdctl	r2,ipending
  800174:	e0bffb15 	stw	r2,-20(fp)
  return active;
  800178:	e0bffb17 	ldw	r2,-20(fp)
  80017c:	00000706 	br	80019c <alt_irq_handler+0xa0>
      }
      mask <<= 1;
  800180:	e0bffe17 	ldw	r2,-8(fp)
  800184:	1085883a 	add	r2,r2,r2
  800188:	e0bffe15 	stw	r2,-8(fp)
      i++;
  80018c:	e0bffd17 	ldw	r2,-12(fp)
  800190:	10800044 	addi	r2,r2,1
  800194:	e0bffd15 	stw	r2,-12(fp)
      if (active & mask)
  800198:	003fe406 	br	80012c <alt_irq_handler+0x30>

    } while (1);

    active = alt_irq_pending ();
  80019c:	e0bfff15 	stw	r2,-4(fp)
    
  } while (active);
  8001a0:	e0bfff17 	ldw	r2,-4(fp)
  8001a4:	103fde1e 	bne	r2,zero,800120 <alt_irq_handler+0x24>

  /*
   * Notify the operating system that interrupt processing is complete.
   */ 

  ALT_OS_INT_EXIT();
  8001a8:	0001883a 	nop
}
  8001ac:	0001883a 	nop
  8001b0:	e037883a 	mov	sp,fp
  8001b4:	dfc00117 	ldw	ra,4(sp)
  8001b8:	df000017 	ldw	fp,0(sp)
  8001bc:	dec00204 	addi	sp,sp,8
  8001c0:	f800283a 	ret

008001c4 <alt_instruction_exception_entry>:
 * that handler if it has been registered. Absent a handler, it will
 * break break or hang as discussed below.
 */
int 
alt_instruction_exception_entry (alt_u32 exception_pc)
{
  8001c4:	defffb04 	addi	sp,sp,-20
  8001c8:	dfc00415 	stw	ra,16(sp)
  8001cc:	df000315 	stw	fp,12(sp)
  8001d0:	df000304 	addi	fp,sp,12
  8001d4:	e13ffd15 	stw	r4,-12(fp)
 * NIOS2_EXCEPTION_CAUSE_NOT_PRESENT. Your handling routine should
 * check the validity of the cause argument before proceeding.
 */
#ifdef NIOS2_HAS_EXTRA_EXCEPTION_INFO
  /* Get exception cause & "badaddr" */
  NIOS2_READ_EXCEPTION(cause);
  8001d8:	000531fa 	rdctl	r2,exception
  8001dc:	e0bfff15 	stw	r2,-4(fp)
  cause = ( (cause & NIOS2_EXCEPTION_REG_CAUSE_MASK) >>
  8001e0:	e0bfff17 	ldw	r2,-4(fp)
  8001e4:	1004d0ba 	srli	r2,r2,2
  8001e8:	108007cc 	andi	r2,r2,31
  8001ec:	e0bfff15 	stw	r2,-4(fp)
              NIOS2_EXCEPTION_REG_CAUSE_OFST );

  NIOS2_READ_BADADDR(badaddr);
  8001f0:	0005333a 	rdctl	r2,badaddr
  8001f4:	e0bffe15 	stw	r2,-8(fp)
#else
  cause = NIOS2_EXCEPTION_CAUSE_NOT_PRESENT;
  badaddr = 0;
#endif /* NIOS2_HAS_EXTRA_EXCEPTION_INFO */

  if(alt_instruction_exception_handler) {
  8001f8:	d0a75f17 	ldw	r2,-25220(gp)
  8001fc:	10000726 	beq	r2,zero,80021c <alt_instruction_exception_entry+0x58>
     * Call handler. Its return value indicates whether the exception-causing
     * instruction should be re-issued. The code that called us,
     * alt_eceptions_entry.S, will look at this value and adjust the ea
     * register as necessary
     */
    return alt_instruction_exception_handler(cause, exception_pc, badaddr);
  800200:	d0a75f17 	ldw	r2,-25220(gp)
  800204:	e0ffff17 	ldw	r3,-4(fp)
  800208:	e1bffe17 	ldw	r6,-8(fp)
  80020c:	e17ffd17 	ldw	r5,-12(fp)
  800210:	1809883a 	mov	r4,r3
  800214:	103ee83a 	callr	r2
  800218:	00000206 	br	800224 <alt_instruction_exception_entry+0x60>
   *    (a peripheral which negates its interrupt output before its
   *    interrupt handler has been executed will cause spurious interrupts)
   */
  else {
#ifdef NIOS2_HAS_DEBUG_STUB
    NIOS2_BREAK();
  80021c:	003da03a 	break	0
      ;
#endif /* NIOS2_HAS_DEBUG_STUB */
  }

  /* We should not get here. Remove compiler warning. */
  return NIOS2_EXCEPTION_RETURN_REISSUE_INST;
  800220:	0005883a 	mov	r2,zero
}
  800224:	e037883a 	mov	sp,fp
  800228:	dfc00117 	ldw	ra,4(sp)
  80022c:	df000017 	ldw	fp,0(sp)
  800230:	dec00204 	addi	sp,sp,8
  800234:	f800283a 	ret

Disassembly of section .text:

00800238 <_start>:

    /* Assume the data cache size is always a power of two. */
#if NIOS2_DCACHE_SIZE > 0x8000
    movhi r2, %hi(NIOS2_DCACHE_SIZE)
#else
    movui r2, NIOS2_DCACHE_SIZE
  800238:	00820014 	movui	r2,2048
#endif

0:
    initd 0(r2)
  80023c:	10000033 	initd	0(r2)
#ifdef NIOS2_ECC_PRESENT
    addi r2, r2, -4
#else
    addi r2, r2, -NIOS2_DCACHE_LINE_SIZE
  800240:	10bff804 	addi	r2,r2,-32
#endif
    bgt r2, zero, 0b
  800244:	00bffd16 	blt	zero,r2,80023c <_start+0x4>

    /*
     * Now that the caches are initialized, set up the stack pointer and global pointer.
     * The values provided by the linker are assumed to be correctly aligned.
     */
    movhi sp, %hi(__alt_stack_pointer)
  800248:	06c04034 	movhi	sp,256
    ori sp, sp, %lo(__alt_stack_pointer)
  80024c:	dec00014 	ori	sp,sp,0
    movhi gp, %hi(_gp)
  800250:	06802074 	movhi	gp,129
    ori gp, gp, %lo(_gp)
  800254:	d6b43014 	ori	gp,gp,53440
 */
#ifndef ALT_SIM_OPTIMIZE
    /* Log that the BSS is about to be cleared. */
    ALT_LOG_PUTS(alt_log_msg_bss)

    movhi r2, %hi(__bss_start)
  800258:	00802074 	movhi	r2,129
    ori r2, r2, %lo(__bss_start)
  80025c:	109b8414 	ori	r2,r2,28176

    movhi r3, %hi(__bss_end)
  800260:	00c02074 	movhi	r3,129
    ori r3, r3, %lo(__bss_end)
  800264:	18dbda14 	ori	r3,r3,28520

    beq r2, r3, 1f
  800268:	10c00326 	beq	r2,r3,800278 <_start+0x40>

0:
    stw zero, (r2)
  80026c:	10000015 	stw	zero,0(r2)
    addi r2, r2, 4
  800270:	10800104 	addi	r2,r2,4
    bltu r2, r3, 0b
  800274:	10fffd36 	bltu	r2,r3,80026c <_start+0x34>
     * section aren't defined until alt_load() has been called).
     */
    mov   et, zero
#endif

    call alt_load
  800278:	08104a00 	call	8104a0 <alt_load>

    /* Log that alt_main is about to be called. */
    ALT_LOG_PUTS(alt_log_msg_alt_main)

    /* Call the C entry point. It should never return. */
    call alt_main
  80027c:	08106400 	call	810640 <alt_main>

00800280 <alt_after_alt_main>:

    /* Wait in infinite loop in case alt_main does return. */
alt_after_alt_main:
    br alt_after_alt_main
  800280:	003fff06 	br	800280 <alt_after_alt_main>

00800284 <theFunction.constprop.0>:
      c_term2 = 1 / 24.0f, 
      c_term3 = - 1 / 720.0f,
      c_term4 = 1 / 40320.0f,
      c_term5 = - 1 / 3628800.0f;

float theFunction(float x[0], int M) {
  800284:	defffb04 	addi	sp,sp,-20
  800288:	dcc00315 	stw	r19,12(sp)
  80028c:	dc800215 	stw	r18,8(sp)
  800290:	dc000015 	stw	r16,0(sp)
  800294:	dfc00415 	stw	ra,16(sp)
  800298:	dc400115 	stw	r17,4(sp)
  80029c:	2021883a 	mov	r16,r4
  8002a0:	2487f904 	addi	r18,r4,8164
  float sum = 0;
  8002a4:	0027883a 	mov	r19,zero


    // sum = FP_ADD(sum, FP_ADD(FP_MUL(coeff1,x[i]), FP_MUL(FP_MUL(x[i],x[i]),cosine)));


    sum += (coeff1 * x[i] + x[i] * x[i] * cosf((x[i] - 128.0f) * coeff2));
  8002a8:	84400017 	ldw	r17,0(r16)
  8002ac:	0090c034 	movhi	r2,17152
  8002b0:	010f0034 	movhi	r4,15360
  8002b4:	8885c0b2 	custom	2,r2,r17,r2
  8002b8:	1109c032 	custom	0,r4,r2,r4
  8002bc:	08004a40 	call	8004a4 <cosf>
  8002c0:	8885c032 	custom	0,r2,r17,r2
  8002c4:	00cfc034 	movhi	r3,16128
  8002c8:	10c5c072 	custom	1,r2,r2,r3
  8002cc:	1445c032 	custom	0,r2,r2,r17
  for (; i < M; i++) 
  8002d0:	84000104 	addi	r16,r16,4
    sum += (coeff1 * x[i] + x[i] * x[i] * cosf((x[i] - 128.0f) * coeff2));
  8002d4:	98a7c072 	custom	1,r19,r19,r2
  for (; i < M; i++) 
  8002d8:	943ff31e 	bne	r18,r16,8002a8 <theFunction.constprop.0+0x24>
  }

  return sum;
}
  8002dc:	9805883a 	mov	r2,r19
  8002e0:	dfc00417 	ldw	ra,16(sp)
  8002e4:	dcc00317 	ldw	r19,12(sp)
  8002e8:	dc800217 	ldw	r18,8(sp)
  8002ec:	dc400117 	ldw	r17,4(sp)
  8002f0:	dc000017 	ldw	r16,0(sp)
  8002f4:	dec00504 	addi	sp,sp,20
  8002f8:	f800283a 	ret

008002fc <generateVector>:
  x[0] = 0;
  8002fc:	20000015 	stw	zero,0(r4)
  for (i = 1; i < N; i++) x[i] = x[i-1] + step;
  800300:	20800104 	addi	r2,r4,4
  800304:	2147f904 	addi	r5,r4,8164
  x[0] = 0;
  800308:	0007883a 	mov	r3,zero
  for (i = 1; i < N; i++) x[i] = x[i-1] + step;
  80030c:	010f8034 	movhi	r4,15872
  800310:	1907c072 	custom	1,r3,r3,r4
  800314:	10c00015 	stw	r3,0(r2)
  800318:	10800104 	addi	r2,r2,4
  80031c:	117ffb1e 	bne	r2,r5,80030c <generateVector+0x10>
}
  800320:	f800283a 	ret

00800324 <sumVector>:
  for (; i < M; i++) 
  800324:	01400a0e 	bge	zero,r5,800350 <sumVector+0x2c>
  800328:	280a90ba 	slli	r5,r5,2
  float sum = 0;
  80032c:	0005883a 	mov	r2,zero
  800330:	214d883a 	add	r6,r4,r5
    sum += (x[i] + x[i] * x[i]);
  800334:	21400017 	ldw	r5,0(r4)
  for (; i < M; i++) 
  800338:	21000104 	addi	r4,r4,4
    sum += (x[i] + x[i] * x[i]);
  80033c:	2947c032 	custom	0,r3,r5,r5
  800340:	1947c072 	custom	1,r3,r3,r5
  800344:	10c5c072 	custom	1,r2,r2,r3
  for (; i < M; i++) 
  800348:	313ffa1e 	bne	r6,r4,800334 <sumVector+0x10>
  80034c:	f800283a 	ret
  float sum = 0;
  800350:	0005883a 	mov	r2,zero
}
  800354:	f800283a 	ret

00800358 <theFunction>:
float theFunction(float x[0], int M) {
  800358:	defffb04 	addi	sp,sp,-20
  80035c:	dfc00415 	stw	ra,16(sp)
  800360:	dcc00315 	stw	r19,12(sp)
  800364:	dc800215 	stw	r18,8(sp)
  800368:	dc400115 	stw	r17,4(sp)
  80036c:	dc000015 	stw	r16,0(sp)
  for (; i < M; i++) 
  800370:	0140190e 	bge	zero,r5,8003d8 <theFunction+0x80>
  800374:	280a90ba 	slli	r5,r5,2
  800378:	2021883a 	mov	r16,r4
  float sum = 0;
  80037c:	0027883a 	mov	r19,zero
  800380:	2165883a 	add	r18,r4,r5
    sum += (coeff1 * x[i] + x[i] * x[i] * cosf((x[i] - 128.0f) * coeff2));
  800384:	84400017 	ldw	r17,0(r16)
  800388:	0090c034 	movhi	r2,17152
  80038c:	010f0034 	movhi	r4,15360
  800390:	8885c0b2 	custom	2,r2,r17,r2
  800394:	1109c032 	custom	0,r4,r2,r4
  800398:	08004a40 	call	8004a4 <cosf>
  80039c:	8885c032 	custom	0,r2,r17,r2
  8003a0:	00cfc034 	movhi	r3,16128
  8003a4:	10c5c072 	custom	1,r2,r2,r3
  8003a8:	1445c032 	custom	0,r2,r2,r17
  for (; i < M; i++) 
  8003ac:	84000104 	addi	r16,r16,4
    sum += (coeff1 * x[i] + x[i] * x[i] * cosf((x[i] - 128.0f) * coeff2));
  8003b0:	98a7c072 	custom	1,r19,r19,r2
  for (; i < M; i++) 
  8003b4:	943ff31e 	bne	r18,r16,800384 <theFunction+0x2c>
}
  8003b8:	9805883a 	mov	r2,r19
  8003bc:	dfc00417 	ldw	ra,16(sp)
  8003c0:	dcc00317 	ldw	r19,12(sp)
  8003c4:	dc800217 	ldw	r18,8(sp)
  8003c8:	dc400117 	ldw	r17,4(sp)
  8003cc:	dc000017 	ldw	r16,0(sp)
  8003d0:	dec00504 	addi	sp,sp,20
  8003d4:	f800283a 	ret
  float sum = 0;
  8003d8:	0027883a 	mov	r19,zero
  return sum;
  8003dc:	003ff606 	br	8003b8 <theFunction+0x60>

008003e0 <main>:

int main(int argc, char* argv[])
{
  const int numIterations = NUM_CASES;
  printf("Task 3!\n");
  8003e0:	01002074 	movhi	r4,129
{
  8003e4:	def80104 	addi	sp,sp,-8188
  printf("Task 3!\n");
  8003e8:	210a6704 	addi	r4,r4,10652
{
  8003ec:	dfc7fe15 	stw	ra,8184(sp)
  8003f0:	dc07fd15 	stw	r16,8180(sp)
  printf("Task 3!\n");
  8003f4:	0801d700 	call	801d70 <puts>
  // printf("Ticks per second: %ld\n", alt_ticks_per_second());
  printf("Running %d tests\n", numIterations);
  8003f8:	01002074 	movhi	r4,129
  8003fc:	01400284 	movi	r5,10
  800400:	210a6904 	addi	r4,r4,10660
  800404:	0801c700 	call	801c70 <printf>


  // Returned result
  volatile float y;

  generateVector(x);
  800408:	d9000404 	addi	r4,sp,16
  80040c:	08002fc0 	call	8002fc <generateVector>

  volatile clock_t exec_t1, exec_t2;

  // const int numIterations = 1 << TEST_REPEAT;

  exec_t1 = times(NULL);
  800410:	0009883a 	mov	r4,zero
  800414:	08109ac0 	call	8109ac <times>
  800418:	d8800115 	stw	r2,4(sp)
  80041c:	04000284 	movi	r16,10

  int y1 = 0;

  for (int i = 0; i < numIterations; i++) {
    y = theFunction(x, N);
  800420:	d9000404 	addi	r4,sp,16
  800424:	08002840 	call	800284 <theFunction.constprop.0>
  800428:	d8800015 	stw	r2,0(sp)
  for (int i = 0; i < numIterations; i++) {
  80042c:	843fffc4 	addi	r16,r16,-1
  800430:	803ffb1e 	bne	r16,zero,800420 <main+0x40>
  }

  // till here
  exec_t2 = times(NULL);
  800434:	0009883a 	mov	r4,zero
  800438:	08109ac0 	call	8109ac <times>
  80043c:	d8800215 	stw	r2,8(sp)

  volatile int elapsedTicks = (int)(exec_t2 - exec_t1);
  800440:	d8800217 	ldw	r2,8(sp)
  800444:	d8c00117 	ldw	r3,4(sp)
  printf("ElpasedTicks: %d\n", elapsedTicks);
  800448:	01002074 	movhi	r4,129
  80044c:	210a6e04 	addi	r4,r4,10680
  volatile int elapsedTicks = (int)(exec_t2 - exec_t1);
  800450:	10c5c83a 	sub	r2,r2,r3
  800454:	d8800315 	stw	r2,12(sp)
  printf("ElpasedTicks: %d\n", elapsedTicks);
  800458:	d9400317 	ldw	r5,12(sp)
  80045c:	0801c700 	call	801c70 <printf>
  printf("RESULT: %f, %x\n", y, *(int*)(&y));
  800460:	d9000017 	ldw	r4,0(sp)
  800464:	08019f00 	call	8019f0 <__extendsfdf2>
  800468:	d9c00017 	ldw	r7,0(sp)
  80046c:	01002074 	movhi	r4,129
  800470:	180d883a 	mov	r6,r3
  800474:	100b883a 	mov	r5,r2
  800478:	210a7304 	addi	r4,r4,10700
  80047c:	0801c700 	call	801c70 <printf>
  printf("Num Iterations: %d\n", y1);
  800480:	01002074 	movhi	r4,129
  800484:	000b883a 	mov	r5,zero
  800488:	210a7704 	addi	r4,r4,10716
  80048c:	0801c700 	call	801c70 <printf>
  // printf("Total ticks %d for %d iters\n", elapsedTicks , numIterations);
  // printf("Time Taken: %f\n",(float) elapsedTicks/numIterations);


  return 0;
}
  800490:	0005883a 	mov	r2,zero
  800494:	dfc7fe17 	ldw	ra,8184(sp)
  800498:	dc07fd17 	ldw	r16,8180(sp)
  80049c:	dec7ff04 	addi	sp,sp,8188
  8004a0:	f800283a 	ret

008004a4 <cosf>:
	__int32_t n,ix;

	GET_FLOAT_WORD(ix,x);

    /* |x| ~< pi/4 */
	ix &= 0x7fffffff;
  8004a4:	00a00034 	movhi	r2,32768
  8004a8:	10bfffc4 	addi	r2,r2,-1
	if(ix <= 0x3f490fd8) return __kernel_cosf(x,z);
  8004ac:	00cfd274 	movhi	r3,16201
	ix &= 0x7fffffff;
  8004b0:	1104703a 	and	r2,r2,r4
	if(ix <= 0x3f490fd8) return __kernel_cosf(x,z);
  8004b4:	18c3f604 	addi	r3,r3,4056
  8004b8:	1880150e 	bge	r3,r2,800510 <cosf+0x6c>

    /* cos(Inf or NaN) is NaN */
	else if (!FLT_UWORD_IS_FINITE(ix)) return x-x;
  8004bc:	00dfe034 	movhi	r3,32640
  8004c0:	10c00216 	blt	r2,r3,8004cc <cosf+0x28>
  8004c4:	0005883a 	mov	r2,zero
		case 2: return -__kernel_cosf(y[0],y[1]);
		default:
		        return  __kernel_sinf(y[0],y[1],1);
	    }
	}
}
  8004c8:	f800283a 	ret
{
  8004cc:	defffd04 	addi	sp,sp,-12
	    n = __ieee754_rem_pio2f(x,y);
  8004d0:	d80b883a 	mov	r5,sp
{
  8004d4:	dfc00215 	stw	ra,8(sp)
	    n = __ieee754_rem_pio2f(x,y);
  8004d8:	080053c0 	call	80053c <__ieee754_rem_pio2f>
	    switch(n&3) {
  8004dc:	108000cc 	andi	r2,r2,3
  8004e0:	10c00060 	cmpeqi	r3,r2,1
		        return  __kernel_sinf(y[0],y[1],1);
  8004e4:	d9400117 	ldw	r5,4(sp)
  8004e8:	d9000017 	ldw	r4,0(sp)
	    switch(n&3) {
  8004ec:	18000a1e 	bne	r3,zero,800518 <cosf+0x74>
  8004f0:	10c000a0 	cmpeqi	r3,r2,2
  8004f4:	18000e1e 	bne	r3,zero,800530 <cosf+0x8c>
  8004f8:	10000b26 	beq	r2,zero,800528 <cosf+0x84>
		        return  __kernel_sinf(y[0],y[1],1);
  8004fc:	01800044 	movi	r6,1
  800500:	08014740 	call	801474 <__kernel_sinf>
}
  800504:	dfc00217 	ldw	ra,8(sp)
  800508:	dec00304 	addi	sp,sp,12
  80050c:	f800283a 	ret
	if(ix <= 0x3f490fd8) return __kernel_cosf(x,z);
  800510:	000b883a 	mov	r5,zero
  800514:	080085c1 	jmpi	80085c <__kernel_cosf>
		case 1: return -__kernel_sinf(y[0],y[1],1);
  800518:	01800044 	movi	r6,1
  80051c:	08014740 	call	801474 <__kernel_sinf>
  800520:	10a0003c 	xorhi	r2,r2,32768
  800524:	003ff706 	br	800504 <cosf+0x60>
		case 0: return  __kernel_cosf(y[0],y[1]);
  800528:	080085c0 	call	80085c <__kernel_cosf>
  80052c:	003ff506 	br	800504 <cosf+0x60>
		case 2: return -__kernel_cosf(y[0],y[1]);
  800530:	080085c0 	call	80085c <__kernel_cosf>
  800534:	10a0003c 	xorhi	r2,r2,32768
  800538:	003ff206 	br	800504 <cosf+0x60>

0080053c <__ieee754_rem_pio2f>:
	__int32_t __ieee754_rem_pio2f(float x, float *y)
#else
	__int32_t __ieee754_rem_pio2f(x,y)
	float x,y[];
#endif
{
  80053c:	defff504 	addi	sp,sp,-44
  800540:	dc000515 	stw	r16,20(sp)
	float tx[3];
	__int32_t i,j,n,ix,hx;
	int e0,nx;

	GET_FLOAT_WORD(hx,x);
	ix = hx&0x7fffffff;
  800544:	04200034 	movhi	r16,32768
  800548:	843fffc4 	addi	r16,r16,-1
	if(ix<=0x3f490fd8)   /* |x| ~<= pi/4 , no need for reduction */
  80054c:	008fd274 	movhi	r2,16201
{
  800550:	dc400615 	stw	r17,24(sp)
  800554:	dfc00a15 	stw	ra,40(sp)
  800558:	dd000915 	stw	r20,36(sp)
  80055c:	dcc00815 	stw	r19,32(sp)
  800560:	dc800715 	stw	r18,28(sp)
	ix = hx&0x7fffffff;
  800564:	8120703a 	and	r16,r16,r4
	if(ix<=0x3f490fd8)   /* |x| ~<= pi/4 , no need for reduction */
  800568:	1083f604 	addi	r2,r2,4056
{
  80056c:	2823883a 	mov	r17,r5
	if(ix<=0x3f490fd8)   /* |x| ~<= pi/4 , no need for reduction */
  800570:	1400430e 	bge	r2,r16,800680 <__ieee754_rem_pio2f+0x144>
	    {y[0] = x; y[1] = 0; return 0;}
	if(ix<0x4016cbe4) {  /* |x| < 3pi/4, special case with n=+-1 */
  800574:	009005f4 	movhi	r2,16407
  800578:	10b2f8c4 	addi	r2,r2,-13341
  80057c:	2025883a 	mov	r18,r4
  800580:	14001716 	blt	r2,r16,8005e0 <__ieee754_rem_pio2f+0xa4>
	    if(hx>0) { 
		z = x - pio2_1;
		if((ix&0xfffffff0)!=0x3fc90fd0) { /* 24+24 bit pi OK */
  800584:	00bffc04 	movi	r2,-16
  800588:	80a0703a 	and	r16,r16,r2
	    if(hx>0) { 
  80058c:	0100a30e 	bge	zero,r4,80081c <__ieee754_rem_pio2f+0x2e0>
		    y[0] = z - pio2_1t;
  800590:	00cff274 	movhi	r3,16329
		if((ix&0xfffffff0)!=0x3fc90fd0) { /* 24+24 bit pi OK */
  800594:	008ff274 	movhi	r2,16329
		    y[0] = z - pio2_1t;
  800598:	18c3f6c4 	addi	r3,r3,4059
		if((ix&0xfffffff0)!=0x3fc90fd0) { /* 24+24 bit pi OK */
  80059c:	1083f404 	addi	r2,r2,4048
		    y[0] = z - pio2_1t;
  8005a0:	20c9c0b2 	custom	2,r4,r4,r3
		if((ix&0xfffffff0)!=0x3fc90fd0) { /* 24+24 bit pi OK */
  8005a4:	80806e26 	beq	r16,r2,800760 <__ieee754_rem_pio2f+0x224>
		    y[1] = (z-y[0])-pio2_1t;
  8005a8:	008ccf34 	movhi	r2,13116
  8005ac:	10af4004 	addi	r2,r2,-17152
		    y[0] = z - pio2_1t;
  8005b0:	29000015 	stw	r4,0(r5)
		    y[1] = (z-y[0])-pio2_1t;
  8005b4:	28800115 	stw	r2,4(r5)
		} else {		/* near pi/2, use 24+24+24 bit pi */
		    z -= pio2_2;
		    y[0] = z - pio2_2t;
		    y[1] = (z-y[0])-pio2_2t;
		}
		return 1;
  8005b8:	04c00044 	movi	r19,1
	nx = 3;
	while(tx[nx-1]==zero) nx--;	/* skip zero term */
	n  =  __kernel_rem_pio2f(tx,y,e0,nx,2,two_over_pi);
	if(hx<0) {y[0] = -y[0]; y[1] = -y[1]; return -n;}
	return n;
}
  8005bc:	9805883a 	mov	r2,r19
  8005c0:	dfc00a17 	ldw	ra,40(sp)
  8005c4:	dd000917 	ldw	r20,36(sp)
  8005c8:	dcc00817 	ldw	r19,32(sp)
  8005cc:	dc800717 	ldw	r18,28(sp)
  8005d0:	dc400617 	ldw	r17,24(sp)
  8005d4:	dc000517 	ldw	r16,20(sp)
  8005d8:	dec00b04 	addi	sp,sp,44
  8005dc:	f800283a 	ret
	if(ix<=0x43490f80) { /* |x| ~<= 2^7*(pi/2), medium size */
  8005e0:	0090d274 	movhi	r2,17225
  8005e4:	1083e004 	addi	r2,r2,3968
  8005e8:	14002916 	blt	r2,r16,800690 <__ieee754_rem_pio2f+0x154>
	    n  = (__int32_t) (t*invpio2+half);
  8005ec:	010fc8f4 	movhi	r4,16163
  8005f0:	213e6104 	addi	r4,r4,-1660
  8005f4:	008fc034 	movhi	r2,16128
  8005f8:	8109c032 	custom	0,r4,r16,r4
  8005fc:	2089c072 	custom	1,r4,r4,r2
  800600:	080185c0 	call	80185c <__fixsfsi>
	    fn = (float)n;
  800604:	1009883a 	mov	r4,r2
	    n  = (__int32_t) (t*invpio2+half);
  800608:	1027883a 	mov	r19,r2
	    fn = (float)n;
  80060c:	08018cc0 	call	8018cc <__floatsisf>
	    r  = t-fn*pio2_1;
  800610:	00cff274 	movhi	r3,16329
  800614:	18c3e004 	addi	r3,r3,3968
	    w  = fn*pio2_1t;	/* 1st round good to 40 bit */
  800618:	014dcd74 	movhi	r5,14133
	    r  = t-fn*pio2_1;
  80061c:	10c7c032 	custom	0,r3,r2,r3
	    w  = fn*pio2_1t;	/* 1st round good to 40 bit */
  800620:	295110c4 	addi	r5,r5,17475
	    r  = t-fn*pio2_1;
  800624:	80c9c0b2 	custom	2,r4,r16,r3
	    w  = fn*pio2_1t;	/* 1st round good to 40 bit */
  800628:	114bc032 	custom	0,r5,r2,r5
	    if(n<32&&(ix&0xffffff00)!=npio2_hw[n-1]) {	
  80062c:	99800808 	cmpgei	r6,r19,32
	    t  = fabsf(x);
  800630:	8029883a 	mov	r20,r16
		y[0] = r-w;	/* quick check no cancellation */
  800634:	2151c0b2 	custom	2,r8,r4,r5
	    if(n<32&&(ix&0xffffff00)!=npio2_hw[n-1]) {	
  800638:	30004f1e 	bne	r6,zero,800778 <__ieee754_rem_pio2f+0x23c>
  80063c:	980e90ba 	slli	r7,r19,2
  800640:	01802074 	movhi	r6,129
  800644:	398d883a 	add	r6,r7,r6
  800648:	31ca7b17 	ldw	r7,10732(r6)
  80064c:	01bfc004 	movi	r6,-256
  800650:	818c703a 	and	r6,r16,r6
  800654:	31c04826 	beq	r6,r7,800778 <__ieee754_rem_pio2f+0x23c>
		y[0] = r-w;	/* quick check no cancellation */
  800658:	8a000015 	stw	r8,0(r17)
	    y[1] = (r-y[0])-w;
  80065c:	88000115 	stw	zero,4(r17)
	    if(hx<0) 	{y[0] = -y[0]; y[1] = -y[1]; return -n;}
  800660:	903fd60e 	bge	r18,zero,8005bc <__ieee754_rem_pio2f+0x80>
  800664:	2a0bc072 	custom	1,r5,r5,r8
  800668:	40e0003c 	xorhi	r3,r8,32768
  80066c:	290bc0b2 	custom	2,r5,r5,r4
  800670:	88c00015 	stw	r3,0(r17)
  800674:	89400115 	stw	r5,4(r17)
  800678:	04e7c83a 	sub	r19,zero,r19
  80067c:	003fcf06 	br	8005bc <__ieee754_rem_pio2f+0x80>
	    {y[0] = x; y[1] = 0; return 0;}
  800680:	29000015 	stw	r4,0(r5)
  800684:	28000115 	stw	zero,4(r5)
  800688:	0027883a 	mov	r19,zero
  80068c:	003fcb06 	br	8005bc <__ieee754_rem_pio2f+0x80>
	if(!FLT_UWORD_IS_FINITE(ix)) {
  800690:	009fe034 	movhi	r2,32640
  800694:	8080550e 	bge	r16,r2,8007ec <__ieee754_rem_pio2f+0x2b0>
	e0 	= (int)((ix>>23)-134);	/* e0 = ilogb(z)-7; */
  800698:	8027d5fa 	srai	r19,r16,23
  80069c:	9cffde84 	addi	r19,r19,-134
	SET_FLOAT_WORD(z, ix - ((__int32_t)e0<<23));
  8006a0:	980895fa 	slli	r4,r19,23
  8006a4:	8109c83a 	sub	r4,r16,r4
  8006a8:	2021883a 	mov	r16,r4
		tx[i] = (float)((__int32_t)(z));
  8006ac:	080185c0 	call	80185c <__fixsfsi>
  8006b0:	1009883a 	mov	r4,r2
  8006b4:	08018cc0 	call	8018cc <__floatsisf>
		z     = (z-tx[i])*two8;
  8006b8:	00d0e034 	movhi	r3,17280
  8006bc:	80a1c0b2 	custom	2,r16,r16,r2
  8006c0:	80e1c032 	custom	0,r16,r16,r3
		tx[i] = (float)((__int32_t)(z));
  8006c4:	8009883a 	mov	r4,r16
  8006c8:	d8800215 	stw	r2,8(sp)
  8006cc:	080185c0 	call	80185c <__fixsfsi>
  8006d0:	1009883a 	mov	r4,r2
  8006d4:	08018cc0 	call	8018cc <__floatsisf>
  8006d8:	1029883a 	mov	r20,r2
		z     = (z-tx[i])*two8;
  8006dc:	80a1c0b2 	custom	2,r16,r16,r2
  8006e0:	0090e034 	movhi	r2,17280
  8006e4:	80a1c032 	custom	0,r16,r16,r2
	while(tx[nx-1]==zero) nx--;	/* skip zero term */
  8006e8:	000b883a 	mov	r5,zero
  8006ec:	8009883a 	mov	r4,r16
		tx[i] = (float)((__int32_t)(z));
  8006f0:	dd000315 	stw	r20,12(sp)
	tx[2] = z;
  8006f4:	dc000415 	stw	r16,16(sp)
	while(tx[nx-1]==zero) nx--;	/* skip zero term */
  8006f8:	08017340 	call	801734 <__eqsf2>
  8006fc:	1000451e 	bne	r2,zero,800814 <__ieee754_rem_pio2f+0x2d8>
  800700:	000b883a 	mov	r5,zero
  800704:	a009883a 	mov	r4,r20
  800708:	08017340 	call	801734 <__eqsf2>
  80070c:	10003f1e 	bne	r2,zero,80080c <__ieee754_rem_pio2f+0x2d0>
  800710:	01c00044 	movi	r7,1
	n  =  __kernel_rem_pio2f(tx,y,e0,nx,2,two_over_pi);
  800714:	00802074 	movhi	r2,129
  800718:	108a9c04 	addi	r2,r2,10864
  80071c:	d8800115 	stw	r2,4(sp)
  800720:	00800084 	movi	r2,2
  800724:	980d883a 	mov	r6,r19
  800728:	d8800015 	stw	r2,0(sp)
  80072c:	880b883a 	mov	r5,r17
  800730:	d9000204 	addi	r4,sp,8
  800734:	08009bc0 	call	8009bc <__kernel_rem_pio2f>
  800738:	1027883a 	mov	r19,r2
	if(hx<0) {y[0] = -y[0]; y[1] = -y[1]; return -n;}
  80073c:	903f9f0e 	bge	r18,zero,8005bc <__ieee754_rem_pio2f+0x80>
  800740:	88c00017 	ldw	r3,0(r17)
  800744:	88800117 	ldw	r2,4(r17)
  800748:	04e7c83a 	sub	r19,zero,r19
  80074c:	18e0003c 	xorhi	r3,r3,32768
  800750:	10a0003c 	xorhi	r2,r2,32768
  800754:	88c00015 	stw	r3,0(r17)
  800758:	88800115 	stw	r2,4(r17)
  80075c:	003f9706 	br	8005bc <__ieee754_rem_pio2f+0x80>
		    y[1] = (z-y[0])-pio2_2t;
  800760:	00aba1b4 	movhi	r2,44678
  800764:	10a8c204 	addi	r2,r2,-23800
		    y[0] = z - pio2_2t;
  800768:	29000015 	stw	r4,0(r5)
		    y[1] = (z-y[0])-pio2_2t;
  80076c:	28800115 	stw	r2,4(r5)
		return 1;
  800770:	04c00044 	movi	r19,1
  800774:	003f9106 	br	8005bc <__ieee754_rem_pio2f+0x80>
	        i = j-((high>>23)&0xff);
  800778:	400cd5fa 	srli	r6,r8,23
	        j  = ix>>23;
  80077c:	8021d5fa 	srai	r16,r16,23
	        y[0] = r-w; 
  800780:	8a000015 	stw	r8,0(r17)
	        i = j-((high>>23)&0xff);
  800784:	31803fcc 	andi	r6,r6,255
  800788:	818dc83a 	sub	r6,r16,r6
	        if(i>8) {  /* 2nd iteration needed, good to 57 */
  80078c:	31c00250 	cmplti	r7,r6,9
  800790:	383fb21e 	bne	r7,zero,80065c <__ieee754_rem_pio2f+0x120>
		    w  = fn*pio2_2;	
  800794:	01cdcd74 	movhi	r7,14133
  800798:	39d10004 	addi	r7,r7,17408
  80079c:	11cfc032 	custom	0,r7,r2,r7
		    if(i>25)  {	/* 3rd iteration need, 74 bits acc */
  8007a0:	31800688 	cmpgei	r6,r6,26
		    r  = t-w;
  8007a4:	21d3c0b2 	custom	2,r9,r4,r7
		    w  = fn*pio2_2t-((t-r)-w);	
  8007a8:	1d07c0b2 	custom	2,r3,r3,r20
		    if(i>25)  {	/* 3rd iteration need, 74 bits acc */
  8007ac:	30001326 	beq	r6,zero,8007fc <__ieee754_rem_pio2f+0x2c0>
		    	w  = fn*pio2_3;	
  8007b0:	014ba1b4 	movhi	r5,11910
  8007b4:	2968c004 	addi	r5,r5,-23808
		    	w  = fn*pio2_3t-((t-r)-w);	
  8007b8:	01892374 	movhi	r6,9357
		    	w  = fn*pio2_3;	
  8007bc:	1151c032 	custom	0,r8,r2,r5
		    	w  = fn*pio2_3t-((t-r)-w);	
  8007c0:	318c4c84 	addi	r6,r6,12594
  8007c4:	3a0bc072 	custom	1,r5,r7,r8
  8007c8:	118dc032 	custom	0,r6,r2,r6
  8007cc:	298bc072 	custom	1,r5,r5,r6
		    	r  = t-w;
  8007d0:	4a13c0b2 	custom	2,r9,r9,r8
		    	y[0] = r-w;
  8007d4:	2151c0b2 	custom	2,r8,r4,r5
		    	w  = fn*pio2_3t-((t-r)-w);	
  8007d8:	194bc072 	custom	1,r5,r3,r5
  8007dc:	2a4bc072 	custom	1,r5,r5,r9
		    	y[0] = r-w;
  8007e0:	8a000015 	stw	r8,0(r17)
		    	r  = t-w;
  8007e4:	4809883a 	mov	r4,r9
  8007e8:	003f9c06 	br	80065c <__ieee754_rem_pio2f+0x120>
	    y[0]=y[1]=x-x; return 0;
  8007ec:	28000115 	stw	zero,4(r5)
  8007f0:	28000015 	stw	zero,0(r5)
  8007f4:	0027883a 	mov	r19,zero
  8007f8:	003f7006 	br	8005bc <__ieee754_rem_pio2f+0x80>
  8007fc:	194bc072 	custom	1,r5,r3,r5
		    w  = fn*pio2_2t-((t-r)-w);	
  800800:	494bc072 	custom	1,r5,r9,r5
		    r  = t-w;
  800804:	4809883a 	mov	r4,r9
  800808:	003f9406 	br	80065c <__ieee754_rem_pio2f+0x120>
	while(tx[nx-1]==zero) nx--;	/* skip zero term */
  80080c:	01c00084 	movi	r7,2
  800810:	003fc006 	br	800714 <__ieee754_rem_pio2f+0x1d8>
	nx = 3;
  800814:	01c000c4 	movi	r7,3
  800818:	003fbe06 	br	800714 <__ieee754_rem_pio2f+0x1d8>
		    y[0] = z + pio2_1t;
  80081c:	008ff274 	movhi	r2,16329
		if((ix&0xfffffff0)!=0x3fc90fd0) { /* 24+24 bit pi OK */
  800820:	00cff274 	movhi	r3,16329
		    y[0] = z + pio2_1t;
  800824:	1083f6c4 	addi	r2,r2,4059
		if((ix&0xfffffff0)!=0x3fc90fd0) { /* 24+24 bit pi OK */
  800828:	18c3f404 	addi	r3,r3,4048
		    y[0] = z + pio2_1t;
  80082c:	2085c072 	custom	1,r2,r4,r2
		if((ix&0xfffffff0)!=0x3fc90fd0) { /* 24+24 bit pi OK */
  800830:	80c00426 	beq	r16,r3,800844 <__ieee754_rem_pio2f+0x308>
		    y[0] = z + pio2_1t;
  800834:	28800015 	stw	r2,0(r5)
		    y[1] = (z-y[0])+pio2_1t;
  800838:	28000115 	stw	zero,4(r5)
		return -1;
  80083c:	04ffffc4 	movi	r19,-1
  800840:	003f5e06 	br	8005bc <__ieee754_rem_pio2f+0x80>
		    y[1] = (z-y[0])+pio2_2t;
  800844:	00cba1b4 	movhi	r3,11910
  800848:	18e8c204 	addi	r3,r3,-23800
		    y[0] = z + pio2_2t;
  80084c:	28800015 	stw	r2,0(r5)
		    y[1] = (z-y[0])+pio2_2t;
  800850:	28c00115 	stw	r3,4(r5)
		return -1;
  800854:	04ffffc4 	movi	r19,-1
  800858:	003f5806 	br	8005bc <__ieee754_rem_pio2f+0x80>

0080085c <__kernel_cosf>:
#endif
{
	float a,hz,z,r,qx;
	__int32_t ix;
	GET_FLOAT_WORD(ix,x);
	ix &= 0x7fffffff;			/* ix = |x|'s high word*/
  80085c:	00a00034 	movhi	r2,32768
{
  800860:	defffd04 	addi	sp,sp,-12
	ix &= 0x7fffffff;			/* ix = |x|'s high word*/
  800864:	10bfffc4 	addi	r2,r2,-1
{
  800868:	dc400115 	stw	r17,4(sp)
  80086c:	dc000015 	stw	r16,0(sp)
	ix &= 0x7fffffff;			/* ix = |x|'s high word*/
  800870:	110c703a 	and	r6,r2,r4
{
  800874:	dfc00215 	stw	ra,8(sp)
	if(ix<0x32000000) {			/* if x < 2**27 */
  800878:	008c8034 	movhi	r2,12800
{
  80087c:	2021883a 	mov	r16,r4
  800880:	2823883a 	mov	r17,r5
	if(ix<0x32000000) {			/* if x < 2**27 */
  800884:	3080230e 	bge	r6,r2,800914 <__kernel_cosf+0xb8>
	    if(((int)x)==0) return one;		/* generate inexact */
  800888:	080185c0 	call	80185c <__fixsfsi>
  80088c:	10004926 	beq	r2,zero,8009b4 <__kernel_cosf+0x158>
	}
	z  = x*x;
	r  = z*(C1+z*(C2+z*(C3+z*(C4+z*(C5+z*C6)))));
  800890:	00ab5234 	movhi	r2,44360
	z  = x*x;
  800894:	8407c032 	custom	0,r3,r16,r16
	r  = z*(C1+z*(C2+z*(C3+z*(C4+z*(C5+z*C6)))));
  800898:	10b5d384 	addi	r2,r2,-10418
  80089c:	010c43f4 	movhi	r4,12559
  8008a0:	1885c032 	custom	0,r2,r3,r2
  8008a4:	211d3d84 	addi	r4,r4,29942
  8008a8:	1105c072 	custom	1,r2,r2,r4
  8008ac:	010d2534 	movhi	r4,13460
  8008b0:	10c5c032 	custom	0,r2,r2,r3
  8008b4:	213c9f04 	addi	r4,r4,-3460
  8008b8:	1105c0b2 	custom	2,r2,r2,r4
  8008bc:	010df434 	movhi	r4,14288
  8008c0:	10c5c032 	custom	0,r2,r2,r3
  8008c4:	21034044 	addi	r4,r4,3329
  8008c8:	1105c072 	custom	1,r2,r2,r4
  8008cc:	010eadb4 	movhi	r4,15030
  8008d0:	10c5c032 	custom	0,r2,r2,r3
  8008d4:	2102d844 	addi	r4,r4,2913
  8008d8:	1105c0b2 	custom	2,r2,r2,r4
  8008dc:	010f4af4 	movhi	r4,15659
  8008e0:	10c5c032 	custom	0,r2,r2,r3
  8008e4:	212aaac4 	addi	r4,r4,-21845
  8008e8:	1105c072 	custom	1,r2,r2,r4
	    } else {
	        SET_FLOAT_WORD(qx,ix-0x01000000);	/* x/4 */
	    }
	    hz = (float)0.5*z-qx;
	    a  = one-qx;
	    return a - (hz - (z*r-x*y));
  8008ec:	8463c032 	custom	0,r17,r16,r17
  8008f0:	18c9c032 	custom	0,r4,r3,r3
	    hz = (float)0.5*z-qx;
  8008f4:	014fc034 	movhi	r5,16128
  8008f8:	040fe034 	movhi	r16,16256
  8008fc:	1947c032 	custom	0,r3,r3,r5
	    return a - (hz - (z*r-x*y));
  800900:	1105c032 	custom	0,r2,r2,r4
  800904:	8461c0b2 	custom	2,r16,r16,r17
	    return one - ((float)0.5*z - (z*r - x*y));
  800908:	1405c072 	custom	1,r2,r2,r16
  80090c:	10c5c0b2 	custom	2,r2,r2,r3
  800910:	00002306 	br	8009a0 <__kernel_cosf+0x144>
	r  = z*(C1+z*(C2+z*(C3+z*(C4+z*(C5+z*C6)))));
  800914:	00ab5234 	movhi	r2,44360
	z  = x*x;
  800918:	2107c032 	custom	0,r3,r4,r4
	r  = z*(C1+z*(C2+z*(C3+z*(C4+z*(C5+z*C6)))));
  80091c:	10b5d384 	addi	r2,r2,-10418
  800920:	010c43f4 	movhi	r4,12559
  800924:	1885c032 	custom	0,r2,r3,r2
  800928:	211d3d84 	addi	r4,r4,29942
  80092c:	1105c072 	custom	1,r2,r2,r4
  800930:	010d2534 	movhi	r4,13460
  800934:	10c5c032 	custom	0,r2,r2,r3
  800938:	213c9f04 	addi	r4,r4,-3460
  80093c:	1105c0b2 	custom	2,r2,r2,r4
  800940:	010df434 	movhi	r4,14288
  800944:	10c5c032 	custom	0,r2,r2,r3
  800948:	21034044 	addi	r4,r4,3329
  80094c:	1105c072 	custom	1,r2,r2,r4
  800950:	010eadb4 	movhi	r4,15030
  800954:	10c5c032 	custom	0,r2,r2,r3
  800958:	2102d844 	addi	r4,r4,2913
  80095c:	1105c0b2 	custom	2,r2,r2,r4
  800960:	014f4af4 	movhi	r5,15659
  800964:	10c5c032 	custom	0,r2,r2,r3
  800968:	296aaac4 	addi	r5,r5,-21845
	if(ix < 0x3e99999a) 			/* if |x| < 0.3 */ 
  80096c:	010fa6b4 	movhi	r4,16026
	r  = z*(C1+z*(C2+z*(C3+z*(C4+z*(C5+z*C6)))));
  800970:	1145c072 	custom	1,r2,r2,r5
	    return a - (hz - (z*r-x*y));
  800974:	8463c032 	custom	0,r17,r16,r17
  800978:	18cbc032 	custom	0,r5,r3,r3
	    hz = (float)0.5*z-qx;
  80097c:	01cfc034 	movhi	r7,16128
  800980:	040fe034 	movhi	r16,16256
	if(ix < 0x3e99999a) 			/* if |x| < 0.3 */ 
  800984:	21266644 	addi	r4,r4,-26215
	    hz = (float)0.5*z-qx;
  800988:	19c7c032 	custom	0,r3,r3,r7
	    return a - (hz - (z*r-x*y));
  80098c:	1145c032 	custom	0,r2,r2,r5
  800990:	8461c0b2 	custom	2,r16,r16,r17
	if(ix < 0x3e99999a) 			/* if |x| < 0.3 */ 
  800994:	21bfdc0e 	bge	r4,r6,800908 <__kernel_cosf+0xac>
	    return a - (hz - (z*r-x*y));
  800998:	80c7c0b2 	custom	2,r3,r16,r3
  80099c:	1885c072 	custom	1,r2,r3,r2
	}
}
  8009a0:	dfc00217 	ldw	ra,8(sp)
  8009a4:	dc400117 	ldw	r17,4(sp)
  8009a8:	dc000017 	ldw	r16,0(sp)
  8009ac:	dec00304 	addi	sp,sp,12
  8009b0:	f800283a 	ret
	    if(((int)x)==0) return one;		/* generate inexact */
  8009b4:	008fe034 	movhi	r2,16256
  8009b8:	003ff906 	br	8009a0 <__kernel_cosf+0x144>

008009bc <__kernel_rem_pio2f>:
	int __kernel_rem_pio2f(float *x, float *y, int e0, int nx, int prec, const __int32_t *ipio2) 
#else
	int __kernel_rem_pio2f(x,y,e0,nx,prec,ipio2) 	
	float x[], y[]; int e0,nx,prec; __int32_t ipio2[];
#endif
{
  8009bc:	deff9604 	addi	sp,sp,-424
	__int32_t jz,jx,jv,jp,jk,carry,n,iq[20],i,j,k,m,q0,ih;
	float z,fw,f[20],fq[20],q[20];

    /* initialize jk*/
	jk = init_jk[prec];
  8009c0:	d8806a17 	ldw	r2,424(sp)
{
  8009c4:	dfc06915 	stw	ra,420(sp)
  8009c8:	df006815 	stw	fp,416(sp)
	jk = init_jk[prec];
  8009cc:	100690ba 	slli	r3,r2,2
  8009d0:	00802074 	movhi	r2,129
{
  8009d4:	ddc06715 	stw	r23,412(sp)
	jk = init_jk[prec];
  8009d8:	1885883a 	add	r2,r3,r2
  8009dc:	108b6217 	ldw	r2,11656(r2)
{
  8009e0:	dd806615 	stw	r22,408(sp)
  8009e4:	dd406515 	stw	r21,404(sp)
	jk = init_jk[prec];
  8009e8:	d8800315 	stw	r2,12(sp)
	jp = jk;

    /* determine jx,jv,q0, note that 3>q0 */
	jx =  nx-1;
  8009ec:	38bfffc4 	addi	r2,r7,-1
{
  8009f0:	dd006415 	stw	r20,400(sp)
  8009f4:	dcc06315 	stw	r19,396(sp)
  8009f8:	dc806215 	stw	r18,392(sp)
  8009fc:	dc406115 	stw	r17,388(sp)
  800a00:	dc006015 	stw	r16,384(sp)
  800a04:	d9800f15 	stw	r6,60(sp)
  800a08:	d9c00715 	stw	r7,28(sp)
	jv = (e0-3)/8; if(jv<0) jv=0;
  800a0c:	30ffff10 	cmplti	r3,r6,-4
{
  800a10:	d9000015 	stw	r4,0(sp)
  800a14:	d9400b15 	stw	r5,44(sp)
	jx =  nx-1;
  800a18:	d8800615 	stw	r2,24(sp)
	jv = (e0-3)/8; if(jv<0) jv=0;
  800a1c:	1802031e 	bne	r3,zero,80122c <__kernel_rem_pio2f+0x870>
  800a20:	30bfff44 	addi	r2,r6,-3
  800a24:	10025616 	blt	r2,zero,801380 <__kernel_rem_pio2f+0x9c4>
  800a28:	1005d0fa 	srai	r2,r2,3
  800a2c:	d8800515 	stw	r2,20(sp)
	q0 =  e0-8*(jv+1);
  800a30:	10800044 	addi	r2,r2,1
  800a34:	100490fa 	slli	r2,r2,3
  800a38:	d8800c15 	stw	r2,48(sp)
  800a3c:	1009883a 	mov	r4,r2

    /* set up f[0] to f[jx+jk] where f[jx+jk] = ipio2[jv+jk] */
	j = jv-jx; m = jx+jk;
  800a40:	d8c00317 	ldw	r3,12(sp)
  800a44:	d8800617 	ldw	r2,24(sp)
  800a48:	18a1883a 	add	r16,r3,r2
	q0 =  e0-8*(jv+1);
  800a4c:	d8c00f17 	ldw	r3,60(sp)
  800a50:	1907c83a 	sub	r3,r3,r4
  800a54:	d8c00215 	stw	r3,8(sp)
	j = jv-jx; m = jx+jk;
  800a58:	d8c00517 	ldw	r3,20(sp)
  800a5c:	1885c83a 	sub	r2,r3,r2
	for(i=0;i<=m;i++,j++) f[i] = (j<0)? zero : (float) ipio2[j];
  800a60:	80001b16 	blt	r16,zero,800ad0 <__kernel_rem_pio2f+0x114>
  800a64:	1001e60e 	bge	r2,zero,801200 <__kernel_rem_pio2f+0x844>
  800a68:	81000044 	addi	r4,r16,1
  800a6c:	2089883a 	add	r4,r4,r2
  800a70:	0100010e 	bge	zero,r4,800a78 <__kernel_rem_pio2f+0xbc>
  800a74:	0009883a 	mov	r4,zero
  800a78:	dc802404 	addi	r18,sp,144
  800a7c:	01400044 	movi	r5,1
  800a80:	9007883a 	mov	r3,r18
  800a84:	288bc83a 	sub	r5,r5,r2
  800a88:	18000015 	stw	zero,0(r3)
  800a8c:	28a7883a 	add	r19,r5,r2
  800a90:	10800044 	addi	r2,r2,1
  800a94:	18c00104 	addi	r3,r3,4
  800a98:	113ffb16 	blt	r2,r4,800a88 <__kernel_rem_pio2f+0xcc>
  800a9c:	84c00c16 	blt	r16,r19,800ad0 <__kernel_rem_pio2f+0x114>
  800aa0:	100490ba 	slli	r2,r2,2
  800aa4:	980690ba 	slli	r3,r19,2
  800aa8:	d9006b17 	ldw	r4,428(sp)
  800aac:	90e5883a 	add	r18,r18,r3
  800ab0:	20a3883a 	add	r17,r4,r2
  800ab4:	89000017 	ldw	r4,0(r17)
  800ab8:	9cc00044 	addi	r19,r19,1
  800abc:	8c400104 	addi	r17,r17,4
  800ac0:	08018cc0 	call	8018cc <__floatsisf>
  800ac4:	90800015 	stw	r2,0(r18)
  800ac8:	94800104 	addi	r18,r18,4
  800acc:	84fff90e 	bge	r16,r19,800ab4 <__kernel_rem_pio2f+0xf8>

    /* compute q[0],q[1],...q[jk] */
	for (i=0;i<=jk;i++) {
  800ad0:	d8800317 	ldw	r2,12(sp)
  800ad4:	10001c16 	blt	r2,zero,800b48 <__kernel_rem_pio2f+0x18c>
  800ad8:	db000617 	ldw	r12,24(sp)
  800adc:	d8c02404 	addi	r3,sp,144
  800ae0:	db400017 	ldw	r13,0(sp)
  800ae4:	601090ba 	slli	r8,r12,2
  800ae8:	da804c04 	addi	r10,sp,304
  800aec:	6013883a 	mov	r9,r12
  800af0:	41c00104 	addi	r7,r8,4
  800af4:	1a11883a 	add	r8,r3,r8
  800af8:	d8c00717 	ldw	r3,28(sp)
  800afc:	3b4f883a 	add	r7,r7,r13
  800b00:	10d7883a 	add	r11,r2,r3
	    for(j=0,fw=0.0;j<=jx;j++) fw += x[j]*f[jx+i-j];
  800b04:	000b883a 	mov	r5,zero
  800b08:	60000a16 	blt	r12,zero,800b34 <__kernel_rem_pio2f+0x178>
  800b0c:	4009883a 	mov	r4,r8
  800b10:	6805883a 	mov	r2,r13
  800b14:	000b883a 	mov	r5,zero
  800b18:	10c00017 	ldw	r3,0(r2)
  800b1c:	21800017 	ldw	r6,0(r4)
  800b20:	10800104 	addi	r2,r2,4
  800b24:	213fff04 	addi	r4,r4,-4
  800b28:	1987c032 	custom	0,r3,r3,r6
  800b2c:	28cbc072 	custom	1,r5,r5,r3
  800b30:	11fff91e 	bne	r2,r7,800b18 <__kernel_rem_pio2f+0x15c>
	    q[i] = fw;
  800b34:	51400015 	stw	r5,0(r10)
	for (i=0;i<=jk;i++) {
  800b38:	4a400044 	addi	r9,r9,1
  800b3c:	52800104 	addi	r10,r10,4
  800b40:	42000104 	addi	r8,r8,4
  800b44:	4affef1e 	bne	r9,r11,800b04 <__kernel_rem_pio2f+0x148>
    /* check if recomputation is needed */
	if(z==zero) {
	    j = 0;
	    for (i=jz-1;i>=jk;i--) j |= iq[i];
	    if(j==0) { /* need recomputation */
		for(k=1;iq[jk-k]==0;k++);   /* k = no. of terms needed */
  800b48:	dc000317 	ldw	r16,12(sp)
  800b4c:	d8c00717 	ldw	r3,28(sp)
	        switch(q0) {
  800b50:	d9000217 	ldw	r4,8(sp)
  800b54:	802890ba 	slli	r20,r16,2
  800b58:	180e90ba 	slli	r7,r3,2
  800b5c:	d8c01004 	addi	r3,sp,64
  800b60:	1d29883a 	add	r20,r3,r20
  800b64:	d8c00017 	ldw	r3,0(sp)
		for(k=1;iq[jk-k]==0;k++);   /* k = no. of terms needed */
  800b68:	80bfffc4 	addi	r2,r16,-1
  800b6c:	100490ba 	slli	r2,r2,2
  800b70:	19ef883a 	add	r23,r3,r7
	        switch(q0) {
  800b74:	20c00060 	cmpeqi	r3,r4,1
  800b78:	d8c00d15 	stw	r3,52(sp)
  800b7c:	20c000a0 	cmpeqi	r3,r4,2
  800b80:	d8c00e15 	stw	r3,56(sp)
	    i  = (iq[jz-1]>>(8-q0)); n += i;
  800b84:	00c00204 	movi	r3,8
  800b88:	1907c83a 	sub	r3,r3,r4
  800b8c:	d8c00915 	stw	r3,36(sp)
	    ih = iq[jz-1]>>(7-q0);
  800b90:	00c001c4 	movi	r3,7
  800b94:	1907c83a 	sub	r3,r3,r4
  800b98:	d8c00a15 	stw	r3,40(sp)
		for(k=1;iq[jk-k]==0;k++);   /* k = no. of terms needed */
  800b9c:	d8c06004 	addi	r3,sp,384
  800ba0:	1885883a 	add	r2,r3,r2
  800ba4:	dcc04c04 	addi	r19,sp,304
  800ba8:	d8800815 	stw	r2,32(sp)
  800bac:	b82b883a 	mov	r21,r23
	for(i=0,j=jz,z=q[jz];j>0;i++,j--) {
  800bb0:	802c90ba 	slli	r22,r16,2
  800bb4:	d8806004 	addi	r2,sp,384
  800bb8:	1585883a 	add	r2,r2,r22
  800bbc:	147fec17 	ldw	r17,-80(r2)
  800bc0:	0400120e 	bge	zero,r16,800c0c <__kernel_rem_pio2f+0x250>
  800bc4:	9db9883a 	add	fp,r19,r22
  800bc8:	dc801004 	addi	r18,sp,64
	    fw    =  (float)((__int32_t)(twon8* z));
  800bcc:	010ee034 	movhi	r4,15232
  800bd0:	8909c032 	custom	0,r4,r17,r4
  800bd4:	080185c0 	call	80185c <__fixsfsi>
  800bd8:	1009883a 	mov	r4,r2
  800bdc:	08018cc0 	call	8018cc <__floatsisf>
	    iq[i] =  (__int32_t)(z-two8*fw);
  800be0:	0110e034 	movhi	r4,17280
  800be4:	1109c032 	custom	0,r4,r2,r4
  800be8:	8909c0b2 	custom	2,r4,r17,r4
	    fw    =  (float)((__int32_t)(twon8* z));
  800bec:	102f883a 	mov	r23,r2
	    iq[i] =  (__int32_t)(z-two8*fw);
  800bf0:	080185c0 	call	80185c <__fixsfsi>
	    z     =  q[j-1]+fw;
  800bf4:	e47fff17 	ldw	r17,-4(fp)
	    iq[i] =  (__int32_t)(z-two8*fw);
  800bf8:	90800015 	stw	r2,0(r18)
	for(i=0,j=jz,z=q[jz];j>0;i++,j--) {
  800bfc:	e73fff04 	addi	fp,fp,-4
	    z     =  q[j-1]+fw;
  800c00:	bc63c072 	custom	1,r17,r23,r17
	for(i=0,j=jz,z=q[jz];j>0;i++,j--) {
  800c04:	94800104 	addi	r18,r18,4
  800c08:	9f3ff01e 	bne	r19,fp,800bcc <__kernel_rem_pio2f+0x210>
	z  = scalbnf(z,(int)q0);	/* actual value of z */
  800c0c:	dc800217 	ldw	r18,8(sp)
  800c10:	8809883a 	mov	r4,r17
  800c14:	900b883a 	mov	r5,r18
  800c18:	08016400 	call	801640 <scalbnf>
	z -= (float)8.0*floorf(z*(float)0.125);	/* trim off integer >= 8 */
  800c1c:	010f8034 	movhi	r4,15872
  800c20:	1109c032 	custom	0,r4,r2,r4
	z  = scalbnf(z,(int)q0);	/* actual value of z */
  800c24:	1039883a 	mov	fp,r2
	z -= (float)8.0*floorf(z*(float)0.125);	/* trim off integer >= 8 */
  800c28:	080156c0 	call	80156c <floorf>
  800c2c:	00d04034 	movhi	r3,16640
  800c30:	10c5c032 	custom	0,r2,r2,r3
  800c34:	e0a3c0b2 	custom	2,r17,fp,r2
	n  = (__int32_t) z;
  800c38:	8809883a 	mov	r4,r17
	z -= (float)8.0*floorf(z*(float)0.125);	/* trim off integer >= 8 */
  800c3c:	d8800415 	stw	r2,16(sp)
	n  = (__int32_t) z;
  800c40:	080185c0 	call	80185c <__fixsfsi>
	z -= (float)n;
  800c44:	1009883a 	mov	r4,r2
	n  = (__int32_t) z;
  800c48:	102f883a 	mov	r23,r2
	z -= (float)n;
  800c4c:	08018cc0 	call	8018cc <__floatsisf>
  800c50:	100d883a 	mov	r6,r2
  800c54:	88a3c0b2 	custom	2,r17,r17,r2
	if(q0>0) {	/* need iq[jz-1] to determine n */
  800c58:	0480540e 	bge	zero,r18,800dac <__kernel_rem_pio2f+0x3f0>
	    i  = (iq[jz-1]>>(8-q0)); n += i;
  800c5c:	80bfffc4 	addi	r2,r16,-1
  800c60:	100490ba 	slli	r2,r2,2
  800c64:	d8c06004 	addi	r3,sp,384
  800c68:	d9400917 	ldw	r5,36(sp)
  800c6c:	1885883a 	add	r2,r3,r2
  800c70:	10ffb017 	ldw	r3,-320(r2)
  800c74:	1949d83a 	sra	r4,r3,r5
	    iq[jz-1] -= i<<(8-q0);
  800c78:	214a983a 	sll	r5,r4,r5
	    i  = (iq[jz-1]>>(8-q0)); n += i;
  800c7c:	b92f883a 	add	r23,r23,r4
	    ih = iq[jz-1]>>(7-q0);
  800c80:	d9000a17 	ldw	r4,40(sp)
	    iq[jz-1] -= i<<(8-q0);
  800c84:	1947c83a 	sub	r3,r3,r5
  800c88:	10ffb015 	stw	r3,-320(r2)
	    ih = iq[jz-1]>>(7-q0);
  800c8c:	1909d83a 	sra	r4,r3,r4
  800c90:	d9000115 	stw	r4,4(sp)
  800c94:	2005883a 	mov	r2,r4
	if(ih>0) {	/* q > 0.5 */
  800c98:	00804d16 	blt	zero,r2,800dd0 <__kernel_rem_pio2f+0x414>
	if(z==zero) {
  800c9c:	000b883a 	mov	r5,zero
  800ca0:	8809883a 	mov	r4,r17
  800ca4:	08017340 	call	801734 <__eqsf2>
  800ca8:	1000931e 	bne	r2,zero,800ef8 <__kernel_rem_pio2f+0x53c>
	    for (i=jz-1;i>=jk;i--) j |= iq[i];
  800cac:	d8800317 	ldw	r2,12(sp)
  800cb0:	873fffc4 	addi	fp,r16,-1
  800cb4:	e0800816 	blt	fp,r2,800cd8 <__kernel_rem_pio2f+0x31c>
  800cb8:	d8801004 	addi	r2,sp,64
  800cbc:	1585883a 	add	r2,r2,r22
	    j = 0;
  800cc0:	0007883a 	mov	r3,zero
	    for (i=jz-1;i>=jk;i--) j |= iq[i];
  800cc4:	113fff17 	ldw	r4,-4(r2)
  800cc8:	10bfff04 	addi	r2,r2,-4
  800ccc:	1906b03a 	or	r3,r3,r4
  800cd0:	153ffc1e 	bne	r2,r20,800cc4 <__kernel_rem_pio2f+0x308>
	    if(j==0) { /* need recomputation */
  800cd4:	1801641e 	bne	r3,zero,801268 <__kernel_rem_pio2f+0x8ac>
		for(k=1;iq[jk-k]==0;k++);   /* k = no. of terms needed */
  800cd8:	d8800817 	ldw	r2,32(sp)
  800cdc:	10bfb017 	ldw	r2,-320(r2)
  800ce0:	1001441e 	bne	r2,zero,8011f4 <__kernel_rem_pio2f+0x838>
  800ce4:	a005883a 	mov	r2,r20
  800ce8:	07000044 	movi	fp,1
  800cec:	10fffe17 	ldw	r3,-8(r2)
  800cf0:	e7000044 	addi	fp,fp,1
  800cf4:	10bfff04 	addi	r2,r2,-4
  800cf8:	183ffc26 	beq	r3,zero,800cec <__kernel_rem_pio2f+0x330>

		for(i=jz+1;i<=jz+k;i++) {   /* add q[jz+1] to q[jz+k] */
  800cfc:	84800044 	addi	r18,r16,1
  800d00:	8739883a 	add	fp,r16,fp
  800d04:	d8800517 	ldw	r2,20(sp)
  800d08:	9dad883a 	add	r22,r19,r22
  800d0c:	dd000115 	stw	r20,4(sp)
  800d10:	80af883a 	add	r23,r16,r2
  800d14:	d8800717 	ldw	r2,28(sp)
  800d18:	b82e90ba 	slli	r23,r23,2
  800d1c:	9029883a 	mov	r20,r18
  800d20:	80a1883a 	add	r16,r16,r2
  800d24:	d8806b17 	ldw	r2,428(sp)
  800d28:	802090ba 	slli	r16,r16,2
  800d2c:	15ef883a 	add	r23,r2,r23
  800d30:	d8802404 	addi	r2,sp,144
  800d34:	1421883a 	add	r16,r2,r16
  800d38:	b825883a 	mov	r18,r23
  800d3c:	b02f883a 	mov	r23,r22
  800d40:	802d883a 	mov	r22,r16
  800d44:	dc000617 	ldw	r16,24(sp)
		    f[jx+i] = (float) ipio2[jv+i];
  800d48:	91000117 	ldw	r4,4(r18)
  800d4c:	08018cc0 	call	8018cc <__floatsisf>
  800d50:	b0800015 	stw	r2,0(r22)
		    for(j=0,fw=0.0;j<=jx;j++) fw += x[j]*f[jx+i-j];
  800d54:	80001316 	blt	r16,zero,800da4 <__kernel_rem_pio2f+0x3e8>
  800d58:	d8800017 	ldw	r2,0(sp)
  800d5c:	b009883a 	mov	r4,r22
  800d60:	880b883a 	mov	r5,r17
  800d64:	10c00017 	ldw	r3,0(r2)
  800d68:	21800017 	ldw	r6,0(r4)
  800d6c:	10800104 	addi	r2,r2,4
  800d70:	213fff04 	addi	r4,r4,-4
  800d74:	1987c032 	custom	0,r3,r3,r6
  800d78:	28cbc072 	custom	1,r5,r5,r3
  800d7c:	a8bff91e 	bne	r21,r2,800d64 <__kernel_rem_pio2f+0x3a8>
		    q[i] = fw;
  800d80:	b9400115 	stw	r5,4(r23)
		for(i=jz+1;i<=jz+k;i++) {   /* add q[jz+1] to q[jz+k] */
  800d84:	a5000044 	addi	r20,r20,1
  800d88:	94800104 	addi	r18,r18,4
  800d8c:	b5800104 	addi	r22,r22,4
  800d90:	bdc00104 	addi	r23,r23,4
  800d94:	e53fec0e 	bge	fp,r20,800d48 <__kernel_rem_pio2f+0x38c>
  800d98:	dd000117 	ldw	r20,4(sp)
  800d9c:	e021883a 	mov	r16,fp
  800da0:	003f8306 	br	800bb0 <__kernel_rem_pio2f+0x1f4>
		    for(j=0,fw=0.0;j<=jx;j++) fw += x[j]*f[jx+i-j];
  800da4:	880b883a 	mov	r5,r17
  800da8:	003ff506 	br	800d80 <__kernel_rem_pio2f+0x3c4>
	else if(q0==0) ih = iq[jz-1]>>8;
  800dac:	9001091e 	bne	r18,zero,8011d4 <__kernel_rem_pio2f+0x818>
  800db0:	80bfffc4 	addi	r2,r16,-1
  800db4:	100490ba 	slli	r2,r2,2
  800db8:	d8c06004 	addi	r3,sp,384
  800dbc:	1885883a 	add	r2,r3,r2
  800dc0:	10bfb017 	ldw	r2,-320(r2)
  800dc4:	1005d23a 	srai	r2,r2,8
  800dc8:	d8800115 	stw	r2,4(sp)
	if(ih>0) {	/* q > 0.5 */
  800dcc:	00bfb30e 	bge	zero,r2,800c9c <__kernel_rem_pio2f+0x2e0>
	    n += 1; carry = 0;
  800dd0:	bdc00044 	addi	r23,r23,1
	    for(i=0;i<jz ;i++) {	/* compute 1-q */
  800dd4:	04016c0e 	bge	zero,r16,801388 <__kernel_rem_pio2f+0x9cc>
		j = iq[i];
  800dd8:	d8c01017 	ldw	r3,64(sp)
		    if(j!=0) {
  800ddc:	1800fa1e 	bne	r3,zero,8011c8 <__kernel_rem_pio2f+0x80c>
	    for(i=0;i<jz ;i++) {	/* compute 1-q */
  800de0:	80800060 	cmpeqi	r2,r16,1
  800de4:	1000261e 	bne	r2,zero,800e80 <__kernel_rem_pio2f+0x4c4>
		j = iq[i];
  800de8:	d8c01117 	ldw	r3,68(sp)
  800dec:	d9401104 	addi	r5,sp,68
	    for(i=0;i<jz ;i++) {	/* compute 1-q */
  800df0:	01000044 	movi	r4,1
  800df4:	20800044 	addi	r2,r4,1
  800df8:	29400104 	addi	r5,r5,4
		    if(j!=0) {
  800dfc:	1800061e 	bne	r3,zero,800e18 <__kernel_rem_pio2f+0x45c>
	    for(i=0;i<jz ;i++) {	/* compute 1-q */
  800e00:	80801f26 	beq	r16,r2,800e80 <__kernel_rem_pio2f+0x4c4>
		j = iq[i];
  800e04:	28c00017 	ldw	r3,0(r5)
	    for(i=0;i<jz ;i++) {	/* compute 1-q */
  800e08:	1009883a 	mov	r4,r2
  800e0c:	20800044 	addi	r2,r4,1
  800e10:	29400104 	addi	r5,r5,4
		    if(j!=0) {
  800e14:	183ffa26 	beq	r3,zero,800e00 <__kernel_rem_pio2f+0x444>
			carry = 1; iq[i] = 0x100- j;
  800e18:	200890ba 	slli	r4,r4,2
  800e1c:	01404004 	movi	r5,256
  800e20:	28c7c83a 	sub	r3,r5,r3
  800e24:	d9406004 	addi	r5,sp,384
  800e28:	2909883a 	add	r4,r5,r4
  800e2c:	20ffb015 	stw	r3,-320(r4)
	    for(i=0;i<jz ;i++) {	/* compute 1-q */
  800e30:	1400120e 	bge	r2,r16,800e7c <__kernel_rem_pio2f+0x4c0>
		} else  iq[i] = 0xff - j;
  800e34:	100690ba 	slli	r3,r2,2
	    for(i=0;i<jz ;i++) {	/* compute 1-q */
  800e38:	10800044 	addi	r2,r2,1
		} else  iq[i] = 0xff - j;
  800e3c:	28c7883a 	add	r3,r5,r3
  800e40:	193fb017 	ldw	r4,-320(r3)
  800e44:	01403fc4 	movi	r5,255
  800e48:	2909c83a 	sub	r4,r5,r4
  800e4c:	193fb015 	stw	r4,-320(r3)
	    for(i=0;i<jz ;i++) {	/* compute 1-q */
  800e50:	14000a0e 	bge	r2,r16,800e7c <__kernel_rem_pio2f+0x4c0>
  800e54:	100490ba 	slli	r2,r2,2
  800e58:	d8c01004 	addi	r3,sp,64
  800e5c:	1d89883a 	add	r4,r3,r22
  800e60:	1885883a 	add	r2,r3,r2
		} else  iq[i] = 0xff - j;
  800e64:	10c00017 	ldw	r3,0(r2)
  800e68:	01403fc4 	movi	r5,255
	    for(i=0;i<jz ;i++) {	/* compute 1-q */
  800e6c:	10800104 	addi	r2,r2,4
		} else  iq[i] = 0xff - j;
  800e70:	28c7c83a 	sub	r3,r5,r3
  800e74:	10ffff15 	stw	r3,-4(r2)
	    for(i=0;i<jz ;i++) {	/* compute 1-q */
  800e78:	113ffa1e 	bne	r2,r4,800e64 <__kernel_rem_pio2f+0x4a8>
  800e7c:	00c00044 	movi	r3,1
	    if(q0>0) {		/* rare case: chance is 1 in 12 */
  800e80:	d8800217 	ldw	r2,8(sp)
  800e84:	00800b0e 	bge	zero,r2,800eb4 <__kernel_rem_pio2f+0x4f8>
	        switch(q0) {
  800e88:	d8800d17 	ldw	r2,52(sp)
  800e8c:	1000df1e 	bne	r2,zero,80120c <__kernel_rem_pio2f+0x850>
  800e90:	d8800e17 	ldw	r2,56(sp)
  800e94:	10000726 	beq	r2,zero,800eb4 <__kernel_rem_pio2f+0x4f8>
	    	   iq[jz-1] &= 0x3f; break;
  800e98:	80bfffc4 	addi	r2,r16,-1
  800e9c:	100490ba 	slli	r2,r2,2
  800ea0:	d9006004 	addi	r4,sp,384
  800ea4:	2085883a 	add	r2,r4,r2
  800ea8:	113fb017 	ldw	r4,-320(r2)
  800eac:	21000fcc 	andi	r4,r4,63
  800eb0:	113fb015 	stw	r4,-320(r2)
	    if(ih==2) {
  800eb4:	d8800117 	ldw	r2,4(sp)
  800eb8:	10800098 	cmpnei	r2,r2,2
  800ebc:	103f771e 	bne	r2,zero,800c9c <__kernel_rem_pio2f+0x2e0>
		z = one - z;
  800ec0:	d8800417 	ldw	r2,16(sp)
  800ec4:	1723c0b2 	custom	2,r17,r2,fp
  800ec8:	008fe034 	movhi	r2,16256
  800ecc:	88a3c072 	custom	1,r17,r17,r2
  800ed0:	3463c072 	custom	1,r17,r6,r17
		if(carry!=0) z -= scalbnf(one,(int)q0);
  800ed4:	183f7126 	beq	r3,zero,800c9c <__kernel_rem_pio2f+0x2e0>
  800ed8:	d9400217 	ldw	r5,8(sp)
  800edc:	010fe034 	movhi	r4,16256
  800ee0:	08016400 	call	801640 <scalbnf>
  800ee4:	88a3c0b2 	custom	2,r17,r17,r2
	if(z==zero) {
  800ee8:	000b883a 	mov	r5,zero
  800eec:	8809883a 	mov	r4,r17
  800ef0:	08017340 	call	801734 <__eqsf2>
  800ef4:	103f6d26 	beq	r2,zero,800cac <__kernel_rem_pio2f+0x2f0>
    /* chop off zero terms */
	if(z==(float)0.0) {
	    jz -= 1; q0 -= 8;
	    while(iq[jz]==0) { jz--; q0-=8;}
	} else { /* break z into 8-bit if necessary */
	    z = scalbnf(z,-(int)q0);
  800ef8:	d8800c17 	ldw	r2,48(sp)
  800efc:	d8c00f17 	ldw	r3,60(sp)
  800f00:	8809883a 	mov	r4,r17
  800f04:	10cbc83a 	sub	r5,r2,r3
  800f08:	08016400 	call	801640 <scalbnf>
	    if(z>=two8) { 
  800f0c:	0150e034 	movhi	r5,17280
  800f10:	1009883a 	mov	r4,r2
	    z = scalbnf(z,-(int)q0);
  800f14:	1023883a 	mov	r17,r2
	    if(z>=two8) { 
  800f18:	08017a40 	call	8017a4 <__gesf2>
  800f1c:	10011116 	blt	r2,zero,801364 <__kernel_rem_pio2f+0x9a8>
		fw = (float)((__int32_t)(twon8*z));
  800f20:	010ee034 	movhi	r4,15232
  800f24:	8909c032 	custom	0,r4,r17,r4
  800f28:	080185c0 	call	80185c <__fixsfsi>
  800f2c:	1009883a 	mov	r4,r2
  800f30:	08018cc0 	call	8018cc <__floatsisf>
		iq[jz] = (__int32_t)(z-two8*fw);
  800f34:	0110e034 	movhi	r4,17280
  800f38:	1109c032 	custom	0,r4,r2,r4
  800f3c:	8909c0b2 	custom	2,r4,r17,r4
		fw = (float)((__int32_t)(twon8*z));
  800f40:	1025883a 	mov	r18,r2
		jz += 1; q0 += 8;
  800f44:	87000044 	addi	fp,r16,1
		iq[jz] = (__int32_t)(z-two8*fw);
  800f48:	080185c0 	call	80185c <__fixsfsi>
		iq[jz] = (__int32_t) fw;
  800f4c:	e02090ba 	slli	r16,fp,2
		iq[jz] = (__int32_t)(z-two8*fw);
  800f50:	d8c06004 	addi	r3,sp,384
  800f54:	1d87883a 	add	r3,r3,r22
		iq[jz] = (__int32_t) fw;
  800f58:	d9406004 	addi	r5,sp,384
		iq[jz] = (__int32_t)(z-two8*fw);
  800f5c:	18bfb015 	stw	r2,-320(r3)
		iq[jz] = (__int32_t) fw;
  800f60:	9009883a 	mov	r4,r18
  800f64:	2c21883a 	add	r16,r5,r16
  800f68:	080185c0 	call	80185c <__fixsfsi>
		jz += 1; q0 += 8;
  800f6c:	d8c00217 	ldw	r3,8(sp)
		iq[jz] = (__int32_t) fw;
  800f70:	80bfb015 	stw	r2,-320(r16)
		jz += 1; q0 += 8;
  800f74:	18c00204 	addi	r3,r3,8
  800f78:	d8c00215 	stw	r3,8(sp)
	    } else iq[jz] = (__int32_t) z ;
	}

    /* convert integer "bit" chunk to floating-point value */
	fw = scalbnf(one,(int)q0);
  800f7c:	d9400217 	ldw	r5,8(sp)
  800f80:	010fe034 	movhi	r4,16256
  800f84:	08016400 	call	801640 <scalbnf>
  800f88:	102b883a 	mov	r21,r2
	for(i=jz;i>=0;i--) {
  800f8c:	e0012a16 	blt	fp,zero,801438 <__kernel_rem_pio2f+0xa7c>
  800f90:	e02090ba 	slli	r16,fp,2
  800f94:	dc404c04 	addi	r17,sp,304
  800f98:	d8801004 	addi	r2,sp,64
  800f9c:	8c25883a 	add	r18,r17,r16
  800fa0:	1427883a 	add	r19,r2,r16
  800fa4:	9029883a 	mov	r20,r18
	    q[i] = fw*(float)iq[i]; fw*=twon8;
  800fa8:	99000017 	ldw	r4,0(r19)
	for(i=jz;i>=0;i--) {
  800fac:	a53fff04 	addi	r20,r20,-4
	    q[i] = fw*(float)iq[i]; fw*=twon8;
  800fb0:	08018cc0 	call	8018cc <__floatsisf>
  800fb4:	1545c032 	custom	0,r2,r2,r21
  800fb8:	010ee034 	movhi	r4,15232
  800fbc:	9807883a 	mov	r3,r19
  800fc0:	a0800115 	stw	r2,4(r20)
	for(i=jz;i>=0;i--) {
  800fc4:	d8801004 	addi	r2,sp,64
	    q[i] = fw*(float)iq[i]; fw*=twon8;
  800fc8:	a92bc032 	custom	0,r21,r21,r4
	for(i=jz;i>=0;i--) {
  800fcc:	9cffff04 	addi	r19,r19,-4
  800fd0:	10fff51e 	bne	r2,r3,800fa8 <__kernel_rem_pio2f+0x5ec>
	}

    /* compute PIo2[0,...,jp]*q[jz,...,0] */
	for(i=jz;i>=0;i--) {
	    for(fw=0.0,k=0;k<=jp&&k<=jz-i;k++) fw += PIo2[k]*q[i+k];
  800fd4:	dbc00317 	ldw	r15,12(sp)
  800fd8:	dcc03804 	addi	r19,sp,224
	for(i=jz;i>=0;i--) {
  800fdc:	980b883a 	mov	r5,r19
  800fe0:	0007883a 	mov	r3,zero
	    for(fw=0.0,k=0;k<=jp&&k<=jz-i;k++) fw += PIo2[k]*q[i+k];
  800fe4:	79800060 	cmpeqi	r6,r15,1
  800fe8:	79c000a0 	cmpeqi	r7,r15,2
  800fec:	7a0000e0 	cmpeqi	r8,r15,3
  800ff0:	7a800120 	cmpeqi	r10,r15,4
  800ff4:	7a400160 	cmpeqi	r9,r15,5
  800ff8:	7ac001a0 	cmpeqi	r11,r15,6
  800ffc:	7b4001e0 	cmpeqi	r13,r15,7
  801000:	7b000220 	cmpeqi	r12,r15,8
  801004:	7b800260 	cmpeqi	r14,r15,9
  801008:	00000106 	br	801010 <__kernel_rem_pio2f+0x654>
  80100c:	1025883a 	mov	r18,r2
  801010:	0005883a 	mov	r2,zero
  801014:	78004816 	blt	r15,zero,801138 <__kernel_rem_pio2f+0x77c>
  801018:	91000017 	ldw	r4,0(r18)
  80101c:	008ff274 	movhi	r2,16329
  801020:	2085c032 	custom	0,r2,r4,r2
  801024:	78004426 	beq	r15,zero,801138 <__kernel_rem_pio2f+0x77c>
  801028:	18004326 	beq	r3,zero,801138 <__kernel_rem_pio2f+0x77c>
  80102c:	91000117 	ldw	r4,4(r18)
  801030:	050e7c34 	movhi	r20,14832
  801034:	2509c032 	custom	0,r4,r4,r20
  801038:	1105c072 	custom	1,r2,r2,r4
  80103c:	30003e1e 	bne	r6,zero,801138 <__kernel_rem_pio2f+0x77c>
  801040:	19000060 	cmpeqi	r4,r3,1
  801044:	20003c1e 	bne	r4,zero,801138 <__kernel_rem_pio2f+0x77c>
  801048:	91000217 	ldw	r4,8(r18)
  80104c:	050df6b4 	movhi	r20,14298
  801050:	2509c032 	custom	0,r4,r4,r20
  801054:	1105c072 	custom	1,r2,r2,r4
  801058:	3800371e 	bne	r7,zero,801138 <__kernel_rem_pio2f+0x77c>
  80105c:	190000a0 	cmpeqi	r4,r3,2
  801060:	2000351e 	bne	r4,zero,801138 <__kernel_rem_pio2f+0x77c>
  801064:	91000317 	ldw	r4,12(r18)
  801068:	050ce8b4 	movhi	r20,13218
  80106c:	2509c032 	custom	0,r4,r4,r20
  801070:	1105c072 	custom	1,r2,r2,r4
  801074:	4000301e 	bne	r8,zero,801138 <__kernel_rem_pio2f+0x77c>
  801078:	190000e0 	cmpeqi	r4,r3,3
  80107c:	20002e1e 	bne	r4,zero,801138 <__kernel_rem_pio2f+0x77c>
  801080:	91000417 	ldw	r4,16(r18)
  801084:	050ba134 	movhi	r20,11908
  801088:	2509c032 	custom	0,r4,r4,r20
  80108c:	1105c072 	custom	1,r2,r2,r4
  801090:	5000291e 	bne	r10,zero,801138 <__kernel_rem_pio2f+0x77c>
  801094:	19000120 	cmpeqi	r4,r3,4
  801098:	2000271e 	bne	r4,zero,801138 <__kernel_rem_pio2f+0x77c>
  80109c:	91000517 	ldw	r4,20(r18)
  8010a0:	050ad434 	movhi	r20,11088
  8010a4:	2509c032 	custom	0,r4,r4,r20
  8010a8:	1105c072 	custom	1,r2,r2,r4
  8010ac:	4800221e 	bne	r9,zero,801138 <__kernel_rem_pio2f+0x77c>
  8010b0:	19000160 	cmpeqi	r4,r3,5
  8010b4:	2000201e 	bne	r4,zero,801138 <__kernel_rem_pio2f+0x77c>
  8010b8:	91000617 	ldw	r4,24(r18)
  8010bc:	0509f0b4 	movhi	r20,10178
  8010c0:	2509c032 	custom	0,r4,r4,r20
  8010c4:	1105c072 	custom	1,r2,r2,r4
  8010c8:	58001b1e 	bne	r11,zero,801138 <__kernel_rem_pio2f+0x77c>
  8010cc:	190001a0 	cmpeqi	r4,r3,6
  8010d0:	2000191e 	bne	r4,zero,801138 <__kernel_rem_pio2f+0x77c>
  8010d4:	91000717 	ldw	r4,28(r18)
  8010d8:	0508b434 	movhi	r20,8912
  8010dc:	2509c032 	custom	0,r4,r4,r20
  8010e0:	1105c072 	custom	1,r2,r2,r4
  8010e4:	6800141e 	bne	r13,zero,801138 <__kernel_rem_pio2f+0x77c>
  8010e8:	190001e0 	cmpeqi	r4,r3,7
  8010ec:	2000121e 	bne	r4,zero,801138 <__kernel_rem_pio2f+0x77c>
  8010f0:	91000817 	ldw	r4,32(r18)
  8010f4:	0507f134 	movhi	r20,8132
  8010f8:	2509c032 	custom	0,r4,r4,r20
  8010fc:	1105c072 	custom	1,r2,r2,r4
  801100:	60000d1e 	bne	r12,zero,801138 <__kernel_rem_pio2f+0x77c>
  801104:	19000220 	cmpeqi	r4,r3,8
  801108:	20000b1e 	bne	r4,zero,801138 <__kernel_rem_pio2f+0x77c>
  80110c:	91000917 	ldw	r4,36(r18)
  801110:	0506f1b4 	movhi	r20,7110
  801114:	2509c032 	custom	0,r4,r4,r20
  801118:	1105c072 	custom	1,r2,r2,r4
  80111c:	7000061e 	bne	r14,zero,801138 <__kernel_rem_pio2f+0x77c>
  801120:	19000260 	cmpeqi	r4,r3,9
  801124:	2000041e 	bne	r4,zero,801138 <__kernel_rem_pio2f+0x77c>
  801128:	91000a17 	ldw	r4,40(r18)
  80112c:	0505d134 	movhi	r20,5956
  801130:	2509c032 	custom	0,r4,r4,r20
  801134:	1105c072 	custom	1,r2,r2,r4
	    fq[jz-i] = fw;
  801138:	28800015 	stw	r2,0(r5)
	for(i=jz;i>=0;i--) {
  80113c:	18c00044 	addi	r3,r3,1
  801140:	29400104 	addi	r5,r5,4
  801144:	90bfff04 	addi	r2,r18,-4
  801148:	8cbfb01e 	bne	r17,r18,80100c <__kernel_rem_pio2f+0x650>
	}

    /* compress fq[] into y[] */
	switch(prec) {
  80114c:	d8806a17 	ldw	r2,424(sp)
  801150:	108000c8 	cmpgei	r2,r2,3
  801154:	1000561e 	bne	r2,zero,8012b0 <__kernel_rem_pio2f+0x8f4>
  801158:	d8806a17 	ldw	r2,424(sp)
  80115c:	00808c16 	blt	zero,r2,801390 <__kernel_rem_pio2f+0x9d4>
  801160:	10000c1e 	bne	r2,zero,801194 <__kernel_rem_pio2f+0x7d8>
  801164:	9c21883a 	add	r16,r19,r16
  801168:	0005883a 	mov	r2,zero
	    case 0:
		fw = 0.0;
		for (i=jz;i>=0;i--) fw += fq[i];
  80116c:	81000017 	ldw	r4,0(r16)
  801170:	8007883a 	mov	r3,r16
  801174:	843fff04 	addi	r16,r16,-4
  801178:	1105c072 	custom	1,r2,r2,r4
  80117c:	98fffb1e 	bne	r19,r3,80116c <__kernel_rem_pio2f+0x7b0>
		y[0] = (ih==0)? fw: -fw; 
  801180:	d8c00117 	ldw	r3,4(sp)
  801184:	18000126 	beq	r3,zero,80118c <__kernel_rem_pio2f+0x7d0>
  801188:	10a0003c 	xorhi	r2,r2,32768
  80118c:	d8c00b17 	ldw	r3,44(sp)
  801190:	18800015 	stw	r2,0(r3)
		    y[0] =  fq[0]; y[1] =  fq[1]; y[2] =  fw;
		} else {
		    y[0] = -fq[0]; y[1] = -fq[1]; y[2] = -fw;
		}
	}
	return n&7;
  801194:	b88001cc 	andi	r2,r23,7
}
  801198:	dfc06917 	ldw	ra,420(sp)
  80119c:	df006817 	ldw	fp,416(sp)
  8011a0:	ddc06717 	ldw	r23,412(sp)
  8011a4:	dd806617 	ldw	r22,408(sp)
  8011a8:	dd406517 	ldw	r21,404(sp)
  8011ac:	dd006417 	ldw	r20,400(sp)
  8011b0:	dcc06317 	ldw	r19,396(sp)
  8011b4:	dc806217 	ldw	r18,392(sp)
  8011b8:	dc406117 	ldw	r17,388(sp)
  8011bc:	dc006017 	ldw	r16,384(sp)
  8011c0:	dec06a04 	addi	sp,sp,424
  8011c4:	f800283a 	ret
		    if(j!=0) {
  8011c8:	00800044 	movi	r2,1
  8011cc:	0009883a 	mov	r4,zero
  8011d0:	003f1106 	br	800e18 <__kernel_rem_pio2f+0x45c>
	else if(z>=(float)0.5) ih=2;
  8011d4:	014fc034 	movhi	r5,16128
  8011d8:	8809883a 	mov	r4,r17
  8011dc:	d9800115 	stw	r6,4(sp)
  8011e0:	08017a40 	call	8017a4 <__gesf2>
  8011e4:	d9800117 	ldw	r6,4(sp)
  8011e8:	1000150e 	bge	r2,zero,801240 <__kernel_rem_pio2f+0x884>
	ih = 0;
  8011ec:	d8000115 	stw	zero,4(sp)
  8011f0:	003eaa06 	br	800c9c <__kernel_rem_pio2f+0x2e0>
		for(i=jz+1;i<=jz+k;i++) {   /* add q[jz+1] to q[jz+k] */
  8011f4:	84800044 	addi	r18,r16,1
  8011f8:	9039883a 	mov	fp,r18
  8011fc:	003ec106 	br	800d04 <__kernel_rem_pio2f+0x348>
	for(i=0;i<=m;i++,j++) f[i] = (j<0)? zero : (float) ipio2[j];
  801200:	0027883a 	mov	r19,zero
  801204:	dc802404 	addi	r18,sp,144
  801208:	003e2506 	br	800aa0 <__kernel_rem_pio2f+0xe4>
	    	   iq[jz-1] &= 0x7f; break;
  80120c:	80bfffc4 	addi	r2,r16,-1
  801210:	100490ba 	slli	r2,r2,2
  801214:	d9006004 	addi	r4,sp,384
  801218:	2085883a 	add	r2,r4,r2
  80121c:	113fb017 	ldw	r4,-320(r2)
  801220:	21001fcc 	andi	r4,r4,127
  801224:	113fb015 	stw	r4,-320(r2)
  801228:	003f2206 	br	800eb4 <__kernel_rem_pio2f+0x4f8>
  80122c:	00800204 	movi	r2,8
  801230:	d8800c15 	stw	r2,48(sp)
	jv = (e0-3)/8; if(jv<0) jv=0;
  801234:	d8000515 	stw	zero,20(sp)
  801238:	1009883a 	mov	r4,r2
  80123c:	003e0006 	br	800a40 <__kernel_rem_pio2f+0x84>
	else if(z>=(float)0.5) ih=2;
  801240:	00800084 	movi	r2,2
  801244:	d8800115 	stw	r2,4(sp)
	    n += 1; carry = 0;
  801248:	bdc00044 	addi	r23,r23,1
	    for(i=0;i<jz ;i++) {	/* compute 1-q */
  80124c:	043ee216 	blt	zero,r16,800dd8 <__kernel_rem_pio2f+0x41c>
		z = one - z;
  801250:	d8800417 	ldw	r2,16(sp)
  801254:	1723c0b2 	custom	2,r17,r2,fp
  801258:	008fe034 	movhi	r2,16256
  80125c:	88a3c072 	custom	1,r17,r17,r2
  801260:	3463c072 	custom	1,r17,r6,r17
		if(carry!=0) z -= scalbnf(one,(int)q0);
  801264:	003e8d06 	br	800c9c <__kernel_rem_pio2f+0x2e0>
	    jz -= 1; q0 -= 8;
  801268:	d8c00217 	ldw	r3,8(sp)
	    while(iq[jz]==0) { jz--; q0-=8;}
  80126c:	e00490ba 	slli	r2,fp,2
	    jz -= 1; q0 -= 8;
  801270:	193ffe04 	addi	r4,r3,-8
	    while(iq[jz]==0) { jz--; q0-=8;}
  801274:	d8c06004 	addi	r3,sp,384
  801278:	1887883a 	add	r3,r3,r2
  80127c:	18ffb017 	ldw	r3,-320(r3)
	    jz -= 1; q0 -= 8;
  801280:	d9000215 	stw	r4,8(sp)
	    while(iq[jz]==0) { jz--; q0-=8;}
  801284:	183f3d1e 	bne	r3,zero,800f7c <__kernel_rem_pio2f+0x5c0>
  801288:	d8c01004 	addi	r3,sp,64
  80128c:	1885883a 	add	r2,r3,r2
  801290:	2007883a 	mov	r3,r4
  801294:	113fff17 	ldw	r4,-4(r2)
  801298:	e73fffc4 	addi	fp,fp,-1
  80129c:	10bfff04 	addi	r2,r2,-4
  8012a0:	18fffe04 	addi	r3,r3,-8
  8012a4:	203ffb26 	beq	r4,zero,801294 <__kernel_rem_pio2f+0x8d8>
  8012a8:	d8c00215 	stw	r3,8(sp)
  8012ac:	003f3306 	br	800f7c <__kernel_rem_pio2f+0x5c0>
	switch(prec) {
  8012b0:	d8806a17 	ldw	r2,424(sp)
  8012b4:	108000e0 	cmpeqi	r2,r2,3
  8012b8:	103fb626 	beq	r2,zero,801194 <__kernel_rem_pio2f+0x7d8>
		for (i=jz;i>0;i--) {
  8012bc:	e0006926 	beq	fp,zero,801464 <__kernel_rem_pio2f+0xaa8>
  8012c0:	9c05883a 	add	r2,r19,r16
  8012c4:	10c00017 	ldw	r3,0(r2)
		    fw      = fq[i-1]+fq[i]; 
  8012c8:	113fff17 	ldw	r4,-4(r2)
		for (i=jz;i>0;i--) {
  8012cc:	10bfff04 	addi	r2,r2,-4
		    fw      = fq[i-1]+fq[i]; 
  8012d0:	1907c072 	custom	1,r3,r3,r4
		    fq[i-1] = fw;
  8012d4:	10c00015 	stw	r3,0(r2)
		for (i=jz;i>0;i--) {
  8012d8:	98bffb1e 	bne	r19,r2,8012c8 <__kernel_rem_pio2f+0x90c>
		    fq[i]  += fq[i-1]-fw;
  8012dc:	dc403904 	addi	r17,sp,228
  8012e0:	800d883a 	mov	r6,r16
  8012e4:	000b883a 	mov	r5,zero
  8012e8:	8809883a 	mov	r4,r17
  8012ec:	0801b400 	call	801b40 <memset>
		for (i=jz;i>1;i--) {
  8012f0:	e0800088 	cmpgei	r2,fp,2
  8012f4:	10005b26 	beq	r2,zero,801464 <__kernel_rem_pio2f+0xaa8>
  8012f8:	9c21883a 	add	r16,r19,r16
  8012fc:	80c00017 	ldw	r3,0(r16)
  801300:	8005883a 	mov	r2,r16
		    fw      = fq[i-1]+fq[i]; 
  801304:	113fff17 	ldw	r4,-4(r2)
		for (i=jz;i>1;i--) {
  801308:	10bfff04 	addi	r2,r2,-4
		    fw      = fq[i-1]+fq[i]; 
  80130c:	1907c072 	custom	1,r3,r3,r4
		    fq[i-1] = fw;
  801310:	10c00015 	stw	r3,0(r2)
		for (i=jz;i>1;i--) {
  801314:	88bffb1e 	bne	r17,r2,801304 <__kernel_rem_pio2f+0x948>
		    fq[i]  += fq[i-1]-fw;
  801318:	e1bfffc4 	addi	r6,fp,-1
  80131c:	300c90ba 	slli	r6,r6,2
  801320:	000b883a 	mov	r5,zero
  801324:	d9003a04 	addi	r4,sp,232
  801328:	0801b400 	call	801b40 <memset>
  80132c:	0005883a 	mov	r2,zero
		for (fw=0.0,i=jz;i>=2;i--) fw += fq[i]; 
  801330:	80c00017 	ldw	r3,0(r16)
  801334:	843fff04 	addi	r16,r16,-4
  801338:	10c5c072 	custom	1,r2,r2,r3
  80133c:	8c3ffc1e 	bne	r17,r16,801330 <__kernel_rem_pio2f+0x974>
		if(ih==0) {
  801340:	d9400117 	ldw	r5,4(sp)
		    y[0] =  fq[0]; y[1] =  fq[1]; y[2] =  fw;
  801344:	d9003817 	ldw	r4,224(sp)
  801348:	d8c03917 	ldw	r3,228(sp)
		if(ih==0) {
  80134c:	2800321e 	bne	r5,zero,801418 <__kernel_rem_pio2f+0xa5c>
		    y[0] = -fq[0]; y[1] = -fq[1]; y[2] = -fw;
  801350:	d9400b17 	ldw	r5,44(sp)
  801354:	29000015 	stw	r4,0(r5)
  801358:	28c00115 	stw	r3,4(r5)
  80135c:	28800215 	stw	r2,8(r5)
  801360:	003f8c06 	br	801194 <__kernel_rem_pio2f+0x7d8>
	    } else iq[jz] = (__int32_t) z ;
  801364:	8809883a 	mov	r4,r17
  801368:	080185c0 	call	80185c <__fixsfsi>
  80136c:	d8c06004 	addi	r3,sp,384
  801370:	1d87883a 	add	r3,r3,r22
  801374:	18bfb015 	stw	r2,-320(r3)
  801378:	8039883a 	mov	fp,r16
  80137c:	003eff06 	br	800f7c <__kernel_rem_pio2f+0x5c0>
	jv = (e0-3)/8; if(jv<0) jv=0;
  801380:	30800104 	addi	r2,r6,4
  801384:	003da806 	br	800a28 <__kernel_rem_pio2f+0x6c>
	    n += 1; carry = 0;
  801388:	0007883a 	mov	r3,zero
  80138c:	003ebc06 	br	800e80 <__kernel_rem_pio2f+0x4c4>
		for (i=jz;i>=0;i--) fw += fq[i]; 
  801390:	9c21883a 	add	r16,r19,r16
		fw = 0.0;
  801394:	0005883a 	mov	r2,zero
		for (i=jz;i>=0;i--) fw += fq[i]; 
  801398:	81000017 	ldw	r4,0(r16)
  80139c:	8007883a 	mov	r3,r16
  8013a0:	843fff04 	addi	r16,r16,-4
  8013a4:	1105c072 	custom	1,r2,r2,r4
  8013a8:	98fffb1e 	bne	r19,r3,801398 <__kernel_rem_pio2f+0x9dc>
		y[0] = (ih==0)? fw: -fw; 
  8013ac:	d8c00117 	ldw	r3,4(sp)
  8013b0:	1800121e 	bne	r3,zero,8013fc <__kernel_rem_pio2f+0xa40>
  8013b4:	d9000b17 	ldw	r4,44(sp)
		fw = fq[0]-fw;
  8013b8:	d8c03817 	ldw	r3,224(sp)
		y[0] = (ih==0)? fw: -fw; 
  8013bc:	20800015 	stw	r2,0(r4)
		fw = fq[0]-fw;
  8013c0:	1885c0b2 	custom	2,r2,r3,r2
		for (i=1;i<=jz;i++) fw += fq[i];
  8013c4:	07000a0e 	bge	zero,fp,8013f0 <__kernel_rem_pio2f+0xa34>
  8013c8:	d9003904 	addi	r4,sp,228
  8013cc:	00c00044 	movi	r3,1
  8013d0:	21400017 	ldw	r5,0(r4)
  8013d4:	18c00044 	addi	r3,r3,1
  8013d8:	21000104 	addi	r4,r4,4
  8013dc:	1145c072 	custom	1,r2,r2,r5
  8013e0:	e0fffb0e 	bge	fp,r3,8013d0 <__kernel_rem_pio2f+0xa14>
		y[1] = (ih==0)? fw: -fw; 
  8013e4:	d8c00117 	ldw	r3,4(sp)
  8013e8:	18000126 	beq	r3,zero,8013f0 <__kernel_rem_pio2f+0xa34>
  8013ec:	10a0003c 	xorhi	r2,r2,32768
  8013f0:	d8c00b17 	ldw	r3,44(sp)
  8013f4:	18800115 	stw	r2,4(r3)
		break;
  8013f8:	003f6606 	br	801194 <__kernel_rem_pio2f+0x7d8>
		y[0] = (ih==0)? fw: -fw; 
  8013fc:	d9400b17 	ldw	r5,44(sp)
		fw = fq[0]-fw;
  801400:	d8c03817 	ldw	r3,224(sp)
		y[0] = (ih==0)? fw: -fw; 
  801404:	1120003c 	xorhi	r4,r2,32768
  801408:	29000015 	stw	r4,0(r5)
		fw = fq[0]-fw;
  80140c:	1885c0b2 	custom	2,r2,r3,r2
		for (i=1;i<=jz;i++) fw += fq[i];
  801410:	073fed16 	blt	zero,fp,8013c8 <__kernel_rem_pio2f+0xa0c>
  801414:	003ff506 	br	8013ec <__kernel_rem_pio2f+0xa30>
		    y[0] = -fq[0]; y[1] = -fq[1]; y[2] = -fw;
  801418:	d9400b17 	ldw	r5,44(sp)
  80141c:	2120003c 	xorhi	r4,r4,32768
  801420:	18e0003c 	xorhi	r3,r3,32768
  801424:	10a0003c 	xorhi	r2,r2,32768
  801428:	29000015 	stw	r4,0(r5)
  80142c:	28c00115 	stw	r3,4(r5)
  801430:	28800215 	stw	r2,8(r5)
  801434:	003f5706 	br	801194 <__kernel_rem_pio2f+0x7d8>
	switch(prec) {
  801438:	d8806a17 	ldw	r2,424(sp)
  80143c:	108000c8 	cmpgei	r2,r2,3
  801440:	1000051e 	bne	r2,zero,801458 <__kernel_rem_pio2f+0xa9c>
  801444:	d8806a17 	ldw	r2,424(sp)
  801448:	00800816 	blt	zero,r2,80146c <__kernel_rem_pio2f+0xab0>
  80144c:	103f511e 	bne	r2,zero,801194 <__kernel_rem_pio2f+0x7d8>
  801450:	0005883a 	mov	r2,zero
  801454:	003f4a06 	br	801180 <__kernel_rem_pio2f+0x7c4>
  801458:	d8806a17 	ldw	r2,424(sp)
  80145c:	108000e0 	cmpeqi	r2,r2,3
  801460:	103f4c26 	beq	r2,zero,801194 <__kernel_rem_pio2f+0x7d8>
		for (fw=0.0,i=jz;i>=2;i--) fw += fq[i]; 
  801464:	0005883a 	mov	r2,zero
  801468:	003fb506 	br	801340 <__kernel_rem_pio2f+0x984>
		fw = 0.0;
  80146c:	0005883a 	mov	r2,zero
  801470:	003fce06 	br	8013ac <__kernel_rem_pio2f+0x9f0>

00801474 <__kernel_sinf>:
#endif
{
	float z,r,v;
	__int32_t ix;
	GET_FLOAT_WORD(ix,x);
	ix &= 0x7fffffff;			/* high word of x */
  801474:	00a00034 	movhi	r2,32768
{
  801478:	defffc04 	addi	sp,sp,-16
	ix &= 0x7fffffff;			/* high word of x */
  80147c:	10bfffc4 	addi	r2,r2,-1
{
  801480:	dc800215 	stw	r18,8(sp)
  801484:	dc400115 	stw	r17,4(sp)
  801488:	dc000015 	stw	r16,0(sp)
  80148c:	dfc00315 	stw	ra,12(sp)
	ix &= 0x7fffffff;			/* high word of x */
  801490:	1104703a 	and	r2,r2,r4
	if(ix<0x32000000)			/* |x| < 2**-27 */
  801494:	00cc8034 	movhi	r3,12800
{
  801498:	2021883a 	mov	r16,r4
  80149c:	2825883a 	mov	r18,r5
  8014a0:	3023883a 	mov	r17,r6
	if(ix<0x32000000)			/* |x| < 2**-27 */
  8014a4:	10c0020e 	bge	r2,r3,8014b0 <__kernel_sinf+0x3c>
	   {if((int)x==0) return x;}		/* generate inexact */
  8014a8:	080185c0 	call	80185c <__fixsfsi>
  8014ac:	10002d26 	beq	r2,zero,801564 <__kernel_sinf+0xf0>
	z	=  x*x;
	v	=  z*x;
	r	=  S2+z*(S3+z*(S4+z*(S5+z*S6)));
  8014b0:	00cbcbf4 	movhi	r3,12079
	z	=  x*x;
  8014b4:	8409c032 	custom	0,r4,r16,r16
	r	=  S2+z*(S3+z*(S4+z*(S5+z*S6)));
  8014b8:	18f274c4 	addi	r3,r3,-13869
  8014bc:	008cb5f4 	movhi	r2,13015
  8014c0:	108bcd04 	addi	r2,r2,12084
  8014c4:	20c7c032 	custom	0,r3,r4,r3
  8014c8:	1887c0b2 	custom	2,r3,r3,r2
  8014cc:	008d8e74 	movhi	r2,13881
  8014d0:	10bbc6c4 	addi	r2,r2,-4325
  8014d4:	1907c032 	custom	0,r3,r3,r4
  8014d8:	1887c072 	custom	1,r3,r3,r2
  8014dc:	008e5434 	movhi	r2,14672
  8014e0:	10834044 	addi	r2,r2,3329
  8014e4:	1907c032 	custom	0,r3,r3,r4
  8014e8:	1887c0b2 	custom	2,r3,r3,r2
  8014ec:	014f0274 	movhi	r5,15369
  8014f0:	1907c032 	custom	0,r3,r3,r4
  8014f4:	29622244 	addi	r5,r5,-30583
	v	=  z*x;
  8014f8:	8105c032 	custom	0,r2,r16,r4
	r	=  S2+z*(S3+z*(S4+z*(S5+z*S6)));
  8014fc:	1947c072 	custom	1,r3,r3,r5
	if(iy==0) return x+v*(S1+z*r);
  801500:	88001126 	beq	r17,zero,801548 <__kernel_sinf+0xd4>
	else      return x-((z*(half*y-v*r)-y)-v*S1);
  801504:	018fc034 	movhi	r6,16128
  801508:	014f8af4 	movhi	r5,15915
  80150c:	10c7c032 	custom	0,r3,r2,r3
  801510:	918dc032 	custom	0,r6,r18,r6
  801514:	296aaac4 	addi	r5,r5,-21845
  801518:	1145c032 	custom	0,r2,r2,r5
  80151c:	1987c0b2 	custom	2,r3,r3,r6
  801520:	84a1c072 	custom	1,r16,r16,r18
  801524:	1907c032 	custom	0,r3,r3,r4
  801528:	80a1c0b2 	custom	2,r16,r16,r2
  80152c:	1c05c072 	custom	1,r2,r3,r16
}
  801530:	dfc00317 	ldw	ra,12(sp)
  801534:	dc800217 	ldw	r18,8(sp)
  801538:	dc400117 	ldw	r17,4(sp)
  80153c:	dc000017 	ldw	r16,0(sp)
  801540:	dec00404 	addi	sp,sp,16
  801544:	f800283a 	ret
	if(iy==0) return x+v*(S1+z*r);
  801548:	014f8af4 	movhi	r5,15915
  80154c:	20c9c032 	custom	0,r4,r4,r3
  801550:	296aaac4 	addi	r5,r5,-21845
  801554:	2149c0b2 	custom	2,r4,r4,r5
  801558:	2089c032 	custom	0,r4,r4,r2
  80155c:	2405c072 	custom	1,r2,r4,r16
  801560:	003ff306 	br	801530 <__kernel_sinf+0xbc>
	   {if((int)x==0) return x;}		/* generate inexact */
  801564:	8005883a 	mov	r2,r16
  801568:	003ff106 	br	801530 <__kernel_sinf+0xbc>

0080156c <floorf>:
#endif
{
	__int32_t i0,j0;
	__uint32_t i,ix;
	GET_FLOAT_WORD(i0,x);
	ix = (i0&0x7fffffff);
  80156c:	00e00034 	movhi	r3,32768
{
  801570:	defffb04 	addi	sp,sp,-20
	ix = (i0&0x7fffffff);
  801574:	18ffffc4 	addi	r3,r3,-1
{
  801578:	dc000015 	stw	r16,0(sp)
	ix = (i0&0x7fffffff);
  80157c:	1920703a 	and	r16,r3,r4
{
  801580:	dc800215 	stw	r18,8(sp)
	j0 = (ix>>23)-0x7f;
  801584:	8024d5fa 	srli	r18,r16,23
{
  801588:	dc400115 	stw	r17,4(sp)
  80158c:	dfc00415 	stw	ra,16(sp)
	j0 = (ix>>23)-0x7f;
  801590:	94bfe044 	addi	r18,r18,-127
{
  801594:	dcc00315 	stw	r19,12(sp)
	if(j0<23) {
  801598:	908005c8 	cmpgei	r2,r18,23
{
  80159c:	2023883a 	mov	r17,r4
	if(j0<23) {
  8015a0:	1000201e 	bne	r2,zero,801624 <floorf+0xb8>
  8015a4:	2027883a 	mov	r19,r4
	    if(j0<0) { 	/* raise inexact if x != 0 */
  8015a8:	90001716 	blt	r18,zero,801608 <floorf+0x9c>
		    if(i0>=0) {i0=0;} 
		    else if(!FLT_UWORD_IS_ZERO(ix))
			{ i0=0xbf800000;}
		}
	    } else {
		i = (0x007fffff)>>j0;
  8015ac:	00802034 	movhi	r2,128
  8015b0:	10bfffc4 	addi	r2,r2,-1
  8015b4:	14a1d83a 	sra	r16,r2,r18
		if((i0&i)==0) return x; /* x is integral */
  8015b8:	2404703a 	and	r2,r4,r16
  8015bc:	10000a26 	beq	r2,zero,8015e8 <floorf+0x7c>
		if(huge+x>(float)0.0) {	/* raise inexact flag */
  8015c0:	017c52b4 	movhi	r5,61770
  8015c4:	297cb284 	addi	r5,r5,-3382
  8015c8:	08017a40 	call	8017a4 <__gesf2>
  8015cc:	0080060e 	bge	zero,r2,8015e8 <floorf+0x7c>
		    if(i0<0) i0 += (0x00800000)>>j0;
  8015d0:	8800030e 	bge	r17,zero,8015e0 <floorf+0x74>
  8015d4:	00802034 	movhi	r2,128
  8015d8:	14a5d83a 	sra	r18,r2,r18
  8015dc:	9467883a 	add	r19,r18,r17
		    i0 &= (~i);
  8015e0:	0404303a 	nor	r2,zero,r16
	    }
	} else {
	    if(!FLT_UWORD_IS_FINITE(ix)) return x+x;	/* inf or NaN */
	    else return x;		/* x is integral */
	}
	SET_FLOAT_WORD(x,i0);
  8015e4:	14e2703a 	and	r17,r2,r19
		if((i0&i)==0) return x; /* x is integral */
  8015e8:	8805883a 	mov	r2,r17
	return x;
}
  8015ec:	dfc00417 	ldw	ra,16(sp)
  8015f0:	dcc00317 	ldw	r19,12(sp)
  8015f4:	dc800217 	ldw	r18,8(sp)
  8015f8:	dc400117 	ldw	r17,4(sp)
  8015fc:	dc000017 	ldw	r16,0(sp)
  801600:	dec00504 	addi	sp,sp,20
  801604:	f800283a 	ret
		if(huge+x>(float)0.0) {/* return 0*sign(x) if |x|<1 */
  801608:	017c52b4 	movhi	r5,61770
  80160c:	297cb284 	addi	r5,r5,-3382
  801610:	08017a40 	call	8017a4 <__gesf2>
  801614:	00bff40e 	bge	zero,r2,8015e8 <floorf+0x7c>
		    if(i0>=0) {i0=0;} 
  801618:	88000616 	blt	r17,zero,801634 <floorf+0xc8>
  80161c:	0023883a 	mov	r17,zero
	return x;
  801620:	003ff106 	br	8015e8 <floorf+0x7c>
	    if(!FLT_UWORD_IS_FINITE(ix)) return x+x;	/* inf or NaN */
  801624:	009fe034 	movhi	r2,32640
  801628:	80bfef36 	bltu	r16,r2,8015e8 <floorf+0x7c>
  80162c:	2105c072 	custom	1,r2,r4,r4
  801630:	003fee06 	br	8015ec <floorf+0x80>
		    else if(!FLT_UWORD_IS_ZERO(ix))
  801634:	803fec26 	beq	r16,zero,8015e8 <floorf+0x7c>
  801638:	046fe034 	movhi	r17,49024
  80163c:	003fea06 	br	8015e8 <floorf+0x7c>

00801640 <scalbnf>:
{
	__int32_t  k,ix;
	__uint32_t hx;

	GET_FLOAT_WORD(ix,x);
	hx = ix&0x7fffffff;
  801640:	00a00034 	movhi	r2,32768
  801644:	10bfffc4 	addi	r2,r2,-1
  801648:	1104703a 	and	r2,r2,r4
	GET_FLOAT_WORD(ix,x);
  80164c:	2007883a 	mov	r3,r4
        k = hx>>23;		/* extract exponent */
	if (FLT_UWORD_IS_ZERO(hx))
  801650:	10001626 	beq	r2,zero,8016ac <scalbnf+0x6c>
	    return x;
        if (!FLT_UWORD_IS_FINITE(hx))
  801654:	019fe034 	movhi	r6,32640
  801658:	1180122e 	bgeu	r2,r6,8016a4 <scalbnf+0x64>
	    return x+x;		/* NaN or Inf */
        if (FLT_UWORD_IS_SUBNORMAL(hx)) {
  80165c:	219fe02c 	andhi	r6,r4,32640
  801660:	3000141e 	bne	r6,zero,8016b4 <scalbnf+0x74>
	    x *= two25;
	    GET_FLOAT_WORD(ix,x);
	    k = ((ix&0x7f800000)>>23) - 25; 
            if (n< -50000) return tiny*x; 	/*underflow*/
  801664:	00bffff4 	movhi	r2,65535
	    x *= two25;
  801668:	00d30034 	movhi	r3,19456
            if (n< -50000) return tiny*x; 	/*underflow*/
  80166c:	108f2c04 	addi	r2,r2,15536
	    x *= two25;
  801670:	20c9c032 	custom	0,r4,r4,r3
            if (n< -50000) return tiny*x; 	/*underflow*/
  801674:	28802216 	blt	r5,r2,801700 <scalbnf+0xc0>
	    k = ((ix&0x7f800000)>>23) - 25; 
  801678:	2005d5fa 	srai	r2,r4,23
	    GET_FLOAT_WORD(ix,x);
  80167c:	2007883a 	mov	r3,r4
	    k = ((ix&0x7f800000)>>23) - 25; 
  801680:	10803fcc 	andi	r2,r2,255
  801684:	10bff9c4 	addi	r2,r2,-25
        }
        k = k+n; 
  801688:	1145883a 	add	r2,r2,r5
        if (k > FLT_LARGEST_EXP) return huge*copysignf(huge,x); /* overflow  */
  80168c:	11803fd0 	cmplti	r6,r2,255
  801690:	30000c1e 	bne	r6,zero,8016c4 <scalbnf+0x84>
        if (k > 0) 				/* normal result */
	    {SET_FLOAT_WORD(x,(ix&0x807fffff)|(k<<23)); return x;}
        if (k < FLT_SMALLEST_EXP) {
            if (n > OVERFLOW_INT) 	/* in case integer overflow in n+k */
		return huge*copysignf(huge,x);	/*overflow*/
  801694:	009fe034 	movhi	r2,32640
  801698:	2000050e 	bge	r4,zero,8016b0 <scalbnf+0x70>
  80169c:	00bfe034 	movhi	r2,65408
  8016a0:	f800283a 	ret
	    return x+x;		/* NaN or Inf */
  8016a4:	2105c072 	custom	1,r2,r4,r4
  8016a8:	f800283a 	ret
	    return x;
  8016ac:	2005883a 	mov	r2,r4
	    else return tiny*copysignf(tiny,x);	/*underflow*/
        }
        k += 25;				/* subnormal result */
	SET_FLOAT_WORD(x,(ix&0x807fffff)|(k<<23));
        return x*twom25;
}
  8016b0:	f800283a 	ret
        k = hx>>23;		/* extract exponent */
  8016b4:	1004d5fa 	srli	r2,r2,23
        k = k+n; 
  8016b8:	1145883a 	add	r2,r2,r5
        if (k > FLT_LARGEST_EXP) return huge*copysignf(huge,x); /* overflow  */
  8016bc:	11803fd0 	cmplti	r6,r2,255
  8016c0:	303ff426 	beq	r6,zero,801694 <scalbnf+0x54>
        if (k > 0) 				/* normal result */
  8016c4:	00800816 	blt	zero,r2,8016e8 <scalbnf+0xa8>
        if (k < FLT_SMALLEST_EXP) {
  8016c8:	11bffa88 	cmpgei	r6,r2,-22
  8016cc:	3000101e 	bne	r6,zero,801710 <scalbnf+0xd0>
            if (n > OVERFLOW_INT) 	/* in case integer overflow in n+k */
  8016d0:	00b0d414 	movui	r2,50000
  8016d4:	117fef16 	blt	r2,r5,801694 <scalbnf+0x54>
	    else return tiny*copysignf(tiny,x);	/*underflow*/
  8016d8:	0005883a 	mov	r2,zero
  8016dc:	203ff40e 	bge	r4,zero,8016b0 <scalbnf+0x70>
  8016e0:	00a00034 	movhi	r2,32768
  8016e4:	f800283a 	ret
	    {SET_FLOAT_WORD(x,(ix&0x807fffff)|(k<<23)); return x;}
  8016e8:	100495fa 	slli	r2,r2,23
  8016ec:	01202034 	movhi	r4,32896
  8016f0:	213fffc4 	addi	r4,r4,-1
  8016f4:	1906703a 	and	r3,r3,r4
  8016f8:	1884b03a 	or	r2,r3,r2
  8016fc:	f800283a 	ret
            if (n< -50000) return tiny*x; 	/*underflow*/
  801700:	008368b4 	movhi	r2,3490
  801704:	10909804 	addi	r2,r2,16992
  801708:	2085c032 	custom	0,r2,r4,r2
  80170c:	f800283a 	ret
        k += 25;				/* subnormal result */
  801710:	10800644 	addi	r2,r2,25
	SET_FLOAT_WORD(x,(ix&0x807fffff)|(k<<23));
  801714:	100495fa 	slli	r2,r2,23
  801718:	01202034 	movhi	r4,32896
  80171c:	213fffc4 	addi	r4,r4,-1
  801720:	1906703a 	and	r3,r3,r4
  801724:	10c4b03a 	or	r2,r2,r3
        return x*twom25;
  801728:	00ccc034 	movhi	r3,13056
  80172c:	10c5c032 	custom	0,r2,r2,r3
  801730:	f800283a 	ret

00801734 <__eqsf2>:
  801734:	200cd5fa 	srli	r6,r4,23
  801738:	2806d5fa 	srli	r3,r5,23
  80173c:	00802034 	movhi	r2,128
  801740:	31803fcc 	andi	r6,r6,255
  801744:	10bfffc4 	addi	r2,r2,-1
  801748:	31c03fd8 	cmpnei	r7,r6,255
  80174c:	2010d7fa 	srli	r8,r4,31
  801750:	2812d7fa 	srli	r9,r5,31
  801754:	1108703a 	and	r4,r2,r4
  801758:	18c03fcc 	andi	r3,r3,255
  80175c:	1144703a 	and	r2,r2,r5
  801760:	38000626 	beq	r7,zero,80177c <__eqsf2+0x48>
  801764:	19403fe0 	cmpeqi	r5,r3,255
  801768:	2800021e 	bne	r5,zero,801774 <__eqsf2+0x40>
  80176c:	30c0011e 	bne	r6,r3,801774 <__eqsf2+0x40>
  801770:	20800626 	beq	r4,r2,80178c <__eqsf2+0x58>
  801774:	00800044 	movi	r2,1
  801778:	f800283a 	ret
  80177c:	203ffd1e 	bne	r4,zero,801774 <__eqsf2+0x40>
  801780:	18c03fd8 	cmpnei	r3,r3,255
  801784:	183ffb1e 	bne	r3,zero,801774 <__eqsf2+0x40>
  801788:	103ffa1e 	bne	r2,zero,801774 <__eqsf2+0x40>
  80178c:	42400326 	beq	r8,r9,80179c <__eqsf2+0x68>
  801790:	303ff81e 	bne	r6,zero,801774 <__eqsf2+0x40>
  801794:	2004c03a 	cmpne	r2,r4,zero
  801798:	f800283a 	ret
  80179c:	0005883a 	mov	r2,zero
  8017a0:	f800283a 	ret

008017a4 <__gesf2>:
  8017a4:	200cd5fa 	srli	r6,r4,23
  8017a8:	280ed5fa 	srli	r7,r5,23
  8017ac:	00c02034 	movhi	r3,128
  8017b0:	31803fcc 	andi	r6,r6,255
  8017b4:	18ffffc4 	addi	r3,r3,-1
  8017b8:	32003fd8 	cmpnei	r8,r6,255
  8017bc:	2012d7fa 	srli	r9,r4,31
  8017c0:	2804d7fa 	srli	r2,r5,31
  8017c4:	1908703a 	and	r4,r3,r4
  8017c8:	1946703a 	and	r3,r3,r5
  8017cc:	39403fcc 	andi	r5,r7,255
  8017d0:	40000826 	beq	r8,zero,8017f4 <__gesf2+0x50>
  8017d4:	29c03fd8 	cmpnei	r7,r5,255
  8017d8:	38000926 	beq	r7,zero,801800 <__gesf2+0x5c>
  8017dc:	3000121e 	bne	r6,zero,801828 <__gesf2+0x84>
  8017e0:	28000e1e 	bne	r5,zero,80181c <__gesf2+0x78>
  8017e4:	18000d1e 	bne	r3,zero,80181c <__gesf2+0x78>
  8017e8:	2000081e 	bne	r4,zero,80180c <__gesf2+0x68>
  8017ec:	0005883a 	mov	r2,zero
  8017f0:	f800283a 	ret
  8017f4:	2000171e 	bne	r4,zero,801854 <__gesf2+0xb0>
  8017f8:	29c03fe0 	cmpeqi	r7,r5,255
  8017fc:	38000a26 	beq	r7,zero,801828 <__gesf2+0x84>
  801800:	1800141e 	bne	r3,zero,801854 <__gesf2+0xb0>
  801804:	30000526 	beq	r6,zero,80181c <__gesf2+0x78>
  801808:	48800a26 	beq	r9,r2,801834 <__gesf2+0x90>
  80180c:	00800044 	movi	r2,1
  801810:	48000426 	beq	r9,zero,801824 <__gesf2+0x80>
  801814:	00bfffc4 	movi	r2,-1
  801818:	f800283a 	ret
  80181c:	203ffa1e 	bne	r4,zero,801808 <__gesf2+0x64>
  801820:	103ffc26 	beq	r2,zero,801814 <__gesf2+0x70>
  801824:	f800283a 	ret
  801828:	283ff71e 	bne	r5,zero,801808 <__gesf2+0x64>
  80182c:	183ff61e 	bne	r3,zero,801808 <__gesf2+0x64>
  801830:	003ff606 	br	80180c <__gesf2+0x68>
  801834:	29800416 	blt	r5,r6,801848 <__gesf2+0xa4>
  801838:	317ff916 	blt	r6,r5,801820 <__gesf2+0x7c>
  80183c:	19000236 	bltu	r3,r4,801848 <__gesf2+0xa4>
  801840:	20ffea2e 	bgeu	r4,r3,8017ec <__gesf2+0x48>
  801844:	003ff606 	br	801820 <__gesf2+0x7c>
  801848:	103ff21e 	bne	r2,zero,801814 <__gesf2+0x70>
  80184c:	00800044 	movi	r2,1
  801850:	f800283a 	ret
  801854:	00bfff84 	movi	r2,-2
  801858:	f800283a 	ret

0080185c <__fixsfsi>:
  80185c:	200ad5fa 	srli	r5,r4,23
  801860:	00c02034 	movhi	r3,128
  801864:	18ffffc4 	addi	r3,r3,-1
  801868:	29403fcc 	andi	r5,r5,255
  80186c:	29801fd0 	cmplti	r6,r5,127
  801870:	200ed7fa 	srli	r7,r4,31
  801874:	1906703a 	and	r3,r3,r4
  801878:	3000061e 	bne	r6,zero,801894 <__fixsfsi+0x38>
  80187c:	28802790 	cmplti	r2,r5,158
  801880:	1000061e 	bne	r2,zero,80189c <__fixsfsi+0x40>
  801884:	00a00034 	movhi	r2,32768
  801888:	10bfffc4 	addi	r2,r2,-1
  80188c:	3885883a 	add	r2,r7,r2
  801890:	f800283a 	ret
  801894:	0005883a 	mov	r2,zero
  801898:	f800283a 	ret
  80189c:	28802590 	cmplti	r2,r5,150
  8018a0:	18c02034 	orhi	r3,r3,128
  8018a4:	1000051e 	bne	r2,zero,8018bc <__fixsfsi+0x60>
  8018a8:	28bfda84 	addi	r2,r5,-150
  8018ac:	1884983a 	sll	r2,r3,r2
  8018b0:	383ff926 	beq	r7,zero,801898 <__fixsfsi+0x3c>
  8018b4:	0085c83a 	sub	r2,zero,r2
  8018b8:	f800283a 	ret
  8018bc:	00802584 	movi	r2,150
  8018c0:	1145c83a 	sub	r2,r2,r5
  8018c4:	1884d83a 	srl	r2,r3,r2
  8018c8:	003ff906 	br	8018b0 <__fixsfsi+0x54>

008018cc <__floatsisf>:
  8018cc:	defffd04 	addi	sp,sp,-12
  8018d0:	dfc00215 	stw	ra,8(sp)
  8018d4:	dc400115 	stw	r17,4(sp)
  8018d8:	dc000015 	stw	r16,0(sp)
  8018dc:	20001226 	beq	r4,zero,801928 <__floatsisf+0x5c>
  8018e0:	2022d7fa 	srli	r17,r4,31
  8018e4:	2021883a 	mov	r16,r4
  8018e8:	20003816 	blt	r4,zero,8019cc <__floatsisf+0x100>
  8018ec:	8009883a 	mov	r4,r16
  8018f0:	0801aec0 	call	801aec <__clzsi2>
  8018f4:	1009883a 	mov	r4,r2
  8018f8:	00802784 	movi	r2,158
  8018fc:	1105c83a 	sub	r2,r2,r4
  801900:	10c025c8 	cmpgei	r3,r2,151
  801904:	1800151e 	bne	r3,zero,80195c <__floatsisf+0x90>
  801908:	20c00248 	cmpgei	r3,r4,9
  80190c:	18003126 	beq	r3,zero,8019d4 <__floatsisf+0x108>
  801910:	213ffe04 	addi	r4,r4,-8
  801914:	8120983a 	sll	r16,r16,r4
  801918:	00c02034 	movhi	r3,128
  80191c:	18ffffc4 	addi	r3,r3,-1
  801920:	80e0703a 	and	r16,r16,r3
  801924:	00000306 	br	801934 <__floatsisf+0x68>
  801928:	0023883a 	mov	r17,zero
  80192c:	0005883a 	mov	r2,zero
  801930:	0021883a 	mov	r16,zero
  801934:	10803fcc 	andi	r2,r2,255
  801938:	100495fa 	slli	r2,r2,23
  80193c:	882297fa 	slli	r17,r17,31
  801940:	1404b03a 	or	r2,r2,r16
  801944:	1444b03a 	or	r2,r2,r17
  801948:	dfc00217 	ldw	ra,8(sp)
  80194c:	dc400117 	ldw	r17,4(sp)
  801950:	dc000017 	ldw	r16,0(sp)
  801954:	dec00304 	addi	sp,sp,12
  801958:	f800283a 	ret
  80195c:	10c02690 	cmplti	r3,r2,154
  801960:	1800071e 	bne	r3,zero,801980 <__floatsisf+0xb4>
  801964:	20c006c4 	addi	r3,r4,27
  801968:	01400144 	movi	r5,5
  80196c:	80c6983a 	sll	r3,r16,r3
  801970:	290bc83a 	sub	r5,r5,r4
  801974:	814ad83a 	srl	r5,r16,r5
  801978:	1806c03a 	cmpne	r3,r3,zero
  80197c:	28e0b03a 	or	r16,r5,r3
  801980:	20c00188 	cmpgei	r3,r4,6
  801984:	1800171e 	bne	r3,zero,8019e4 <__floatsisf+0x118>
  801988:	00ff0034 	movhi	r3,64512
  80198c:	18ffffc4 	addi	r3,r3,-1
  801990:	818001cc 	andi	r6,r16,7
  801994:	80ca703a 	and	r5,r16,r3
  801998:	30000926 	beq	r6,zero,8019c0 <__floatsisf+0xf4>
  80199c:	818003cc 	andi	r6,r16,15
  8019a0:	31800120 	cmpeqi	r6,r6,4
  8019a4:	3000061e 	bne	r6,zero,8019c0 <__floatsisf+0xf4>
  8019a8:	29400104 	addi	r5,r5,4
  8019ac:	2981002c 	andhi	r6,r5,1024
  8019b0:	30000326 	beq	r6,zero,8019c0 <__floatsisf+0xf4>
  8019b4:	28ca703a 	and	r5,r5,r3
  8019b8:	00c027c4 	movi	r3,159
  8019bc:	1905c83a 	sub	r2,r3,r4
  8019c0:	282091ba 	slli	r16,r5,6
  8019c4:	8020d27a 	srli	r16,r16,9
  8019c8:	003fda06 	br	801934 <__floatsisf+0x68>
  8019cc:	0121c83a 	sub	r16,zero,r4
  8019d0:	003fc606 	br	8018ec <__floatsisf+0x20>
  8019d4:	01002034 	movhi	r4,128
  8019d8:	213fffc4 	addi	r4,r4,-1
  8019dc:	8120703a 	and	r16,r16,r4
  8019e0:	003fd406 	br	801934 <__floatsisf+0x68>
  8019e4:	20fffec4 	addi	r3,r4,-5
  8019e8:	80e0983a 	sll	r16,r16,r3
  8019ec:	003fe606 	br	801988 <__floatsisf+0xbc>

008019f0 <__extendsfdf2>:
  8019f0:	200ad5fa 	srli	r5,r4,23
  8019f4:	defffd04 	addi	sp,sp,-12
  8019f8:	dc000015 	stw	r16,0(sp)
  8019fc:	29403fcc 	andi	r5,r5,255
  801a00:	04002034 	movhi	r16,128
  801a04:	28800044 	addi	r2,r5,1
  801a08:	dc400115 	stw	r17,4(sp)
  801a0c:	843fffc4 	addi	r16,r16,-1
  801a10:	dfc00215 	stw	ra,8(sp)
  801a14:	10803f8c 	andi	r2,r2,254
  801a18:	2022d7fa 	srli	r17,r4,31
  801a1c:	8120703a 	and	r16,r16,r4
  801a20:	10000d26 	beq	r2,zero,801a58 <__extendsfdf2+0x68>
  801a24:	8008d0fa 	srli	r4,r16,3
  801a28:	8020977a 	slli	r16,r16,29
  801a2c:	28c0e004 	addi	r3,r5,896
  801a30:	180a953a 	slli	r5,r3,20
  801a34:	880697fa 	slli	r3,r17,31
  801a38:	8005883a 	mov	r2,r16
  801a3c:	290ab03a 	or	r5,r5,r4
  801a40:	28c6b03a 	or	r3,r5,r3
  801a44:	dfc00217 	ldw	ra,8(sp)
  801a48:	dc400117 	ldw	r17,4(sp)
  801a4c:	dc000017 	ldw	r16,0(sp)
  801a50:	dec00304 	addi	sp,sp,12
  801a54:	f800283a 	ret
  801a58:	2800111e 	bne	r5,zero,801aa0 <__extendsfdf2+0xb0>
  801a5c:	80001926 	beq	r16,zero,801ac4 <__extendsfdf2+0xd4>
  801a60:	8009883a 	mov	r4,r16
  801a64:	0801aec0 	call	801aec <__clzsi2>
  801a68:	10c002c8 	cmpgei	r3,r2,11
  801a6c:	18001b1e 	bne	r3,zero,801adc <__extendsfdf2+0xec>
  801a70:	010002c4 	movi	r4,11
  801a74:	2089c83a 	sub	r4,r4,r2
  801a78:	10c00544 	addi	r3,r2,21
  801a7c:	810ad83a 	srl	r5,r16,r4
  801a80:	80e0983a 	sll	r16,r16,r3
  801a84:	01000434 	movhi	r4,16
  801a88:	00c0e244 	movi	r3,905
  801a8c:	213fffc4 	addi	r4,r4,-1
  801a90:	1887c83a 	sub	r3,r3,r2
  801a94:	2908703a 	and	r4,r5,r4
  801a98:	18c1ffcc 	andi	r3,r3,2047
  801a9c:	003fe406 	br	801a30 <__extendsfdf2+0x40>
  801aa0:	80000b26 	beq	r16,zero,801ad0 <__extendsfdf2+0xe0>
  801aa4:	800ad0fa 	srli	r5,r16,3
  801aa8:	00800434 	movhi	r2,16
  801aac:	10bfffc4 	addi	r2,r2,-1
  801ab0:	29000234 	orhi	r4,r5,8
  801ab4:	8020977a 	slli	r16,r16,29
  801ab8:	2088703a 	and	r4,r4,r2
  801abc:	00c1ffc4 	movi	r3,2047
  801ac0:	003fdb06 	br	801a30 <__extendsfdf2+0x40>
  801ac4:	0007883a 	mov	r3,zero
  801ac8:	0009883a 	mov	r4,zero
  801acc:	003fd806 	br	801a30 <__extendsfdf2+0x40>
  801ad0:	00c1ffc4 	movi	r3,2047
  801ad4:	0009883a 	mov	r4,zero
  801ad8:	003fd506 	br	801a30 <__extendsfdf2+0x40>
  801adc:	113ffd44 	addi	r4,r2,-11
  801ae0:	810a983a 	sll	r5,r16,r4
  801ae4:	0021883a 	mov	r16,zero
  801ae8:	003fe606 	br	801a84 <__extendsfdf2+0x94>

00801aec <__clzsi2>:
  801aec:	00bfffd4 	movui	r2,65535
  801af0:	11000436 	bltu	r2,r4,801b04 <__clzsi2+0x18>
  801af4:	20804030 	cmpltui	r2,r4,256
  801af8:	10000e26 	beq	r2,zero,801b34 <__clzsi2+0x48>
  801afc:	01400804 	movi	r5,32
  801b00:	00000406 	br	801b14 <__clzsi2+0x28>
  801b04:	00804034 	movhi	r2,256
  801b08:	20800736 	bltu	r4,r2,801b28 <__clzsi2+0x3c>
  801b0c:	2008d63a 	srli	r4,r4,24
  801b10:	01400204 	movi	r5,8
  801b14:	00c02074 	movhi	r3,129
  801b18:	20c7883a 	add	r3,r4,r3
  801b1c:	188b6503 	ldbu	r2,11668(r3)
  801b20:	2885c83a 	sub	r2,r5,r2
  801b24:	f800283a 	ret
  801b28:	2008d43a 	srli	r4,r4,16
  801b2c:	01400404 	movi	r5,16
  801b30:	003ff806 	br	801b14 <__clzsi2+0x28>
  801b34:	2008d23a 	srli	r4,r4,8
  801b38:	01400604 	movi	r5,24
  801b3c:	003ff506 	br	801b14 <__clzsi2+0x28>

00801b40 <memset>:
  unsigned long buffer;
  unsigned long *aligned_addr;
  unsigned int d = c & 0xff;	/* To avoid sign extension, copy C to an
				   unsigned variable.  */

  while (UNALIGNED (s))
  801b40:	20c000cc 	andi	r3,r4,3
{
  801b44:	2005883a 	mov	r2,r4
  while (UNALIGNED (s))
  801b48:	18003a26 	beq	r3,zero,801c34 <memset+0xf4>
    {
      if (n--)
  801b4c:	31ffffc4 	addi	r7,r6,-1
  801b50:	30003726 	beq	r6,zero,801c30 <memset+0xf0>
        *s++ = (char) c;
  801b54:	2811883a 	mov	r8,r5
  char *s = (char *) m;
  801b58:	2007883a 	mov	r3,r4
  801b5c:	00000306 	br	801b6c <memset+0x2c>
      if (n--)
  801b60:	39ffffc4 	addi	r7,r7,-1
  801b64:	39bfffe0 	cmpeqi	r6,r7,-1
  801b68:	3000311e 	bne	r6,zero,801c30 <memset+0xf0>
        *s++ = (char) c;
  801b6c:	18c00044 	addi	r3,r3,1
  while (UNALIGNED (s))
  801b70:	198000cc 	andi	r6,r3,3
        *s++ = (char) c;
  801b74:	1a3fffc5 	stb	r8,-1(r3)
  while (UNALIGNED (s))
  801b78:	303ff91e 	bne	r6,zero,801b60 <memset+0x20>
      else
        return m;
    }

  if (!TOO_SMALL (n))
  801b7c:	39000130 	cmpltui	r4,r7,4
  801b80:	2000231e 	bne	r4,zero,801c10 <memset+0xd0>
  unsigned int d = c & 0xff;	/* To avoid sign extension, copy C to an
  801b84:	29003fcc 	andi	r4,r5,255
      /* If we get this far, we know that n is large and s is word-aligned. */
      aligned_addr = (unsigned long *) s;

      /* Store D into each char sized location in BUFFER so that
         we can set large blocks quickly.  */
      buffer = (d << 8) | d;
  801b88:	200c923a 	slli	r6,r4,8
      buffer |= (buffer << 16);
      for (i = 32; i < LBLOCKSIZE * 8; i <<= 1)
        buffer = (buffer << i) | buffer;

      /* Unroll the loop.  */
      while (n >= LBLOCKSIZE*4)
  801b8c:	3a000430 	cmpltui	r8,r7,16
      buffer = (d << 8) | d;
  801b90:	3108b03a 	or	r4,r6,r4
      buffer |= (buffer << 16);
  801b94:	200c943a 	slli	r6,r4,16
  801b98:	310cb03a 	or	r6,r6,r4
      while (n >= LBLOCKSIZE*4)
  801b9c:	40000e1e 	bne	r8,zero,801bd8 <memset+0x98>
  801ba0:	393ffc04 	addi	r4,r7,-16
  801ba4:	2008d13a 	srli	r4,r4,4
  801ba8:	21000044 	addi	r4,r4,1
  801bac:	2008913a 	slli	r4,r4,4
  801bb0:	1909883a 	add	r4,r3,r4
        {
          *aligned_addr++ = buffer;
  801bb4:	19800015 	stw	r6,0(r3)
          *aligned_addr++ = buffer;
  801bb8:	19800115 	stw	r6,4(r3)
          *aligned_addr++ = buffer;
  801bbc:	19800215 	stw	r6,8(r3)
          *aligned_addr++ = buffer;
  801bc0:	19800315 	stw	r6,12(r3)
  801bc4:	18c00404 	addi	r3,r3,16
      while (n >= LBLOCKSIZE*4)
  801bc8:	20fffa1e 	bne	r4,r3,801bb4 <memset+0x74>
          n -= 4*LBLOCKSIZE;
        }

      while (n >= LBLOCKSIZE)
  801bcc:	3900030c 	andi	r4,r7,12
          n -= 4*LBLOCKSIZE;
  801bd0:	39c003cc 	andi	r7,r7,15
      while (n >= LBLOCKSIZE)
  801bd4:	20000e26 	beq	r4,zero,801c10 <memset+0xd0>
        {
          *aligned_addr++ = buffer;
          n -= LBLOCKSIZE;
  801bd8:	393fff04 	addi	r4,r7,-4
          *aligned_addr++ = buffer;
  801bdc:	19800015 	stw	r6,0(r3)
      while (n >= LBLOCKSIZE)
  801be0:	22000130 	cmpltui	r8,r4,4
  801be4:	4000051e 	bne	r8,zero,801bfc <memset+0xbc>
          n -= LBLOCKSIZE;
  801be8:	3a3ffe04 	addi	r8,r7,-8
          *aligned_addr++ = buffer;
  801bec:	19800115 	stw	r6,4(r3)
      while (n >= LBLOCKSIZE)
  801bf0:	42000130 	cmpltui	r8,r8,4
  801bf4:	4000011e 	bne	r8,zero,801bfc <memset+0xbc>
          *aligned_addr++ = buffer;
  801bf8:	19800215 	stw	r6,8(r3)
  801bfc:	2008d0ba 	srli	r4,r4,2
          n -= LBLOCKSIZE;
  801c00:	39c000cc 	andi	r7,r7,3
          *aligned_addr++ = buffer;
  801c04:	21000044 	addi	r4,r4,1
  801c08:	200890ba 	slli	r4,r4,2
  801c0c:	1907883a 	add	r3,r3,r4
      s = (char*)aligned_addr;
    }

#endif /* not PREFER_SIZE_OVER_SPEED */

  while (n--)
  801c10:	38000726 	beq	r7,zero,801c30 <memset+0xf0>
    *s++ = (char) c;
  801c14:	19400005 	stb	r5,0(r3)
  while (n--)
  801c18:	39000058 	cmpnei	r4,r7,1
  801c1c:	20000426 	beq	r4,zero,801c30 <memset+0xf0>
    *s++ = (char) c;
  801c20:	19400045 	stb	r5,1(r3)
  while (n--)
  801c24:	39c000a0 	cmpeqi	r7,r7,2
  801c28:	3800011e 	bne	r7,zero,801c30 <memset+0xf0>
    *s++ = (char) c;
  801c2c:	19400085 	stb	r5,2(r3)

  return m;
}
  801c30:	f800283a 	ret
  char *s = (char *) m;
  801c34:	2007883a 	mov	r3,r4
  while (UNALIGNED (s))
  801c38:	300f883a 	mov	r7,r6
  801c3c:	003fcf06 	br	801b7c <memset+0x3c>

00801c40 <_printf_r>:
#include "fvwrite.h"    /* IntelSpecific */

int
_printf_r (struct _reent *ptr,
       const char *__restrict fmt, ...)
{
  801c40:	defffd04 	addi	sp,sp,-12
  801c44:	2805883a 	mov	r2,r5
  801c48:	dfc00015 	stw	ra,0(sp)
  801c4c:	d9800115 	stw	r6,4(sp)
  801c50:	d9c00215 	stw	r7,8(sp)
  va_start (ap, fmt);
/*ret =   _vfprintf_r          (ptr, _stdout_r (ptr), fmt, ap);	*/	/*1.16.0*/	/* IntelSpecific */
/*ret = ___vfprintf_internal_r (ptr, _stdout_r (ptr), fmt, ap);	*/	/*1.16  */	/* IntelSpecific */
/*ret =   _vfprintf_r          (ptr, _stdout_r (ptr), fmt, ap);	*/	/*1.18.0*/	/* IntelSpecific */
/*ret =   _vfprintf_r          (ptr, _stdout_r (ptr), fmt, ap);	*/	/* try1 */	/* IntelSpecific */
  ret = ___vfprintf_internal_r (ptr, _stdout_r (ptr), fmt, ap);		/* try2 */	/* IntelSpecific */
  801c54:	21400217 	ldw	r5,8(r4)
  801c58:	d9c00104 	addi	r7,sp,4
  801c5c:	100d883a 	mov	r6,r2
  801c60:	0801ec80 	call	801ec8 <___vfprintf_internal_r>
  va_end (ap);
  return ret;
}
  801c64:	dfc00017 	ldw	ra,0(sp)
  801c68:	dec00304 	addi	sp,sp,12
  801c6c:	f800283a 	ret

00801c70 <printf>:

#ifndef _REENT_ONLY

int
printf (const char *__restrict fmt, ...)
{
  801c70:	defffc04 	addi	sp,sp,-16
  801c74:	dfc00015 	stw	ra,0(sp)
  801c78:	d9400115 	stw	r5,4(sp)
  801c7c:	d9800215 	stw	r6,8(sp)
  801c80:	d9c00315 	stw	r7,12(sp)
  va_start (ap, fmt);
/*ret =  _vfprintf_r        (ptr, _stdout_r    (ptr), fmt, ap);	*/ /*1.16.0*/	/* IntelSpecific */
/*ret = __vfprintf_internal (     _stdout_r (_REENT), fmt, ap);	*/ /*1.16  */	/* IntelSpecific */
/*ret =  _vfprintf_r        (ptr, _stdout_r    (ptr), fmt, ap);	*/ /*1.18.0*/	/* IntelSpecific */
/*ret =  _vfprintf_r        (ptr, _stdout_r    (ptr), fmt, ap); */ /* try1 */	/* IntelSpecific */
  ret = __vfprintf_internal (     _stdout_r (_REENT), fmt, ap);    /* try2 */	/* IntelSpecific */
  801c84:	d0a00917 	ldw	r2,-32732(gp)
  801c88:	200b883a 	mov	r5,r4
  801c8c:	d9800104 	addi	r6,sp,4
  801c90:	11000217 	ldw	r4,8(r2)
  801c94:	0803e600 	call	803e60 <__vfprintf_internal>
  va_end (ap);
  return ret;
}
  801c98:	dfc00017 	ldw	ra,0(sp)
  801c9c:	dec00404 	addi	sp,sp,16
  801ca0:	f800283a 	ret

00801ca4 <_puts_r>:
 */

int
_puts_r (struct _reent *ptr,
       const char * s)
{
  801ca4:	defff504 	addi	sp,sp,-44
  801ca8:	dc000815 	stw	r16,32(sp)
  801cac:	2021883a 	mov	r16,r4
#ifdef _FVWRITE_IN_STREAMIO
  int result;
  size_t c = strlen (s);
  801cb0:	2809883a 	mov	r4,r5
{
  801cb4:	dc400915 	stw	r17,36(sp)
  801cb8:	dfc00a15 	stw	ra,40(sp)
  801cbc:	2823883a 	mov	r17,r5
  size_t c = strlen (s);
  801cc0:	0801e300 	call	801e30 <strlen>

  iov[0].iov_base = s;
  iov[0].iov_len = c;
  iov[1].iov_base = "\n";
  iov[1].iov_len = 1;
  uio.uio_resid = c + 1;
  801cc4:	11000044 	addi	r4,r2,1
  iov[0].iov_len = c;
  801cc8:	d8800515 	stw	r2,20(sp)
  iov[1].iov_len = 1;
  801ccc:	00800044 	movi	r2,1
  iov[1].iov_base = "\n";
  801cd0:	00c02074 	movhi	r3,129
  iov[1].iov_len = 1;
  801cd4:	d8800715 	stw	r2,28(sp)
  uio.uio_iov = &iov[0];
  801cd8:	d8800404 	addi	r2,sp,16
  iov[1].iov_base = "\n";
  801cdc:	18ca7204 	addi	r3,r3,10696
  uio.uio_iov = &iov[0];
  801ce0:	d8800115 	stw	r2,4(sp)
  uio.uio_iovcnt = 2;
  801ce4:	00800084 	movi	r2,2
  iov[0].iov_base = s;
  801ce8:	dc400415 	stw	r17,16(sp)
  iov[1].iov_base = "\n";
  801cec:	d8c00615 	stw	r3,24(sp)
  uio.uio_resid = c + 1;
  801cf0:	d9000315 	stw	r4,12(sp)
  uio.uio_iovcnt = 2;
  801cf4:	d8800215 	stw	r2,8(sp)

  _REENT_SMALL_CHECK_INIT (ptr);
  fp = _stdout_r (ptr);
  801cf8:	81400217 	ldw	r5,8(r16)
  CHECK_INIT (ptr, fp);
  801cfc:	80000226 	beq	r16,zero,801d08 <_puts_r+0x64>
  801d00:	80800e17 	ldw	r2,56(r16)
  801d04:	10001326 	beq	r2,zero,801d54 <_puts_r+0xb0>
  _newlib_flockfile_start (fp);
  ORIENT (fp, -1);
  801d08:	2880030b 	ldhu	r2,12(r5)
  801d0c:	10c8000c 	andi	r3,r2,8192
  801d10:	1800061e 	bne	r3,zero,801d2c <_puts_r+0x88>
  _newlib_flockfile_start (fp);
  801d14:	28c01917 	ldw	r3,100(r5)
  ORIENT (fp, -1);
  801d18:	0137ffc4 	movi	r4,-8193
  801d1c:	10880014 	ori	r2,r2,8192
  801d20:	1906703a 	and	r3,r3,r4
  801d24:	2880030d 	sth	r2,12(r5)
  801d28:	28c01915 	stw	r3,100(r5)
  result = (__sfvwrite_r (ptr, fp, &uio) ? EOF : '\n');
  801d2c:	d9800104 	addi	r6,sp,4
  801d30:	8009883a 	mov	r4,r16
  801d34:	08066940 	call	806694 <__sfvwrite_r>
  801d38:	10000b1e 	bne	r2,zero,801d68 <_puts_r+0xc4>
  801d3c:	00800284 	movi	r2,10

err:
  _newlib_flockfile_end (fp);
  return result;
#endif
}
  801d40:	dfc00a17 	ldw	ra,40(sp)
  801d44:	dc400917 	ldw	r17,36(sp)
  801d48:	dc000817 	ldw	r16,32(sp)
  801d4c:	dec00b04 	addi	sp,sp,44
  801d50:	f800283a 	ret
  CHECK_INIT (ptr, fp);
  801d54:	8009883a 	mov	r4,r16
  801d58:	d9400015 	stw	r5,0(sp)
  801d5c:	08060e80 	call	8060e8 <__sinit>
  801d60:	d9400017 	ldw	r5,0(sp)
  801d64:	003fe806 	br	801d08 <_puts_r+0x64>
  result = (__sfvwrite_r (ptr, fp, &uio) ? EOF : '\n');
  801d68:	00bfffc4 	movi	r2,-1
  return result;
  801d6c:	003ff406 	br	801d40 <_puts_r+0x9c>

00801d70 <puts>:

#ifndef _REENT_ONLY

int
puts (char const * s)
{
  801d70:	defff504 	addi	sp,sp,-44
  801d74:	dc000915 	stw	r16,36(sp)
  801d78:	dfc00a15 	stw	ra,40(sp)
  801d7c:	2021883a 	mov	r16,r4
  size_t c = strlen (s);
  801d80:	0801e300 	call	801e30 <strlen>
  uio.uio_resid = c + 1;
  801d84:	11400044 	addi	r5,r2,1
  iov[0].iov_len = c;
  801d88:	d8800615 	stw	r2,24(sp)
  iov[1].iov_len = 1;
  801d8c:	00800044 	movi	r2,1
  return _puts_r (_REENT, s);
  801d90:	d1200917 	ldw	r4,-32732(gp)
  iov[1].iov_base = "\n";
  801d94:	00c02074 	movhi	r3,129
  iov[1].iov_len = 1;
  801d98:	d8800815 	stw	r2,32(sp)
  uio.uio_iov = &iov[0];
  801d9c:	d8800504 	addi	r2,sp,20
  iov[1].iov_base = "\n";
  801da0:	18ca7204 	addi	r3,r3,10696
  uio.uio_iov = &iov[0];
  801da4:	d8800215 	stw	r2,8(sp)
  uio.uio_iovcnt = 2;
  801da8:	00800084 	movi	r2,2
  uio.uio_resid = c + 1;
  801dac:	d9400415 	stw	r5,16(sp)
  iov[0].iov_base = s;
  801db0:	dc000515 	stw	r16,20(sp)
  iov[1].iov_base = "\n";
  801db4:	d8c00715 	stw	r3,28(sp)
  uio.uio_iovcnt = 2;
  801db8:	d8800315 	stw	r2,12(sp)
  fp = _stdout_r (ptr);
  801dbc:	21400217 	ldw	r5,8(r4)
  CHECK_INIT (ptr, fp);
  801dc0:	20000226 	beq	r4,zero,801dcc <puts+0x5c>
  801dc4:	20800e17 	ldw	r2,56(r4)
  801dc8:	10001126 	beq	r2,zero,801e10 <puts+0xa0>
  ORIENT (fp, -1);
  801dcc:	2880030b 	ldhu	r2,12(r5)
  801dd0:	10c8000c 	andi	r3,r2,8192
  801dd4:	1800061e 	bne	r3,zero,801df0 <puts+0x80>
  _newlib_flockfile_start (fp);
  801dd8:	28c01917 	ldw	r3,100(r5)
  ORIENT (fp, -1);
  801ddc:	01b7ffc4 	movi	r6,-8193
  801de0:	10880014 	ori	r2,r2,8192
  801de4:	1986703a 	and	r3,r3,r6
  801de8:	2880030d 	sth	r2,12(r5)
  801dec:	28c01915 	stw	r3,100(r5)
  result = (__sfvwrite_r (ptr, fp, &uio) ? EOF : '\n');
  801df0:	d9800204 	addi	r6,sp,8
  801df4:	08066940 	call	806694 <__sfvwrite_r>
  801df8:	10000b1e 	bne	r2,zero,801e28 <puts+0xb8>
  801dfc:	00800284 	movi	r2,10
}
  801e00:	dfc00a17 	ldw	ra,40(sp)
  801e04:	dc000917 	ldw	r16,36(sp)
  801e08:	dec00b04 	addi	sp,sp,44
  801e0c:	f800283a 	ret
  801e10:	d9400115 	stw	r5,4(sp)
  CHECK_INIT (ptr, fp);
  801e14:	d9000015 	stw	r4,0(sp)
  801e18:	08060e80 	call	8060e8 <__sinit>
  801e1c:	d9400117 	ldw	r5,4(sp)
  801e20:	d9000017 	ldw	r4,0(sp)
  801e24:	003fe906 	br	801dcc <puts+0x5c>
  result = (__sfvwrite_r (ptr, fp, &uio) ? EOF : '\n');
  801e28:	00bfffc4 	movi	r2,-1
  return _puts_r (_REENT, s);
  801e2c:	003ff406 	br	801e00 <puts+0x90>

00801e30 <strlen>:

#if !defined(PREFER_SIZE_OVER_SPEED) && !defined(__OPTIMIZE_SIZE__)
  unsigned long *aligned_addr;

  /* Align the pointer, so we can search a word at a time.  */
  while (UNALIGNED (str))
  801e30:	208000cc 	andi	r2,r4,3
  801e34:	10000926 	beq	r2,zero,801e5c <strlen+0x2c>
  801e38:	2005883a 	mov	r2,r4
  801e3c:	00000306 	br	801e4c <strlen+0x1c>
    {
      if (!*str)
	return str - start;
      str++;
  801e40:	10800044 	addi	r2,r2,1
  while (UNALIGNED (str))
  801e44:	10c000cc 	andi	r3,r2,3
  801e48:	18000526 	beq	r3,zero,801e60 <strlen+0x30>
      if (!*str)
  801e4c:	10c00007 	ldb	r3,0(r2)
  801e50:	183ffb1e 	bne	r3,zero,801e40 <strlen+0x10>

#endif /* not PREFER_SIZE_OVER_SPEED */

  while (*str)
    str++;
  return str - start;
  801e54:	1105c83a 	sub	r2,r2,r4
}
  801e58:	f800283a 	ret
  while (UNALIGNED (str))
  801e5c:	2005883a 	mov	r2,r4
  while (!DETECTNULL (*aligned_addr))
  801e60:	11400017 	ldw	r5,0(r2)
  801e64:	01ffbff4 	movhi	r7,65279
  801e68:	39ffbfc4 	addi	r7,r7,-257
  801e6c:	29c7883a 	add	r3,r5,r7
  801e70:	01a02074 	movhi	r6,32897
  801e74:	014a303a 	nor	r5,zero,r5
  801e78:	1946703a 	and	r3,r3,r5
  801e7c:	31a02004 	addi	r6,r6,-32640
  801e80:	1986703a 	and	r3,r3,r6
  801e84:	1800071e 	bne	r3,zero,801ea4 <strlen+0x74>
  801e88:	11400117 	ldw	r5,4(r2)
    aligned_addr++;
  801e8c:	10800104 	addi	r2,r2,4
  while (!DETECTNULL (*aligned_addr))
  801e90:	29c7883a 	add	r3,r5,r7
  801e94:	014a303a 	nor	r5,zero,r5
  801e98:	1946703a 	and	r3,r3,r5
  801e9c:	1986703a 	and	r3,r3,r6
  801ea0:	183ff926 	beq	r3,zero,801e88 <strlen+0x58>
  while (*str)
  801ea4:	10c00007 	ldb	r3,0(r2)
  801ea8:	183fea26 	beq	r3,zero,801e54 <strlen+0x24>
  801eac:	10c00047 	ldb	r3,1(r2)
    str++;
  801eb0:	10800044 	addi	r2,r2,1
  while (*str)
  801eb4:	183fe726 	beq	r3,zero,801e54 <strlen+0x24>
  801eb8:	10c00047 	ldb	r3,1(r2)
    str++;
  801ebc:	10800044 	addi	r2,r2,1
  while (*str)
  801ec0:	183ffa1e 	bne	r3,zero,801eac <strlen+0x7c>
  801ec4:	003fe306 	br	801e54 <strlen+0x24>

00801ec8 <___vfprintf_internal_r>:
int
_VFPRINTF_R (struct _reent *data,
       FILE * fp,
       const char *fmt0,
       va_list ap)
{
  801ec8:	deffbf04 	addi	sp,sp,-260
  801ecc:	dfc04015 	stw	ra,256(sp)
  801ed0:	dd803d15 	stw	r22,244(sp)
  801ed4:	dcc03a15 	stw	r19,232(sp)
  801ed8:	dc803915 	stw	r18,228(sp)
  801edc:	2027883a 	mov	r19,r4
  801ee0:	2825883a 	mov	r18,r5
  801ee4:	302d883a 	mov	r22,r6
  801ee8:	d9c00615 	stw	r7,24(sp)
  801eec:	df003f15 	stw	fp,252(sp)
  801ef0:	ddc03e15 	stw	r23,248(sp)
  801ef4:	dd403c15 	stw	r21,240(sp)
  801ef8:	dd003b15 	stw	r20,236(sp)
  801efc:	dc403815 	stw	r17,224(sp)
  801f00:	dc003715 	stw	r16,220(sp)
	char *thousands_sep = NULL;
	size_t thsnd_len = 0;
	const char *grouping = NULL;
#endif
#ifdef FLOATING_POINT
	char *decimal_point = _localeconv_r (data)->decimal_point;
  801f04:	0806ccc0 	call	806ccc <_localeconv_r>
  801f08:	10800017 	ldw	r2,0(r2)
	size_t decp_len = strlen (decimal_point);
  801f0c:	1009883a 	mov	r4,r2
	char *decimal_point = _localeconv_r (data)->decimal_point;
  801f10:	d8800d15 	stw	r2,52(sp)
	size_t decp_len = strlen (decimal_point);
  801f14:	0801e300 	call	801e30 <strlen>
  801f18:	d8800b15 	stw	r2,44(sp)
	    (u_long)GET_ARG (N, ap, u_int))
#endif

#ifndef STRING_ONLY
	/* Initialize std streams if not dealing with sprintf family.  */
	CHECK_INIT (data, fp);
  801f1c:	98000226 	beq	r19,zero,801f28 <___vfprintf_internal_r+0x60>
  801f20:	98800e17 	ldw	r2,56(r19)
  801f24:	10020f26 	beq	r2,zero,802764 <___vfprintf_internal_r+0x89c>
	_newlib_flockfile_start (fp);

	ORIENT(fp, -1);
  801f28:	9080030b 	ldhu	r2,12(r18)
  801f2c:	10c8000c 	andi	r3,r2,8192
  801f30:	1800061e 	bne	r3,zero,801f4c <___vfprintf_internal_r+0x84>
	_newlib_flockfile_start (fp);
  801f34:	90c01917 	ldw	r3,100(r18)
	ORIENT(fp, -1);
  801f38:	0137ffc4 	movi	r4,-8193
  801f3c:	10880014 	ori	r2,r2,8192
  801f40:	1906703a 	and	r3,r3,r4
  801f44:	9080030d 	sth	r2,12(r18)
  801f48:	90c01915 	stw	r3,100(r18)

	/* sorry, fprintf(read_only_file, "") returns EOF, not 0 */
	if (cantwrite (data, fp)) {
  801f4c:	10c0020c 	andi	r3,r2,8
  801f50:	1800f426 	beq	r3,zero,802324 <___vfprintf_internal_r+0x45c>
  801f54:	90c00417 	ldw	r3,16(r18)
  801f58:	1800f226 	beq	r3,zero,802324 <___vfprintf_internal_r+0x45c>
		return (EOF);
	}

#ifdef _UNBUF_STREAM_OPT
	/* optimise fprintf(stderr) (and other unbuffered Unix files) */
	if ((fp->_flags & (__SNBF|__SWR|__SRW)) == (__SNBF|__SWR) &&
  801f5c:	1080068c 	andi	r2,r2,26
  801f60:	10800298 	cmpnei	r2,r2,10
  801f64:	1000f726 	beq	r2,zero,802344 <___vfprintf_internal_r+0x47c>
        }
#endif /* STRING_ONLY */

	fmt = (char *)fmt0;
#ifdef _FVWRITE_IN_STREAMIO
	uio.uio_iov = iovp = iov;
  801f68:	d8802704 	addi	r2,sp,156
#else
                while (*fmt != '\0' && *fmt != '%')
                    fmt += 1;
#endif
		if ((m = fmt - cp) != 0) {
			PRINT (cp, m);
  801f6c:	b02f883a 	mov	r23,r22
	uio.uio_iov = iovp = iov;
  801f70:	d8801a15 	stw	r2,104(sp)
	uio.uio_resid = 0;
  801f74:	d8001c15 	stw	zero,112(sp)
	uio.uio_iovcnt = 0;
  801f78:	d8001b15 	stw	zero,108(sp)
	int ndig = 0;		/* actual number of digits returned by cvt */
  801f7c:	d8000815 	stw	zero,32(sp)
	union { int i; _PRINTF_FLOAT_TYPE fp; } _double_ = {0};
  801f80:	d8000915 	stw	zero,36(sp)
  801f84:	d8000a15 	stw	zero,40(sp)
	char *xdigs = NULL;	/* digits for [xX] conversion */
  801f88:	d8000c15 	stw	zero,48(sp)
	int expsize = 0;	/* character count for expstr */
  801f8c:	d8001015 	stw	zero,64(sp)
	ret = 0;
  801f90:	d8000515 	stw	zero,20(sp)
			PRINT (cp, m);
  801f94:	102d883a 	mov	r22,r2
                while (*fmt != '\0' && *fmt != '%')
  801f98:	b8800007 	ldb	r2,0(r23)
  801f9c:	1000cf26 	beq	r2,zero,8022dc <___vfprintf_internal_r+0x414>
  801fa0:	b821883a 	mov	r16,r23
  801fa4:	00000306 	br	801fb4 <___vfprintf_internal_r+0xec>
  801fa8:	80800047 	ldb	r2,1(r16)
                    fmt += 1;
  801fac:	84000044 	addi	r16,r16,1
                while (*fmt != '\0' && *fmt != '%')
  801fb0:	10011a26 	beq	r2,zero,80241c <___vfprintf_internal_r+0x554>
  801fb4:	10c00958 	cmpnei	r3,r2,37
  801fb8:	183ffb1e 	bne	r3,zero,801fa8 <___vfprintf_internal_r+0xe0>
		if ((m = fmt - cp) != 0) {
  801fbc:	85e3c83a 	sub	r17,r16,r23
  801fc0:	85c1181e 	bne	r16,r23,802424 <___vfprintf_internal_r+0x55c>
#else
                if (*fmt == '\0')
                    goto done;
#endif
		fmt_anchor = fmt;
		fmt++;		/* skip over '%' */
  801fc4:	82c00047 	ldb	r11,1(r16)
  801fc8:	85c00044 	addi	r23,r16,1
#ifndef _NO_POS_ARGS
		N = arg_index;
		is_pos_arg = 0;
#endif

rflag:		ch = *fmt++;
  801fcc:	0009883a 	mov	r4,zero
		prec = -1;
  801fd0:	023fffc4 	movi	r8,-1
		width = 0;
  801fd4:	0021883a 	mov	r16,zero
		flags = 0;
  801fd8:	0019883a 	mov	r12,zero
rflag:		ch = *fmt++;
  801fdc:	bdc00044 	addi	r23,r23,1
  801fe0:	5839883a 	mov	fp,r11
reswitch:	switch (ch) {
  801fe4:	e0bff804 	addi	r2,fp,-32
  801fe8:	10c01668 	cmpgeui	r3,r2,89
  801fec:	18006c1e 	bne	r3,zero,8021a0 <___vfprintf_internal_r+0x2d8>
  801ff0:	100490ba 	slli	r2,r2,2
  801ff4:	00c02034 	movhi	r3,128
  801ff8:	10c7883a 	add	r3,r2,r3
  801ffc:	18880117 	ldw	r2,8196(r3)
  802000:	1000683a 	jmp	r2
  802004:	00802b20 	cmpeqi	r2,zero,172
  802008:	008021a0 	cmpeqi	r2,zero,134
  80200c:	008021a0 	cmpeqi	r2,zero,134
  802010:	00802b14 	movui	r2,172
  802014:	008021a0 	cmpeqi	r2,zero,134
  802018:	008021a0 	cmpeqi	r2,zero,134
  80201c:	008021a0 	cmpeqi	r2,zero,134
  802020:	008021a0 	cmpeqi	r2,zero,134
  802024:	008021a0 	cmpeqi	r2,zero,134
  802028:	008021a0 	cmpeqi	r2,zero,134
  80202c:	00802aec 	andhi	r2,zero,171
  802030:	00802ae0 	cmpeqi	r2,zero,171
  802034:	008021a0 	cmpeqi	r2,zero,134
  802038:	00802ac8 	cmpgei	r2,zero,171
  80203c:	00802a7c 	xorhi	r2,zero,169
  802040:	008021a0 	cmpeqi	r2,zero,134
  802044:	00802a70 	cmpltui	r2,zero,169
  802048:	00802168 	cmpgeui	r2,zero,133
  80204c:	00802168 	cmpgeui	r2,zero,133
  802050:	00802168 	cmpgeui	r2,zero,133
  802054:	00802168 	cmpgeui	r2,zero,133
  802058:	00802168 	cmpgeui	r2,zero,133
  80205c:	00802168 	cmpgeui	r2,zero,133
  802060:	00802168 	cmpgeui	r2,zero,133
  802064:	00802168 	cmpgeui	r2,zero,133
  802068:	00802168 	cmpgeui	r2,zero,133
  80206c:	008021a0 	cmpeqi	r2,zero,134
  802070:	008021a0 	cmpeqi	r2,zero,134
  802074:	008021a0 	cmpeqi	r2,zero,134
  802078:	008021a0 	cmpeqi	r2,zero,134
  80207c:	008021a0 	cmpeqi	r2,zero,134
  802080:	008021a0 	cmpeqi	r2,zero,134
  802084:	008021a0 	cmpeqi	r2,zero,134
  802088:	008021a0 	cmpeqi	r2,zero,134
  80208c:	008021a0 	cmpeqi	r2,zero,134
  802090:	008021a0 	cmpeqi	r2,zero,134
  802094:	008029b8 	rdprs	r2,zero,166
  802098:	00802540 	call	80254 <__alt_mem_sdram-0x77fdac>
  80209c:	008021a0 	cmpeqi	r2,zero,134
  8020a0:	00802540 	call	80254 <__alt_mem_sdram-0x77fdac>
  8020a4:	008021a0 	cmpeqi	r2,zero,134
  8020a8:	008021a0 	cmpeqi	r2,zero,134
  8020ac:	008021a0 	cmpeqi	r2,zero,134
  8020b0:	008021a0 	cmpeqi	r2,zero,134
  8020b4:	00802880 	call	80288 <__alt_mem_sdram-0x77fd78>
  8020b8:	008021a0 	cmpeqi	r2,zero,134
  8020bc:	008021a0 	cmpeqi	r2,zero,134
  8020c0:	008023f4 	movhi	r2,143
  8020c4:	008021a0 	cmpeqi	r2,zero,134
  8020c8:	008021a0 	cmpeqi	r2,zero,134
  8020cc:	008021a0 	cmpeqi	r2,zero,134
  8020d0:	008021a0 	cmpeqi	r2,zero,134
  8020d4:	008021a0 	cmpeqi	r2,zero,134
  8020d8:	0080238c 	andi	r2,zero,142
  8020dc:	008021a0 	cmpeqi	r2,zero,134
  8020e0:	008021a0 	cmpeqi	r2,zero,134
  8020e4:	00802838 	rdprs	r2,zero,160
  8020e8:	008021a0 	cmpeqi	r2,zero,134
  8020ec:	008021a0 	cmpeqi	r2,zero,134
  8020f0:	008021a0 	cmpeqi	r2,zero,134
  8020f4:	008021a0 	cmpeqi	r2,zero,134
  8020f8:	008021a0 	cmpeqi	r2,zero,134
  8020fc:	008021a0 	cmpeqi	r2,zero,134
  802100:	008021a0 	cmpeqi	r2,zero,134
  802104:	008021a0 	cmpeqi	r2,zero,134
  802108:	008021a0 	cmpeqi	r2,zero,134
  80210c:	008021a0 	cmpeqi	r2,zero,134
  802110:	00802810 	cmplti	r2,zero,160
  802114:	00802770 	cmpltui	r2,zero,157
  802118:	00802540 	call	80254 <__alt_mem_sdram-0x77fdac>
  80211c:	00802540 	call	80254 <__alt_mem_sdram-0x77fdac>
  802120:	00802540 	call	80254 <__alt_mem_sdram-0x77fdac>
  802124:	00802804 	movi	r2,160
  802128:	00802770 	cmpltui	r2,zero,157
  80212c:	008021a0 	cmpeqi	r2,zero,134
  802130:	008021a0 	cmpeqi	r2,zero,134
  802134:	008029a4 	muli	r2,zero,166
  802138:	008021a0 	cmpeqi	r2,zero,134
  80213c:	0080296c 	andhi	r2,zero,165
  802140:	008023f8 	rdprs	r2,zero,143
  802144:	00802934 	movhi	r2,164
  802148:	00802928 	cmpgeui	r2,zero,164
  80214c:	008021a0 	cmpeqi	r2,zero,134
  802150:	008028d0 	cmplti	r2,zero,163
  802154:	008021a0 	cmpeqi	r2,zero,134
  802158:	00802390 	cmplti	r2,zero,142
  80215c:	008021a0 	cmpeqi	r2,zero,134
  802160:	008021a0 	cmpeqi	r2,zero,134
  802164:	0080288c 	andi	r2,zero,162
#endif
				if (prec < 0)
					prec = -1;
				goto rflag;
			}
			n = 0;
  802168:	0021883a 	mov	r16,zero
  80216c:	e0fff404 	addi	r3,fp,-48
			goto rflag;
		case '1': case '2': case '3': case '4':
		case '5': case '6': case '7': case '8': case '9':
			n = 0;
			do {
				n = 10 * n + to_digit (ch);
  802170:	800490ba 	slli	r2,r16,2
				ch = *fmt++;
  802174:	bf000007 	ldb	fp,0(r23)
  802178:	bdc00044 	addi	r23,r23,1
				n = 10 * n + to_digit (ch);
  80217c:	1421883a 	add	r16,r2,r16
  802180:	8421883a 	add	r16,r16,r16
  802184:	1c21883a 	add	r16,r3,r16
			} while (is_digit (ch));
  802188:	e0fff404 	addi	r3,fp,-48
  80218c:	188002b0 	cmpltui	r2,r3,10
  802190:	103ff71e 	bne	r2,zero,802170 <___vfprintf_internal_r+0x2a8>
reswitch:	switch (ch) {
  802194:	e0bff804 	addi	r2,fp,-32
  802198:	10c01668 	cmpgeui	r3,r2,89
  80219c:	183f9426 	beq	r3,zero,801ff0 <___vfprintf_internal_r+0x128>
  8021a0:	d9001345 	stb	r4,77(sp)

			size = buf + BUF - cp;
		skipsize:
			break;
		default:	/* "%?" prints ?, unless ? is NUL */
			if (ch == '\0')
  8021a4:	e0004d26 	beq	fp,zero,8022dc <___vfprintf_internal_r+0x414>
				goto done;
			/* pretend it was %c with argument ch */
			cp = buf;
			*cp = ch;
  8021a8:	df001d05 	stb	fp,116(sp)
			size = 1;
			sign = '\0';
  8021ac:	d8001345 	stb	zero,77(sp)
			break;
  8021b0:	05000044 	movi	r20,1
			size = 1;
  8021b4:	05400044 	movi	r21,1
			cp = buf;
  8021b8:	dc401d04 	addi	r17,sp,116
		dprec = 0;
  8021bc:	db000415 	stw	r12,16(sp)
  8021c0:	0011883a 	mov	r8,zero
  8021c4:	d8000715 	stw	zero,28(sp)
		 * size excludes decimal prec; realsz includes it.
		 */
		realsz = dprec > size ? dprec : size;
		if (sign)
			realsz++;
		if (flags & HEXPREFIX)
  8021c8:	d8800417 	ldw	r2,16(sp)
  8021cc:	1380008c 	andi	r14,r2,2
  8021d0:	70000126 	beq	r14,zero,8021d8 <___vfprintf_internal_r+0x310>
			realsz+= 2;
  8021d4:	a5000084 	addi	r20,r20,2

		/* right-adjusting blank padding */
		if ((flags & (LADJUST|ZEROPAD)) == 0)
  8021d8:	d8800417 	ldw	r2,16(sp)
			PAD (width - realsz, blanks);

		/* prefix */
		if (sign)
			PRINT (&sign, 1);
  8021dc:	d8c01c17 	ldw	r3,112(sp)
		if ((flags & (LADJUST|ZEROPAD)) == 0)
  8021e0:	1340210c 	andi	r13,r2,132
  8021e4:	6800021e 	bne	r13,zero,8021f0 <___vfprintf_internal_r+0x328>
			PAD (width - realsz, blanks);
  8021e8:	850fc83a 	sub	r7,r16,r20
  8021ec:	01c36d16 	blt	zero,r7,802fa4 <___vfprintf_internal_r+0x10dc>
		if (sign)
  8021f0:	d8801347 	ldb	r2,77(sp)
  8021f4:	10000c26 	beq	r2,zero,802228 <___vfprintf_internal_r+0x360>
			PRINT (&sign, 1);
  8021f8:	d8801b17 	ldw	r2,108(sp)
  8021fc:	d9001344 	addi	r4,sp,77
  802200:	18c00044 	addi	r3,r3,1
  802204:	10800044 	addi	r2,r2,1
  802208:	b1000015 	stw	r4,0(r22)
  80220c:	01000044 	movi	r4,1
  802210:	d8801b15 	stw	r2,108(sp)
  802214:	b1000115 	stw	r4,4(r22)
  802218:	d8c01c15 	stw	r3,112(sp)
  80221c:	10800208 	cmpgei	r2,r2,8
  802220:	1003a11e 	bne	r2,zero,8030a8 <___vfprintf_internal_r+0x11e0>
  802224:	b5800204 	addi	r22,r22,8
		if (flags & HEXPREFIX)
  802228:	70000c26 	beq	r14,zero,80225c <___vfprintf_internal_r+0x394>
			PRINT (ox, 2);
  80222c:	d8801b17 	ldw	r2,108(sp)
  802230:	d9001384 	addi	r4,sp,78
  802234:	18c00084 	addi	r3,r3,2
  802238:	10800044 	addi	r2,r2,1
  80223c:	b1000015 	stw	r4,0(r22)
  802240:	01000084 	movi	r4,2
  802244:	d8801b15 	stw	r2,108(sp)
  802248:	b1000115 	stw	r4,4(r22)
  80224c:	d8c01c15 	stw	r3,112(sp)
  802250:	10800208 	cmpgei	r2,r2,8
  802254:	1003a21e 	bne	r2,zero,8030e0 <___vfprintf_internal_r+0x1218>
  802258:	b5800204 	addi	r22,r22,8

		/* right-adjusting zero padding */
		if ((flags & (LADJUST|ZEROPAD)) == ZEROPAD)
  80225c:	6b402018 	cmpnei	r13,r13,128
  802260:	68029926 	beq	r13,zero,802cc8 <___vfprintf_internal_r+0xe00>
			PAD (width - realsz, zeroes);

		/* leading zeroes from decimal precision */
		PAD (dprec - size, zeroes);
  802264:	4551c83a 	sub	r8,r8,r21
  802268:	0202d116 	blt	zero,r8,802db0 <___vfprintf_internal_r+0xee8>

		/* the string or number proper */
#ifdef FLOATING_POINT
		if ((flags & FPT) == 0) {
  80226c:	d8800417 	ldw	r2,16(sp)
  802270:	1080400c 	andi	r2,r2,256
  802274:	10024e1e 	bne	r2,zero,802bb0 <___vfprintf_internal_r+0xce8>
			PRINT (cp, size);
  802278:	d8801b17 	ldw	r2,108(sp)
  80227c:	1d47883a 	add	r3,r3,r21
  802280:	b4400015 	stw	r17,0(r22)
  802284:	10800044 	addi	r2,r2,1
						cp = convbuf + ndig;
					}
#endif
					if (expt < ndig || flags & ALT)
					    PRINT (decimal_point, decp_len);
					PRINTANDPAD (cp, convbuf + ndig,
  802288:	b5400115 	stw	r21,4(r22)
  80228c:	d8801b15 	stw	r2,108(sp)
  802290:	d8c01c15 	stw	r3,112(sp)
  802294:	10800208 	cmpgei	r2,r2,8
  802298:	1003381e 	bne	r2,zero,802f7c <___vfprintf_internal_r+0x10b4>
  80229c:	b5800204 	addi	r22,r22,8
		}
#else /* !FLOATING_POINT */
		PRINT (cp, size);
#endif
		/* left-adjusting padding (always blank) */
		if (flags & LADJUST)
  8022a0:	d8800417 	ldw	r2,16(sp)
  8022a4:	1440010c 	andi	r17,r2,4
  8022a8:	88000226 	beq	r17,zero,8022b4 <___vfprintf_internal_r+0x3ec>
			PAD (width - realsz, blanks);
  8022ac:	8523c83a 	sub	r17,r16,r20
  8022b0:	04407416 	blt	zero,r17,802484 <___vfprintf_internal_r+0x5bc>

		/* finally, adjust ret */
		ret += width > realsz ? width : realsz;
  8022b4:	8500010e 	bge	r16,r20,8022bc <___vfprintf_internal_r+0x3f4>
  8022b8:	a021883a 	mov	r16,r20
  8022bc:	d8800517 	ldw	r2,20(sp)
  8022c0:	1405883a 	add	r2,r2,r16
  8022c4:	d8800515 	stw	r2,20(sp)

		FLUSH ();	/* copy out the I/O vectors */
  8022c8:	1802ea1e 	bne	r3,zero,802e74 <___vfprintf_internal_r+0xfac>
                while (*fmt != '\0' && *fmt != '%')
  8022cc:	b8800007 	ldb	r2,0(r23)
		FLUSH ();	/* copy out the I/O vectors */
  8022d0:	d8001b15 	stw	zero,108(sp)
  8022d4:	dd802704 	addi	r22,sp,156
                while (*fmt != '\0' && *fmt != '%')
  8022d8:	103f311e 	bne	r2,zero,801fa0 <___vfprintf_internal_r+0xd8>
			_free_r (data, malloc_buf);
			malloc_buf = NULL;
		}
	}
done:
	FLUSH ();
  8022dc:	d8801c17 	ldw	r2,112(sp)
  8022e0:	1006241e 	bne	r2,zero,803b74 <___vfprintf_internal_r+0x1cac>
	if (malloc_buf != NULL)
		_free_r (data, malloc_buf);
#ifndef STRING_ONLY
	_newlib_flockfile_end (fp);
#endif
	return (__sferror (fp) ? EOF : ret);
  8022e4:	9080030b 	ldhu	r2,12(r18)
  8022e8:	1080100c 	andi	r2,r2,64
  8022ec:	1006c41e 	bne	r2,zero,803e00 <___vfprintf_internal_r+0x1f38>
	/* NOTREACHED */
}
  8022f0:	d8800517 	ldw	r2,20(sp)
  8022f4:	dfc04017 	ldw	ra,256(sp)
  8022f8:	df003f17 	ldw	fp,252(sp)
  8022fc:	ddc03e17 	ldw	r23,248(sp)
  802300:	dd803d17 	ldw	r22,244(sp)
  802304:	dd403c17 	ldw	r21,240(sp)
  802308:	dd003b17 	ldw	r20,236(sp)
  80230c:	dcc03a17 	ldw	r19,232(sp)
  802310:	dc803917 	ldw	r18,228(sp)
  802314:	dc403817 	ldw	r17,224(sp)
  802318:	dc003717 	ldw	r16,220(sp)
  80231c:	dec04104 	addi	sp,sp,260
  802320:	f800283a 	ret
	if (cantwrite (data, fp)) {
  802324:	900b883a 	mov	r5,r18
  802328:	9809883a 	mov	r4,r19
  80232c:	0803f380 	call	803f38 <__swsetup_r>
  802330:	1006b31e 	bne	r2,zero,803e00 <___vfprintf_internal_r+0x1f38>
	if ((fp->_flags & (__SNBF|__SWR|__SRW)) == (__SNBF|__SWR) &&
  802334:	9080030b 	ldhu	r2,12(r18)
  802338:	1080068c 	andi	r2,r2,26
  80233c:	10800298 	cmpnei	r2,r2,10
  802340:	103f091e 	bne	r2,zero,801f68 <___vfprintf_internal_r+0xa0>
  802344:	9080038f 	ldh	r2,14(r18)
  802348:	103f0716 	blt	r2,zero,801f68 <___vfprintf_internal_r+0xa0>
		return (__sbprintf (data, fp, fmt0, ap));
  80234c:	d9c00617 	ldw	r7,24(sp)
  802350:	b00d883a 	mov	r6,r22
  802354:	900b883a 	mov	r5,r18
  802358:	9809883a 	mov	r4,r19
}
  80235c:	dfc04017 	ldw	ra,256(sp)
  802360:	df003f17 	ldw	fp,252(sp)
  802364:	ddc03e17 	ldw	r23,248(sp)
  802368:	dd803d17 	ldw	r22,244(sp)
  80236c:	dd403c17 	ldw	r21,240(sp)
  802370:	dd003b17 	ldw	r20,236(sp)
  802374:	dcc03a17 	ldw	r19,232(sp)
  802378:	dc803917 	ldw	r18,228(sp)
  80237c:	dc403817 	ldw	r17,224(sp)
  802380:	dc003717 	ldw	r16,220(sp)
  802384:	dec04104 	addi	sp,sp,260
		return (__sbprintf (data, fp, fmt0, ap));
  802388:	0803e781 	jmpi	803e78 <__sbprintf>
			flags |= LONGINT;
  80238c:	63000414 	ori	r12,r12,16
			_uquad = UARG ();
  802390:	6080080c 	andi	r2,r12,32
  802394:	1000e826 	beq	r2,zero,802738 <___vfprintf_internal_r+0x870>
  802398:	d8c00617 	ldw	r3,24(sp)
			base = DEC;
  80239c:	00800044 	movi	r2,1
			_uquad = UARG ();
  8023a0:	1d000017 	ldw	r20,0(r3)
  8023a4:	1d400117 	ldw	r21,4(r3)
  8023a8:	18c00204 	addi	r3,r3,8
  8023ac:	d8c00615 	stw	r3,24(sp)
nosign:			sign = '\0';
  8023b0:	d8001345 	stb	zero,77(sp)
number:			if ((dprec = prec) >= 0)
  8023b4:	40ffffe0 	cmpeqi	r3,r8,-1
nosign:			sign = '\0';
  8023b8:	001b883a 	mov	r13,zero
number:			if ((dprec = prec) >= 0)
  8023bc:	1801971e 	bne	r3,zero,802a1c <___vfprintf_internal_r+0xb54>
				flags &= ~ZEROPAD;
  8023c0:	047fdfc4 	movi	r17,-129
  8023c4:	6448703a 	and	r4,r12,r17
			if (_uquad != 0 || prec != 0) {
  8023c8:	a546b03a 	or	r3,r20,r21
				flags &= ~ZEROPAD;
  8023cc:	d9000415 	stw	r4,16(sp)
			if (_uquad != 0 || prec != 0) {
  8023d0:	1802f21e 	bne	r3,zero,802f9c <___vfprintf_internal_r+0x10d4>
  8023d4:	4005391e 	bne	r8,zero,8038bc <___vfprintf_internal_r+0x19f4>
                       else if (base == OCT && (flags & ALT))
  8023d8:	1003b41e 	bne	r2,zero,8032ac <___vfprintf_internal_r+0x13e4>
  8023dc:	6540004c 	andi	r21,r12,1
  8023e0:	a803e226 	beq	r21,zero,80336c <___vfprintf_internal_r+0x14a4>
                         *--cp = '0';
  8023e4:	00800c04 	movi	r2,48
  8023e8:	d88026c5 	stb	r2,155(sp)
  8023ec:	dc4026c4 	addi	r17,sp,155
  8023f0:	0000fa06 	br	8027dc <___vfprintf_internal_r+0x914>
			flags |= LONGINT;
  8023f4:	63000414 	ori	r12,r12,16
			_uquad = UARG ();
  8023f8:	6080080c 	andi	r2,r12,32
  8023fc:	1000c326 	beq	r2,zero,80270c <___vfprintf_internal_r+0x844>
  802400:	d8c00617 	ldw	r3,24(sp)
			base = OCT;
  802404:	0005883a 	mov	r2,zero
			_uquad = UARG ();
  802408:	1d000017 	ldw	r20,0(r3)
  80240c:	1d400117 	ldw	r21,4(r3)
  802410:	18c00204 	addi	r3,r3,8
  802414:	d8c00615 	stw	r3,24(sp)
  802418:	003fe506 	br	8023b0 <___vfprintf_internal_r+0x4e8>
		if ((m = fmt - cp) != 0) {
  80241c:	85e3c83a 	sub	r17,r16,r23
  802420:	85ffae26 	beq	r16,r23,8022dc <___vfprintf_internal_r+0x414>
			PRINT (cp, m);
  802424:	d9001c17 	ldw	r4,112(sp)
  802428:	d8c01b17 	ldw	r3,108(sp)
  80242c:	b5c00015 	stw	r23,0(r22)
  802430:	2449883a 	add	r4,r4,r17
  802434:	18c00044 	addi	r3,r3,1
  802438:	d8c01b15 	stw	r3,108(sp)
  80243c:	b4400115 	stw	r17,4(r22)
  802440:	d9001c15 	stw	r4,112(sp)
  802444:	18c00208 	cmpgei	r3,r3,8
  802448:	1800061e 	bne	r3,zero,802464 <___vfprintf_internal_r+0x59c>
  80244c:	b5800204 	addi	r22,r22,8
			ret += m;
  802450:	d8c00517 	ldw	r3,20(sp)
  802454:	1c47883a 	add	r3,r3,r17
  802458:	d8c00515 	stw	r3,20(sp)
                if (*fmt == '\0')
  80245c:	103ed91e 	bne	r2,zero,801fc4 <___vfprintf_internal_r+0xfc>
  802460:	003f9e06 	br	8022dc <___vfprintf_internal_r+0x414>
			PRINT (cp, m);
  802464:	d9801a04 	addi	r6,sp,104
  802468:	900b883a 	mov	r5,r18
  80246c:	9809883a 	mov	r4,r19
  802470:	0809c180 	call	809c18 <__sprint_r>
  802474:	103f9b1e 	bne	r2,zero,8022e4 <___vfprintf_internal_r+0x41c>
  802478:	80800007 	ldb	r2,0(r16)
  80247c:	dd802704 	addi	r22,sp,156
  802480:	003ff306 	br	802450 <___vfprintf_internal_r+0x588>
			PAD (width - realsz, blanks);
  802484:	03002074 	movhi	r12,129
  802488:	89000450 	cmplti	r4,r17,17
  80248c:	d8801b17 	ldw	r2,108(sp)
  802490:	630bb604 	addi	r12,r12,11992
  802494:	20001b1e 	bne	r4,zero,802504 <___vfprintf_internal_r+0x63c>
  802498:	05400404 	movi	r21,16
  80249c:	6039883a 	mov	fp,r12
  8024a0:	00000406 	br	8024b4 <___vfprintf_internal_r+0x5ec>
  8024a4:	8c7ffc04 	addi	r17,r17,-16
  8024a8:	89000448 	cmpgei	r4,r17,17
  8024ac:	b5800204 	addi	r22,r22,8
  8024b0:	20001326 	beq	r4,zero,802500 <___vfprintf_internal_r+0x638>
  8024b4:	10800044 	addi	r2,r2,1
  8024b8:	18c00404 	addi	r3,r3,16
  8024bc:	b7000015 	stw	fp,0(r22)
  8024c0:	b5400115 	stw	r21,4(r22)
  8024c4:	d8c01c15 	stw	r3,112(sp)
  8024c8:	d8801b15 	stw	r2,108(sp)
  8024cc:	11000208 	cmpgei	r4,r2,8
  8024d0:	203ff426 	beq	r4,zero,8024a4 <___vfprintf_internal_r+0x5dc>
  8024d4:	d9801a04 	addi	r6,sp,104
  8024d8:	900b883a 	mov	r5,r18
  8024dc:	9809883a 	mov	r4,r19
  8024e0:	0809c180 	call	809c18 <__sprint_r>
  8024e4:	103f7f1e 	bne	r2,zero,8022e4 <___vfprintf_internal_r+0x41c>
  8024e8:	8c7ffc04 	addi	r17,r17,-16
  8024ec:	89000448 	cmpgei	r4,r17,17
  8024f0:	d8c01c17 	ldw	r3,112(sp)
  8024f4:	d8801b17 	ldw	r2,108(sp)
  8024f8:	dd802704 	addi	r22,sp,156
  8024fc:	203fed1e 	bne	r4,zero,8024b4 <___vfprintf_internal_r+0x5ec>
  802500:	e019883a 	mov	r12,fp
  802504:	10800044 	addi	r2,r2,1
  802508:	1c47883a 	add	r3,r3,r17
  80250c:	d8801b15 	stw	r2,108(sp)
  802510:	b3000015 	stw	r12,0(r22)
  802514:	b4400115 	stw	r17,4(r22)
  802518:	d8c01c15 	stw	r3,112(sp)
  80251c:	10800210 	cmplti	r2,r2,8
  802520:	103f641e 	bne	r2,zero,8022b4 <___vfprintf_internal_r+0x3ec>
  802524:	d9801a04 	addi	r6,sp,104
  802528:	900b883a 	mov	r5,r18
  80252c:	9809883a 	mov	r4,r19
  802530:	0809c180 	call	809c18 <__sprint_r>
  802534:	103f6b1e 	bne	r2,zero,8022e4 <___vfprintf_internal_r+0x41c>
		FLUSH ();	/* copy out the I/O vectors */
  802538:	d8c01c17 	ldw	r3,112(sp)
  80253c:	003f5d06 	br	8022b4 <___vfprintf_internal_r+0x3ec>
			_uquad = SARG ();
  802540:	d8c00617 	ldw	r3,24(sp)
  802544:	d9001345 	stb	r4,77(sp)
			if (flags & LONGDBL) {
  802548:	6080020c 	andi	r2,r12,8
			_uquad = SARG ();
  80254c:	19000204 	addi	r4,r3,8
  802550:	d9000e15 	stw	r4,56(sp)
			if (flags & LONGDBL) {
  802554:	10038c1e 	bne	r2,zero,803388 <___vfprintf_internal_r+0x14c0>
  802558:	1805883a 	mov	r2,r3
				_fpvalue = GET_ARG (N, ap, double);
  80255c:	10800117 	ldw	r2,4(r2)
  802560:	18c00017 	ldw	r3,0(r3)
  802564:	d8800a15 	stw	r2,40(sp)
  802568:	d8c00915 	stw	r3,36(sp)
			} else if ((ch == 'g' || ch == 'G') && prec == 0) {
  80256c:	057ff7c4 	movi	r21,-33
			if (prec == -1) {
  802570:	40bfffe0 	cmpeqi	r2,r8,-1
			} else if ((ch == 'g' || ch == 'G') && prec == 0) {
  802574:	e56a703a 	and	r21,fp,r21
			if (prec == -1) {
  802578:	1004d41e 	bne	r2,zero,8038cc <___vfprintf_internal_r+0x1a04>
			} else if ((ch == 'g' || ch == 'G') && prec == 0) {
  80257c:	a88011d8 	cmpnei	r2,r21,71
  802580:	1004c126 	beq	r2,zero,803888 <___vfprintf_internal_r+0x19c0>
			flags |= FPT;
  802584:	60804014 	ori	r2,r12,256
  802588:	d8800415 	stw	r2,16(sp)
	char *digits, *bp, *rve;
# ifdef _NO_LONGDBL
	union double_union tmp;

	tmp.d = value;
	if (word0 (tmp) & Sign_bit) { /* this will check for < 0 and -0.0 */
  80258c:	d8800a17 	ldw	r2,40(sp)
  802590:	1004b916 	blt	r2,zero,803878 <___vfprintf_internal_r+0x19b0>
  802594:	1007883a 	mov	r3,r2
		value = -value;
		*sign = '-';
	} else
		*sign = '\000';
  802598:	d8000605 	stb	zero,24(sp)
		}
		*length = bp - buf;
		return buf;
	}
# endif /* _WANT_IO_C99_FORMATS */
	if (ch == 'f' || ch == 'F') {
  80259c:	e50019a0 	cmpeqi	r20,fp,102
  8025a0:	a004321e 	bne	r20,zero,80366c <___vfprintf_internal_r+0x17a4>
  8025a4:	e08011a0 	cmpeqi	r2,fp,70
  8025a8:	1004301e 	bne	r2,zero,80366c <___vfprintf_internal_r+0x17a4>
	} else {
		/* To obtain ndigits after the decimal point for the 'e'
		 * and 'E' formats, round to ndigits + 1 significant
		 * figures.
		 */
		if (ch == 'e' || ch == 'E') {
  8025ac:	a8801158 	cmpnei	r2,r21,69
  8025b0:	1004c826 	beq	r2,zero,8038d4 <___vfprintf_internal_r+0x1a0c>
			ndigits++;
		}
		mode = 2;		/* ndigits significant digits */
	}

	digits = _DTOA_R (data, value, mode, ndigits, decpt, &dsgn, &rve);
  8025b4:	d8801804 	addi	r2,sp,96
  8025b8:	d8800315 	stw	r2,12(sp)
  8025bc:	d9400917 	ldw	r5,36(sp)
  8025c0:	d8801504 	addi	r2,sp,84
  8025c4:	d8800215 	stw	r2,8(sp)
  8025c8:	d8801404 	addi	r2,sp,80
  8025cc:	da000015 	stw	r8,0(sp)
  8025d0:	180d883a 	mov	r6,r3
  8025d4:	9809883a 	mov	r4,r19
  8025d8:	d8800115 	stw	r2,4(sp)
  8025dc:	01c00084 	movi	r7,2
  8025e0:	db000f15 	stw	r12,60(sp)
  8025e4:	da000815 	stw	r8,32(sp)
  8025e8:	d8c00715 	stw	r3,28(sp)
  8025ec:	08042b80 	call	8042b8 <_dtoa_r>

	if ((ch != 'g' && ch != 'G') || flags & ALT) {	/* Print trailing zeros */
  8025f0:	da000817 	ldw	r8,32(sp)
  8025f4:	e10019d8 	cmpnei	r4,fp,103
  8025f8:	d8c00717 	ldw	r3,28(sp)
  8025fc:	db000f17 	ldw	r12,60(sp)
	digits = _DTOA_R (data, value, mode, ndigits, decpt, &dsgn, &rve);
  802600:	1023883a 	mov	r17,r2
	if ((ch != 'g' && ch != 'G') || flags & ALT) {	/* Print trailing zeros */
  802604:	4013883a 	mov	r9,r8
  802608:	2004c81e 	bne	r4,zero,80392c <___vfprintf_internal_r+0x1a64>
  80260c:	6080004c 	andi	r2,r12,1
  802610:	1004c81e 	bne	r2,zero,803934 <___vfprintf_internal_r+0x1a6c>
				if (expt <= -4 || expt > prec)
  802614:	d8801417 	ldw	r2,80(sp)
			if (ch == 'g' || ch == 'G') {
  802618:	ad4011e0 	cmpeqi	r21,r21,71
				if (expt <= -4 || expt > prec)
  80261c:	d8800715 	stw	r2,28(sp)
		if (value == 0)	/* kludge for __dtoa irregularity */
			rve = bp;
		while (rve < bp)
			*rve++ = '0';
	}
	*length = rve - digits;
  802620:	d8801817 	ldw	r2,96(sp)
  802624:	1445c83a 	sub	r2,r2,r17
  802628:	d8800815 	stw	r2,32(sp)
			if (ch == 'g' || ch == 'G') {
  80262c:	a8000526 	beq	r21,zero,802644 <___vfprintf_internal_r+0x77c>
				if (expt <= -4 || expt > prec)
  802630:	d8c00717 	ldw	r3,28(sp)
  802634:	18bfff50 	cmplti	r2,r3,-3
  802638:	1000011e 	bne	r2,zero,802640 <___vfprintf_internal_r+0x778>
  80263c:	40c3c30e 	bge	r8,r3,80354c <___vfprintf_internal_r+0x1684>
					ch -= 2; /* 'e' or 'E' */
  802640:	e73fff84 	addi	fp,fp,-2
				--expt;
  802644:	d8800717 	ldw	r2,28(sp)
# else
#  define isa 0
# endif

	p = p0;
	*p++ = isa ? 'p' - 'a' + fmtch : fmtch;
  802648:	df001645 	stb	fp,89(sp)
				--expt;
  80264c:	10ffffc4 	addi	r3,r2,-1
  802650:	d8c01415 	stw	r3,80(sp)
	if (exp < 0) {
  802654:	18053c16 	blt	r3,zero,803b48 <___vfprintf_internal_r+0x1c80>
		exp = -exp;
		*p++ = '-';
	}
	else
		*p++ = '+';
  802658:	00800ac4 	movi	r2,43
  80265c:	d8801685 	stb	r2,90(sp)
	t = expbuf + MAXEXPLEN;
	if (exp > 9) {
  802660:	18800290 	cmplti	r2,r3,10
  802664:	1005a51e 	bne	r2,zero,803cfc <___vfprintf_internal_r+0x1e34>
	t = expbuf + MAXEXPLEN;
  802668:	dd4019c4 	addi	r21,sp,103
  80266c:	dc400715 	stw	r17,28(sp)
  802670:	dc001015 	stw	r16,64(sp)
  802674:	a823883a 	mov	r17,r21
  802678:	db000f15 	stw	r12,60(sp)
  80267c:	1821883a 	mov	r16,r3
  802680:	902b883a 	mov	r21,r18
  802684:	00001306 	br	8026d4 <___vfprintf_internal_r+0x80c>
		do {
			*--t = to_char (exp % 10);
  802688:	410f6e03 	ldbu	r4,15800(r8)
  80268c:	200490ba 	slli	r2,r4,2
		} while ((exp /= 10) > 9);
  802690:	91c00428 	cmpgeui	r7,r18,16
  802694:	02002074 	movhi	r8,129
			*--t = to_char (exp % 10);
  802698:	1105883a 	add	r2,r2,r4
  80269c:	1085883a 	add	r2,r2,r2
  8026a0:	8085c83a 	sub	r2,r16,r2
  8026a4:	10800c04 	addi	r2,r2,48
  8026a8:	88800005 	stb	r2,0(r17)
		} while ((exp /= 10) > 9);
  8026ac:	01400284 	movi	r5,10
  8026b0:	8004913a 	slli	r2,r16,4
  8026b4:	8009883a 	mov	r4,r16
  8026b8:	38054f1e 	bne	r7,zero,803bf8 <___vfprintf_internal_r+0x1d30>
  8026bc:	10800294 	ori	r2,r2,10
  8026c0:	1211883a 	add	r8,r2,r8
  8026c4:	408f6e03 	ldbu	r2,15800(r8)
  8026c8:	81001908 	cmpgei	r4,r16,100
  8026cc:	1021883a 	mov	r16,r2
  8026d0:	20055d26 	beq	r4,zero,803c48 <___vfprintf_internal_r+0x1d80>
			*--t = to_char (exp % 10);
  8026d4:	8004913a 	slli	r2,r16,4
  8026d8:	84800294 	ori	r18,r16,10
  8026dc:	02002074 	movhi	r8,129
  8026e0:	10800294 	ori	r2,r2,10
  8026e4:	92400428 	cmpgeui	r9,r18,16
  8026e8:	8829883a 	mov	r20,r17
  8026ec:	8009883a 	mov	r4,r16
  8026f0:	01400284 	movi	r5,10
  8026f4:	1211883a 	add	r8,r2,r8
  8026f8:	8c7fffc4 	addi	r17,r17,-1
  8026fc:	483fe226 	beq	r9,zero,802688 <___vfprintf_internal_r+0x7c0>
  802700:	080d6dc0 	call	80d6dc <__divsi3>
  802704:	1009883a 	mov	r4,r2
  802708:	003fe006 	br	80268c <___vfprintf_internal_r+0x7c4>
			width = GET_ARG (n, ap, int);
  80270c:	d9000617 	ldw	r4,24(sp)
			_uquad = UARG ();
  802710:	6080040c 	andi	r2,r12,16
			width = GET_ARG (n, ap, int);
  802714:	20c00104 	addi	r3,r4,4
			_uquad = UARG ();
  802718:	10032b1e 	bne	r2,zero,8033c8 <___vfprintf_internal_r+0x1500>
  80271c:	6080100c 	andi	r2,r12,64
  802720:	1004cf26 	beq	r2,zero,803a60 <___vfprintf_internal_r+0x1b98>
  802724:	2500000b 	ldhu	r20,0(r4)
  802728:	002b883a 	mov	r21,zero
  80272c:	d8c00615 	stw	r3,24(sp)
			base = OCT;
  802730:	0005883a 	mov	r2,zero
  802734:	003f1e06 	br	8023b0 <___vfprintf_internal_r+0x4e8>
			width = GET_ARG (n, ap, int);
  802738:	d9000617 	ldw	r4,24(sp)
			_uquad = UARG ();
  80273c:	6080040c 	andi	r2,r12,16
			width = GET_ARG (n, ap, int);
  802740:	20c00104 	addi	r3,r4,4
			_uquad = UARG ();
  802744:	1003151e 	bne	r2,zero,80339c <___vfprintf_internal_r+0x14d4>
  802748:	6080100c 	andi	r2,r12,64
  80274c:	1004bf26 	beq	r2,zero,803a4c <___vfprintf_internal_r+0x1b84>
  802750:	2500000b 	ldhu	r20,0(r4)
  802754:	002b883a 	mov	r21,zero
  802758:	d8c00615 	stw	r3,24(sp)
			base = DEC;
  80275c:	00800044 	movi	r2,1
  802760:	003f1306 	br	8023b0 <___vfprintf_internal_r+0x4e8>
	CHECK_INIT (data, fp);
  802764:	9809883a 	mov	r4,r19
  802768:	08060e80 	call	8060e8 <__sinit>
  80276c:	003dee06 	br	801f28 <___vfprintf_internal_r+0x60>
  802770:	d9001345 	stb	r4,77(sp)
			_uquad = SARG ();
  802774:	6080080c 	andi	r2,r12,32
  802778:	10009326 	beq	r2,zero,8029c8 <___vfprintf_internal_r+0xb00>
  80277c:	d8c00617 	ldw	r3,24(sp)
  802780:	18800117 	ldw	r2,4(r3)
  802784:	1d000017 	ldw	r20,0(r3)
  802788:	18c00204 	addi	r3,r3,8
  80278c:	d8c00615 	stw	r3,24(sp)
  802790:	102b883a 	mov	r21,r2
			if ((quad_t)_uquad < 0)
  802794:	10009716 	blt	r2,zero,8029f4 <___vfprintf_internal_r+0xb2c>
number:			if ((dprec = prec) >= 0)
  802798:	40bfffd8 	cmpnei	r2,r8,-1
			if (!sign)
  80279c:	db401343 	ldbu	r13,77(sp)
number:			if ((dprec = prec) >= 0)
  8027a0:	10000626 	beq	r2,zero,8027bc <___vfprintf_internal_r+0x8f4>
				flags &= ~ZEROPAD;
  8027a4:	047fdfc4 	movi	r17,-129
  8027a8:	6446703a 	and	r3,r12,r17
			if (_uquad != 0 || prec != 0) {
  8027ac:	a544b03a 	or	r2,r20,r21
				flags &= ~ZEROPAD;
  8027b0:	d8c00415 	stw	r3,16(sp)
			if (_uquad != 0 || prec != 0) {
  8027b4:	1002bc26 	beq	r2,zero,8032a8 <___vfprintf_internal_r+0x13e0>
  8027b8:	1819883a 	mov	r12,r3
					if (_uquad < 10) {
  8027bc:	a8036e1e 	bne	r21,zero,803578 <___vfprintf_internal_r+0x16b0>
  8027c0:	a08002a8 	cmpgeui	r2,r20,10
  8027c4:	10036c1e 	bne	r2,zero,803578 <___vfprintf_internal_r+0x16b0>
						*--cp = to_char(_uquad);
  8027c8:	a5000c04 	addi	r20,r20,48
  8027cc:	dd0026c5 	stb	r20,155(sp)
						break;
  8027d0:	db000415 	stw	r12,16(sp)
  8027d4:	05400044 	movi	r21,1
						*--cp = to_char(_uquad);
  8027d8:	dc4026c4 	addi	r17,sp,155
		realsz = dprec > size ? dprec : size;
  8027dc:	a829883a 	mov	r20,r21
  8027e0:	aa00010e 	bge	r21,r8,8027e8 <___vfprintf_internal_r+0x920>
  8027e4:	4029883a 	mov	r20,r8
		lead = 0;
  8027e8:	d8000715 	stw	zero,28(sp)
		if (sign)
  8027ec:	6b403fcc 	andi	r13,r13,255
  8027f0:	6b40201c 	xori	r13,r13,128
  8027f4:	6b7fe004 	addi	r13,r13,-128
  8027f8:	683e7326 	beq	r13,zero,8021c8 <___vfprintf_internal_r+0x300>
			realsz++;
  8027fc:	a5000044 	addi	r20,r20,1
  802800:	003e7106 	br	8021c8 <___vfprintf_internal_r+0x300>
				flags |= SHORTINT;
  802804:	bac00007 	ldb	r11,0(r23)
  802808:	63001014 	ori	r12,r12,64
			goto rflag;
  80280c:	003df306 	br	801fdc <___vfprintf_internal_r+0x114>
				*cp = GET_ARG (N, ap, int);
  802810:	d8c00617 	ldw	r3,24(sp)
			sign = '\0';
  802814:	d8001345 	stb	zero,77(sp)
			break;
  802818:	05000044 	movi	r20,1
				*cp = GET_ARG (N, ap, int);
  80281c:	18800017 	ldw	r2,0(r3)
  802820:	18c00104 	addi	r3,r3,4
  802824:	d8c00615 	stw	r3,24(sp)
  802828:	d8801d05 	stb	r2,116(sp)
				size = 1;
  80282c:	05400044 	movi	r21,1
			cp = buf;
  802830:	dc401d04 	addi	r17,sp,116
			break;
  802834:	003e6106 	br	8021bc <___vfprintf_internal_r+0x2f4>
			xdigs = "0123456789ABCDEF";
  802838:	00802074 	movhi	r2,129
  80283c:	108baa04 	addi	r2,r2,11944
  802840:	d8800c15 	stw	r2,48(sp)
  802844:	d9001345 	stb	r4,77(sp)
hex:			_uquad = UARG ();
  802848:	6080080c 	andi	r2,r12,32
			xdigs = "0123456789abcdef";
  80284c:	00c01604 	movi	r3,88
hex:			_uquad = UARG ();
  802850:	10001526 	beq	r2,zero,8028a8 <___vfprintf_internal_r+0x9e0>
  802854:	d8800617 	ldw	r2,24(sp)
  802858:	15000017 	ldw	r20,0(r2)
  80285c:	15400117 	ldw	r21,4(r2)
  802860:	10800204 	addi	r2,r2,8
  802864:	d8800615 	stw	r2,24(sp)
			if (flags & ALT && _uquad != 0) {
  802868:	6080004c 	andi	r2,r12,1
  80286c:	10000226 	beq	r2,zero,802878 <___vfprintf_internal_r+0x9b0>
  802870:	a544b03a 	or	r2,r20,r21
  802874:	1002ce1e 	bne	r2,zero,8033b0 <___vfprintf_internal_r+0x14e8>
			base = HEX;
  802878:	00800084 	movi	r2,2
  80287c:	003ecc06 	br	8023b0 <___vfprintf_internal_r+0x4e8>
			flags |= LONGDBL;
  802880:	bac00007 	ldb	r11,0(r23)
  802884:	63000214 	ori	r12,r12,8
			goto rflag;
  802888:	003dd406 	br	801fdc <___vfprintf_internal_r+0x114>
			xdigs = "0123456789abcdef";
  80288c:	00802074 	movhi	r2,129
  802890:	108ba504 	addi	r2,r2,11924
  802894:	d8800c15 	stw	r2,48(sp)
hex:			_uquad = UARG ();
  802898:	d9001345 	stb	r4,77(sp)
  80289c:	6080080c 	andi	r2,r12,32
		lead = 0;
  8028a0:	00c01e04 	movi	r3,120
hex:			_uquad = UARG ();
  8028a4:	103feb1e 	bne	r2,zero,802854 <___vfprintf_internal_r+0x98c>
			width = GET_ARG (n, ap, int);
  8028a8:	d9400617 	ldw	r5,24(sp)
hex:			_uquad = UARG ();
  8028ac:	6080040c 	andi	r2,r12,16
			width = GET_ARG (n, ap, int);
  8028b0:	29000104 	addi	r4,r5,4
hex:			_uquad = UARG ();
  8028b4:	1002c91e 	bne	r2,zero,8033dc <___vfprintf_internal_r+0x1514>
  8028b8:	6080100c 	andi	r2,r12,64
  8028bc:	10046d26 	beq	r2,zero,803a74 <___vfprintf_internal_r+0x1bac>
  8028c0:	2d00000b 	ldhu	r20,0(r5)
  8028c4:	002b883a 	mov	r21,zero
  8028c8:	d9000615 	stw	r4,24(sp)
  8028cc:	003fe606 	br	802868 <___vfprintf_internal_r+0x9a0>
			cp = GET_ARG (N, ap, char_ptr_t);
  8028d0:	d8800617 	ldw	r2,24(sp)
			sign = '\0';
  8028d4:	d8001345 	stb	zero,77(sp)
			cp = GET_ARG (N, ap, char_ptr_t);
  8028d8:	14400017 	ldw	r17,0(r2)
  8028dc:	10c00104 	addi	r3,r2,4
			if (cp == NULL) {
  8028e0:	8802f426 	beq	r17,zero,8034b4 <___vfprintf_internal_r+0x15ec>
			if (prec >= 0) {
  8028e4:	40bfffe0 	cmpeqi	r2,r8,-1
  8028e8:	1004141e 	bne	r2,zero,80393c <___vfprintf_internal_r+0x1a74>
				char *p = memchr (cp, 0, prec);
  8028ec:	400d883a 	mov	r6,r8
  8028f0:	000b883a 	mov	r5,zero
  8028f4:	8809883a 	mov	r4,r17
  8028f8:	d8c00715 	stw	r3,28(sp)
  8028fc:	db000615 	stw	r12,24(sp)
  802900:	da000415 	stw	r8,16(sp)
  802904:	080782c0 	call	80782c <memchr>
				if (p != NULL)
  802908:	da000417 	ldw	r8,16(sp)
  80290c:	db000617 	ldw	r12,24(sp)
  802910:	d8c00717 	ldw	r3,28(sp)
  802914:	10051a26 	beq	r2,zero,803d80 <___vfprintf_internal_r+0x1eb8>
					size = p - cp;
  802918:	146bc83a 	sub	r21,r2,r17
  80291c:	a829883a 	mov	r20,r21
			cp = GET_ARG (N, ap, char_ptr_t);
  802920:	d8c00615 	stw	r3,24(sp)
  802924:	003e2506 	br	8021bc <___vfprintf_internal_r+0x2f4>
			flags |= QUADINT;
  802928:	bac00007 	ldb	r11,0(r23)
  80292c:	63000814 	ori	r12,r12,32
			goto rflag;
  802930:	003daa06 	br	801fdc <___vfprintf_internal_r+0x114>
			_uquad = (uintptr_t) GET_ARG (N, ap, void_ptr_t);
  802934:	d8c00617 	ldw	r3,24(sp)
			ox[0] = '0';
  802938:	009e0c04 	movi	r2,30768
			xdigs = "0123456789abcdef";
  80293c:	01002074 	movhi	r4,129
			ox[0] = '0';
  802940:	d880138d 	sth	r2,78(sp)
			_uquad = (uintptr_t) GET_ARG (N, ap, void_ptr_t);
  802944:	18800104 	addi	r2,r3,4
  802948:	d8800615 	stw	r2,24(sp)
			xdigs = "0123456789abcdef";
  80294c:	208ba504 	addi	r2,r4,11924
  802950:	d8800c15 	stw	r2,48(sp)
			_uquad = (uintptr_t) GET_ARG (N, ap, void_ptr_t);
  802954:	1d000017 	ldw	r20,0(r3)
  802958:	002b883a 	mov	r21,zero
			flags |= HEXPREFIX;
  80295c:	63000094 	ori	r12,r12,2
			base = HEX;
  802960:	00800084 	movi	r2,2
			ox[1] = ch = 'x';
  802964:	07001e04 	movi	fp,120
			goto nosign;
  802968:	003e9106 	br	8023b0 <___vfprintf_internal_r+0x4e8>
  80296c:	d9001345 	stb	r4,77(sp)
			width = GET_ARG (n, ap, int);
  802970:	d9000617 	ldw	r4,24(sp)
			if (flags & QUADINT)
  802974:	6080080c 	andi	r2,r12,32
			width = GET_ARG (n, ap, int);
  802978:	20c00017 	ldw	r3,0(r4)
  80297c:	21000104 	addi	r4,r4,4
  802980:	d9000615 	stw	r4,24(sp)
			if (flags & QUADINT)
  802984:	10027b1e 	bne	r2,zero,803374 <___vfprintf_internal_r+0x14ac>
			if (flags & LONGINT)
  802988:	6080040c 	andi	r2,r12,16
  80298c:	1003221e 	bne	r2,zero,803618 <___vfprintf_internal_r+0x1750>
			else if (flags & SHORTINT)
  802990:	6300100c 	andi	r12,r12,64
  802994:	60032026 	beq	r12,zero,803618 <___vfprintf_internal_r+0x1750>
				*GET_ARG (N, ap, short_ptr_t) = ret;
  802998:	d8800517 	ldw	r2,20(sp)
  80299c:	1880000d 	sth	r2,0(r3)
  8029a0:	003d7d06 	br	801f98 <___vfprintf_internal_r+0xd0>
			if (*fmt == 'l') {
  8029a4:	bac00007 	ldb	r11,0(r23)
  8029a8:	58801b18 	cmpnei	r2,r11,108
  8029ac:	1002b026 	beq	r2,zero,803470 <___vfprintf_internal_r+0x15a8>
				flags |= LONGINT;
  8029b0:	63000414 	ori	r12,r12,16
  8029b4:	003d8906 	br	801fdc <___vfprintf_internal_r+0x114>
			flags |= LONGINT;
  8029b8:	63000414 	ori	r12,r12,16
  8029bc:	d9001345 	stb	r4,77(sp)
			_uquad = SARG ();
  8029c0:	6080080c 	andi	r2,r12,32
  8029c4:	103f6d1e 	bne	r2,zero,80277c <___vfprintf_internal_r+0x8b4>
			width = GET_ARG (n, ap, int);
  8029c8:	d9000617 	ldw	r4,24(sp)
			_uquad = SARG ();
  8029cc:	6080040c 	andi	r2,r12,16
			width = GET_ARG (n, ap, int);
  8029d0:	20c00104 	addi	r3,r4,4
			_uquad = SARG ();
  8029d4:	1002851e 	bne	r2,zero,8033ec <___vfprintf_internal_r+0x1524>
  8029d8:	6080100c 	andi	r2,r12,64
  8029dc:	10042926 	beq	r2,zero,803a84 <___vfprintf_internal_r+0x1bbc>
  8029e0:	2500000f 	ldh	r20,0(r4)
  8029e4:	d8c00615 	stw	r3,24(sp)
  8029e8:	a02bd7fa 	srai	r21,r20,31
			if ((quad_t)_uquad < 0)
  8029ec:	a805883a 	mov	r2,r21
  8029f0:	103f690e 	bge	r2,zero,802798 <___vfprintf_internal_r+0x8d0>
				_uquad = -_uquad;
  8029f4:	a004c03a 	cmpne	r2,r20,zero
  8029f8:	056bc83a 	sub	r21,zero,r21
  8029fc:	a8abc83a 	sub	r21,r21,r2
				sign = '-';
  802a00:	00800b44 	movi	r2,45
  802a04:	d8801345 	stb	r2,77(sp)
number:			if ((dprec = prec) >= 0)
  802a08:	40ffffe0 	cmpeqi	r3,r8,-1
				_uquad = -_uquad;
  802a0c:	0529c83a 	sub	r20,zero,r20
				sign = '-';
  802a10:	03400b44 	movi	r13,45
			base = DEC;
  802a14:	00800044 	movi	r2,1
number:			if ((dprec = prec) >= 0)
  802a18:	183e6926 	beq	r3,zero,8023c0 <___vfprintf_internal_r+0x4f8>
				switch (base) {
  802a1c:	10c00060 	cmpeqi	r3,r2,1
  802a20:	183f661e 	bne	r3,zero,8027bc <___vfprintf_internal_r+0x8f4>
  802a24:	108000a0 	cmpeqi	r2,r2,2
			cp = buf + BUF;
  802a28:	dc402704 	addi	r17,sp,156
  802a2c:	10004626 	beq	r2,zero,802b48 <___vfprintf_internal_r+0xc80>
  802a30:	d9000c17 	ldw	r4,48(sp)
						*--cp = xdigs[_uquad & 15];
  802a34:	a08003cc 	andi	r2,r20,15
						_uquad >>= 4;
  802a38:	a806973a 	slli	r3,r21,28
  802a3c:	a028d13a 	srli	r20,r20,4
						*--cp = xdigs[_uquad & 15];
  802a40:	2085883a 	add	r2,r4,r2
  802a44:	10800003 	ldbu	r2,0(r2)
						_uquad >>= 4;
  802a48:	a82ad13a 	srli	r21,r21,4
  802a4c:	1d28b03a 	or	r20,r3,r20
						*--cp = xdigs[_uquad & 15];
  802a50:	88bfffc5 	stb	r2,-1(r17)
					} while (_uquad);
  802a54:	a544b03a 	or	r2,r20,r21
						*--cp = xdigs[_uquad & 15];
  802a58:	8c7fffc4 	addi	r17,r17,-1
					} while (_uquad);
  802a5c:	103ff51e 	bne	r2,zero,802a34 <___vfprintf_internal_r+0xb6c>
			size = buf + BUF - cp;
  802a60:	d8802704 	addi	r2,sp,156
  802a64:	146bc83a 	sub	r21,r2,r17
  802a68:	db000415 	stw	r12,16(sp)
  802a6c:	003f5b06 	br	8027dc <___vfprintf_internal_r+0x914>
			flags |= ZEROPAD;
  802a70:	bac00007 	ldb	r11,0(r23)
  802a74:	63002014 	ori	r12,r12,128
			goto rflag;
  802a78:	003d5806 	br	801fdc <___vfprintf_internal_r+0x114>
			if ((ch = *fmt++) == '*') {
  802a7c:	bf000007 	ldb	fp,0(r23)
  802a80:	b8800044 	addi	r2,r23,1
  802a84:	e0c00aa0 	cmpeqi	r3,fp,42
  802a88:	1804e91e 	bne	r3,zero,803e30 <___vfprintf_internal_r+0x1f68>
			while (is_digit (ch)) {
  802a8c:	e0fff404 	addi	r3,fp,-48
  802a90:	194002b0 	cmpltui	r5,r3,10
			if ((ch = *fmt++) == '*') {
  802a94:	102f883a 	mov	r23,r2
			n = 0;
  802a98:	0011883a 	mov	r8,zero
			while (is_digit (ch)) {
  802a9c:	283d5126 	beq	r5,zero,801fe4 <___vfprintf_internal_r+0x11c>
				n = 10 * n + to_digit (ch);
  802aa0:	400490ba 	slli	r2,r8,2
				ch = *fmt++;
  802aa4:	bf000007 	ldb	fp,0(r23)
  802aa8:	bdc00044 	addi	r23,r23,1
				n = 10 * n + to_digit (ch);
  802aac:	1211883a 	add	r8,r2,r8
  802ab0:	4211883a 	add	r8,r8,r8
  802ab4:	40d1883a 	add	r8,r8,r3
			while (is_digit (ch)) {
  802ab8:	e0fff404 	addi	r3,fp,-48
  802abc:	188002b0 	cmpltui	r2,r3,10
  802ac0:	103ff71e 	bne	r2,zero,802aa0 <___vfprintf_internal_r+0xbd8>
  802ac4:	003d4706 	br	801fe4 <___vfprintf_internal_r+0x11c>
			if ((ch = *fmt++) == '*') {
  802ac8:	bf000003 	ldbu	fp,0(r23)
			flags |= LADJUST;
  802acc:	e2c03fcc 	andi	r11,fp,255
  802ad0:	5ac0201c 	xori	r11,r11,128
  802ad4:	63000114 	ori	r12,r12,4
			goto rflag;
  802ad8:	5affe004 	addi	r11,r11,-128
  802adc:	003d3f06 	br	801fdc <___vfprintf_internal_r+0x114>
			goto rflag;
  802ae0:	bac00007 	ldb	r11,0(r23)
			sign = '+';
  802ae4:	01000ac4 	movi	r4,43
			goto rflag;
  802ae8:	003d3c06 	br	801fdc <___vfprintf_internal_r+0x114>
			width = GET_ARG (n, ap, int);
  802aec:	d8800617 	ldw	r2,24(sp)
			if ((ch = *fmt++) == '*') {
  802af0:	bf000003 	ldbu	fp,0(r23)
			width = GET_ARG (n, ap, int);
  802af4:	14000017 	ldw	r16,0(r2)
  802af8:	10800104 	addi	r2,r2,4
			if (width >= 0)
  802afc:	80024016 	blt	r16,zero,803400 <___vfprintf_internal_r+0x1538>
			width = GET_ARG (n, ap, int);
  802b00:	d8800615 	stw	r2,24(sp)
  802b04:	e2c03fcc 	andi	r11,fp,255
  802b08:	5ac0201c 	xori	r11,r11,128
  802b0c:	5affe004 	addi	r11,r11,-128
  802b10:	003d3206 	br	801fdc <___vfprintf_internal_r+0x114>
			flags |= ALT;
  802b14:	bac00007 	ldb	r11,0(r23)
  802b18:	63000054 	ori	r12,r12,1
			goto rflag;
  802b1c:	003d2f06 	br	801fdc <___vfprintf_internal_r+0x114>
			if (!sign)
  802b20:	20803fcc 	andi	r2,r4,255
  802b24:	1080201c 	xori	r2,r2,128
  802b28:	10bfe004 	addi	r2,r2,-128
			if ((ch = *fmt++) == '*') {
  802b2c:	bf000003 	ldbu	fp,0(r23)
			if (!sign)
  802b30:	103ff41e 	bne	r2,zero,802b04 <___vfprintf_internal_r+0xc3c>
  802b34:	e2c03fcc 	andi	r11,fp,255
  802b38:	5ac0201c 	xori	r11,r11,128
				sign = ' ';
  802b3c:	01000804 	movi	r4,32
  802b40:	5affe004 	addi	r11,r11,-128
  802b44:	003d2506 	br	801fdc <___vfprintf_internal_r+0x114>
						_uquad >>= 3;
  802b48:	a006d0fa 	srli	r3,r20,3
  802b4c:	a808977a 	slli	r4,r21,29
  802b50:	a82ad0fa 	srli	r21,r21,3
						*--cp = to_char (_uquad & 7);
  802b54:	a50001cc 	andi	r20,r20,7
  802b58:	a0800c04 	addi	r2,r20,48
						_uquad >>= 3;
  802b5c:	20e8b03a 	or	r20,r4,r3
						*--cp = to_char (_uquad & 7);
  802b60:	88bfffc5 	stb	r2,-1(r17)
					} while (_uquad);
  802b64:	a546b03a 	or	r3,r20,r21
  802b68:	880b883a 	mov	r5,r17
						*--cp = to_char (_uquad & 7);
  802b6c:	8c7fffc4 	addi	r17,r17,-1
					} while (_uquad);
  802b70:	183ff51e 	bne	r3,zero,802b48 <___vfprintf_internal_r+0xc80>
					if (flags & ALT && *cp != '0')
  802b74:	60c0004c 	andi	r3,r12,1
  802b78:	183fb926 	beq	r3,zero,802a60 <___vfprintf_internal_r+0xb98>
  802b7c:	10803fcc 	andi	r2,r2,255
  802b80:	1080201c 	xori	r2,r2,128
  802b84:	10bfe004 	addi	r2,r2,-128
  802b88:	10800c18 	cmpnei	r2,r2,48
  802b8c:	103fb426 	beq	r2,zero,802a60 <___vfprintf_internal_r+0xb98>
						*--cp = '0';
  802b90:	00800c04 	movi	r2,48
  802b94:	297fff84 	addi	r5,r5,-2
  802b98:	88bfffc5 	stb	r2,-1(r17)
			size = buf + BUF - cp;
  802b9c:	d8802704 	addi	r2,sp,156
  802ba0:	116bc83a 	sub	r21,r2,r5
  802ba4:	db000415 	stw	r12,16(sp)
						*--cp = '0';
  802ba8:	2823883a 	mov	r17,r5
  802bac:	003f0b06 	br	8027dc <___vfprintf_internal_r+0x914>
			if (ch >= 'f') {	/* 'f' or 'g' */
  802bb0:	e2c01990 	cmplti	r11,fp,102
  802bb4:	5800b51e 	bne	r11,zero,802e8c <___vfprintf_internal_r+0xfc4>
				if (_fpvalue == 0) {
  802bb8:	d9000917 	ldw	r4,36(sp)
  802bbc:	d9400a17 	ldw	r5,40(sp)
  802bc0:	000d883a 	mov	r6,zero
  802bc4:	000f883a 	mov	r7,zero
  802bc8:	d8c00e15 	stw	r3,56(sp)
  802bcc:	080ead80 	call	80ead8 <__eqdf2>
  802bd0:	d8c00e17 	ldw	r3,56(sp)
  802bd4:	10014e1e 	bne	r2,zero,803110 <___vfprintf_internal_r+0x1248>
					PRINT ("0", 1);
  802bd8:	d8801b17 	ldw	r2,108(sp)
  802bdc:	01002074 	movhi	r4,129
  802be0:	210bb104 	addi	r4,r4,11972
  802be4:	10800044 	addi	r2,r2,1
  802be8:	18c00044 	addi	r3,r3,1
  802bec:	b1000015 	stw	r4,0(r22)
  802bf0:	01000044 	movi	r4,1
  802bf4:	d8801b15 	stw	r2,108(sp)
  802bf8:	b1000115 	stw	r4,4(r22)
  802bfc:	d8c01c15 	stw	r3,112(sp)
  802c00:	10800208 	cmpgei	r2,r2,8
  802c04:	1003141e 	bne	r2,zero,803858 <___vfprintf_internal_r+0x1990>
  802c08:	b5800204 	addi	r22,r22,8
					if (expt < ndig || flags & ALT) {
  802c0c:	d8801417 	ldw	r2,80(sp)
  802c10:	d9000817 	ldw	r4,32(sp)
  802c14:	1101d10e 	bge	r2,r4,80335c <___vfprintf_internal_r+0x1494>
						PRINT (decimal_point, decp_len);
  802c18:	d8800d17 	ldw	r2,52(sp)
  802c1c:	d9000b17 	ldw	r4,44(sp)
  802c20:	b0800015 	stw	r2,0(r22)
  802c24:	d8801b17 	ldw	r2,108(sp)
  802c28:	1907883a 	add	r3,r3,r4
  802c2c:	b1000115 	stw	r4,4(r22)
  802c30:	10800044 	addi	r2,r2,1
  802c34:	d8801b15 	stw	r2,108(sp)
  802c38:	d8c01c15 	stw	r3,112(sp)
  802c3c:	10800208 	cmpgei	r2,r2,8
  802c40:	1002141e 	bne	r2,zero,803494 <___vfprintf_internal_r+0x15cc>
  802c44:	b5800204 	addi	r22,r22,8
						PAD (ndig - 1, zeroes);
  802c48:	d8800817 	ldw	r2,32(sp)
  802c4c:	157fffc4 	addi	r21,r2,-1
  802c50:	057d930e 	bge	zero,r21,8022a0 <___vfprintf_internal_r+0x3d8>
  802c54:	01c02074 	movhi	r7,129
  802c58:	a9000450 	cmplti	r4,r21,17
  802c5c:	d8801b17 	ldw	r2,108(sp)
  802c60:	39cbb204 	addi	r7,r7,11976
  802c64:	2002f81e 	bne	r4,zero,803848 <___vfprintf_internal_r+0x1980>
  802c68:	07000404 	movi	fp,16
  802c6c:	3823883a 	mov	r17,r7
  802c70:	00000406 	br	802c84 <___vfprintf_internal_r+0xdbc>
  802c74:	b5800204 	addi	r22,r22,8
  802c78:	ad7ffc04 	addi	r21,r21,-16
  802c7c:	a9000448 	cmpgei	r4,r21,17
  802c80:	2002f026 	beq	r4,zero,803844 <___vfprintf_internal_r+0x197c>
  802c84:	10800044 	addi	r2,r2,1
  802c88:	18c00404 	addi	r3,r3,16
  802c8c:	b4400015 	stw	r17,0(r22)
  802c90:	b7000115 	stw	fp,4(r22)
  802c94:	d8c01c15 	stw	r3,112(sp)
  802c98:	d8801b15 	stw	r2,108(sp)
  802c9c:	11000208 	cmpgei	r4,r2,8
  802ca0:	203ff426 	beq	r4,zero,802c74 <___vfprintf_internal_r+0xdac>
  802ca4:	d9801a04 	addi	r6,sp,104
  802ca8:	900b883a 	mov	r5,r18
  802cac:	9809883a 	mov	r4,r19
  802cb0:	0809c180 	call	809c18 <__sprint_r>
  802cb4:	103d8b1e 	bne	r2,zero,8022e4 <___vfprintf_internal_r+0x41c>
  802cb8:	d8c01c17 	ldw	r3,112(sp)
  802cbc:	d8801b17 	ldw	r2,108(sp)
  802cc0:	dd802704 	addi	r22,sp,156
  802cc4:	003fec06 	br	802c78 <___vfprintf_internal_r+0xdb0>
			PAD (width - realsz, zeroes);
  802cc8:	8519c83a 	sub	r12,r16,r20
  802ccc:	033d650e 	bge	zero,r12,802264 <___vfprintf_internal_r+0x39c>
  802cd0:	01c02074 	movhi	r7,129
  802cd4:	61000450 	cmplti	r4,r12,17
  802cd8:	d8801b17 	ldw	r2,108(sp)
  802cdc:	39cbb204 	addi	r7,r7,11976
  802ce0:	2000281e 	bne	r4,zero,802d84 <___vfprintf_internal_r+0xebc>
  802ce4:	dc400e15 	stw	r17,56(sp)
  802ce8:	dc000f15 	stw	r16,60(sp)
  802cec:	b009883a 	mov	r4,r22
  802cf0:	03400404 	movi	r13,16
  802cf4:	a02d883a 	mov	r22,r20
  802cf8:	6021883a 	mov	r16,r12
  802cfc:	4029883a 	mov	r20,r8
  802d00:	3823883a 	mov	r17,r7
  802d04:	00000406 	br	802d18 <___vfprintf_internal_r+0xe50>
  802d08:	843ffc04 	addi	r16,r16,-16
  802d0c:	81400448 	cmpgei	r5,r16,17
  802d10:	21000204 	addi	r4,r4,8
  802d14:	28001426 	beq	r5,zero,802d68 <___vfprintf_internal_r+0xea0>
  802d18:	10800044 	addi	r2,r2,1
  802d1c:	18c00404 	addi	r3,r3,16
  802d20:	24400015 	stw	r17,0(r4)
  802d24:	23400115 	stw	r13,4(r4)
  802d28:	d8c01c15 	stw	r3,112(sp)
  802d2c:	d8801b15 	stw	r2,108(sp)
  802d30:	11400208 	cmpgei	r5,r2,8
  802d34:	283ff426 	beq	r5,zero,802d08 <___vfprintf_internal_r+0xe40>
  802d38:	d9801a04 	addi	r6,sp,104
  802d3c:	900b883a 	mov	r5,r18
  802d40:	9809883a 	mov	r4,r19
  802d44:	0809c180 	call	809c18 <__sprint_r>
  802d48:	103d661e 	bne	r2,zero,8022e4 <___vfprintf_internal_r+0x41c>
  802d4c:	843ffc04 	addi	r16,r16,-16
  802d50:	81400448 	cmpgei	r5,r16,17
  802d54:	d8c01c17 	ldw	r3,112(sp)
  802d58:	d8801b17 	ldw	r2,108(sp)
  802d5c:	d9002704 	addi	r4,sp,156
  802d60:	03400404 	movi	r13,16
  802d64:	283fec1e 	bne	r5,zero,802d18 <___vfprintf_internal_r+0xe50>
  802d68:	8019883a 	mov	r12,r16
  802d6c:	880f883a 	mov	r7,r17
  802d70:	dc000f17 	ldw	r16,60(sp)
  802d74:	dc400e17 	ldw	r17,56(sp)
  802d78:	a011883a 	mov	r8,r20
  802d7c:	b029883a 	mov	r20,r22
  802d80:	202d883a 	mov	r22,r4
  802d84:	10800044 	addi	r2,r2,1
  802d88:	1b07883a 	add	r3,r3,r12
  802d8c:	d8801b15 	stw	r2,108(sp)
  802d90:	b1c00015 	stw	r7,0(r22)
  802d94:	b3000115 	stw	r12,4(r22)
  802d98:	d8c01c15 	stw	r3,112(sp)
  802d9c:	10800208 	cmpgei	r2,r2,8
  802da0:	1002bc1e 	bne	r2,zero,803894 <___vfprintf_internal_r+0x19cc>
		PAD (dprec - size, zeroes);
  802da4:	4551c83a 	sub	r8,r8,r21
			PAD (width - realsz, zeroes);
  802da8:	b5800204 	addi	r22,r22,8
		PAD (dprec - size, zeroes);
  802dac:	023d2f0e 	bge	zero,r8,80226c <___vfprintf_internal_r+0x3a4>
  802db0:	01c02074 	movhi	r7,129
  802db4:	41000450 	cmplti	r4,r8,17
  802db8:	d8801b17 	ldw	r2,108(sp)
  802dbc:	39cbb204 	addi	r7,r7,11976
  802dc0:	2000221e 	bne	r4,zero,802e4c <___vfprintf_internal_r+0xf84>
  802dc4:	dc400e15 	stw	r17,56(sp)
  802dc8:	dc000f15 	stw	r16,60(sp)
  802dcc:	03000404 	movi	r12,16
  802dd0:	4021883a 	mov	r16,r8
  802dd4:	3823883a 	mov	r17,r7
  802dd8:	00000406 	br	802dec <___vfprintf_internal_r+0xf24>
  802ddc:	843ffc04 	addi	r16,r16,-16
  802de0:	81000448 	cmpgei	r4,r16,17
  802de4:	b5800204 	addi	r22,r22,8
  802de8:	20001426 	beq	r4,zero,802e3c <___vfprintf_internal_r+0xf74>
  802dec:	10800044 	addi	r2,r2,1
  802df0:	18c00404 	addi	r3,r3,16
  802df4:	b4400015 	stw	r17,0(r22)
  802df8:	b3000115 	stw	r12,4(r22)
  802dfc:	d8c01c15 	stw	r3,112(sp)
  802e00:	d8801b15 	stw	r2,108(sp)
  802e04:	11000208 	cmpgei	r4,r2,8
  802e08:	203ff426 	beq	r4,zero,802ddc <___vfprintf_internal_r+0xf14>
  802e0c:	d9801a04 	addi	r6,sp,104
  802e10:	900b883a 	mov	r5,r18
  802e14:	9809883a 	mov	r4,r19
  802e18:	0809c180 	call	809c18 <__sprint_r>
  802e1c:	103d311e 	bne	r2,zero,8022e4 <___vfprintf_internal_r+0x41c>
  802e20:	843ffc04 	addi	r16,r16,-16
  802e24:	81000448 	cmpgei	r4,r16,17
  802e28:	d8c01c17 	ldw	r3,112(sp)
  802e2c:	d8801b17 	ldw	r2,108(sp)
  802e30:	dd802704 	addi	r22,sp,156
  802e34:	03000404 	movi	r12,16
  802e38:	203fec1e 	bne	r4,zero,802dec <___vfprintf_internal_r+0xf24>
  802e3c:	8011883a 	mov	r8,r16
  802e40:	880f883a 	mov	r7,r17
  802e44:	dc000f17 	ldw	r16,60(sp)
  802e48:	dc400e17 	ldw	r17,56(sp)
  802e4c:	10800044 	addi	r2,r2,1
  802e50:	1a07883a 	add	r3,r3,r8
  802e54:	d8801b15 	stw	r2,108(sp)
  802e58:	b1c00015 	stw	r7,0(r22)
  802e5c:	b2000115 	stw	r8,4(r22)
  802e60:	d8c01c15 	stw	r3,112(sp)
  802e64:	10800208 	cmpgei	r2,r2,8
  802e68:	1001341e 	bne	r2,zero,80333c <___vfprintf_internal_r+0x1474>
  802e6c:	b5800204 	addi	r22,r22,8
  802e70:	003cfe06 	br	80226c <___vfprintf_internal_r+0x3a4>
		FLUSH ();	/* copy out the I/O vectors */
  802e74:	d9801a04 	addi	r6,sp,104
  802e78:	900b883a 	mov	r5,r18
  802e7c:	9809883a 	mov	r4,r19
  802e80:	0809c180 	call	809c18 <__sprint_r>
  802e84:	103d1126 	beq	r2,zero,8022cc <___vfprintf_internal_r+0x404>
  802e88:	003d1606 	br	8022e4 <___vfprintf_internal_r+0x41c>
				if (ndig > 1 || flags & ALT) {
  802e8c:	d8800817 	ldw	r2,32(sp)
			PRINT (cp, size);
  802e90:	da001b17 	ldw	r8,108(sp)
					PRINT ("0", 1);
  802e94:	18c00044 	addi	r3,r3,1
				if (ndig > 1 || flags & ALT) {
  802e98:	10800088 	cmpgei	r2,r2,2
			PRINT (cp, size);
  802e9c:	45400044 	addi	r21,r8,1
  802ea0:	b7000204 	addi	fp,r22,8
				if (ndig > 1 || flags & ALT) {
  802ea4:	1000f326 	beq	r2,zero,803274 <___vfprintf_internal_r+0x13ac>
					PRINT (cp, 1);
  802ea8:	00800044 	movi	r2,1
  802eac:	b0800115 	stw	r2,4(r22)
  802eb0:	b4400015 	stw	r17,0(r22)
  802eb4:	d8c01c15 	stw	r3,112(sp)
  802eb8:	dd401b15 	stw	r21,108(sp)
  802ebc:	a8800210 	cmplti	r2,r21,8
  802ec0:	1001d826 	beq	r2,zero,803624 <___vfprintf_internal_r+0x175c>
					PRINT (decimal_point, decp_len);
  802ec4:	d8800b17 	ldw	r2,44(sp)
  802ec8:	d9000d17 	ldw	r4,52(sp)
  802ecc:	ad400044 	addi	r21,r21,1
  802ed0:	1887883a 	add	r3,r3,r2
  802ed4:	e0800115 	stw	r2,4(fp)
  802ed8:	e1000015 	stw	r4,0(fp)
  802edc:	d8c01c15 	stw	r3,112(sp)
  802ee0:	dd401b15 	stw	r21,108(sp)
  802ee4:	a8800208 	cmpgei	r2,r21,8
  802ee8:	1001d71e 	bne	r2,zero,803648 <___vfprintf_internal_r+0x1780>
  802eec:	e7000204 	addi	fp,fp,8
					if (_fpvalue) {
  802ef0:	d9000917 	ldw	r4,36(sp)
  802ef4:	d9400a17 	ldw	r5,40(sp)
						PRINT (cp, ndig - 1);
  802ef8:	aa000044 	addi	r8,r21,1
					if (_fpvalue) {
  802efc:	000d883a 	mov	r6,zero
  802f00:	000f883a 	mov	r7,zero
  802f04:	d8c00e15 	stw	r3,56(sp)
						PRINT (cp, ndig - 1);
  802f08:	da000715 	stw	r8,28(sp)
					if (_fpvalue) {
  802f0c:	080ead80 	call	80ead8 <__eqdf2>
						PAD (ndig - 1, zeroes);
  802f10:	d8c00817 	ldw	r3,32(sp)
						PRINT (cp, ndig - 1);
  802f14:	da000717 	ldw	r8,28(sp)
  802f18:	e5800204 	addi	r22,fp,8
						PAD (ndig - 1, zeroes);
  802f1c:	1affffc4 	addi	r11,r3,-1
					if (_fpvalue) {
  802f20:	d8c00e17 	ldw	r3,56(sp)
  802f24:	1000e526 	beq	r2,zero,8032bc <___vfprintf_internal_r+0x13f4>
					cp++;
  802f28:	8a400044 	addi	r9,r17,1
						PRINT (cp, ndig - 1);
  802f2c:	1ac7883a 	add	r3,r3,r11
  802f30:	da001b15 	stw	r8,108(sp)
  802f34:	e2400015 	stw	r9,0(fp)
  802f38:	e2c00115 	stw	r11,4(fp)
  802f3c:	d8c01c15 	stw	r3,112(sp)
  802f40:	42000208 	cmpgei	r8,r8,8
  802f44:	40013f1e 	bne	r8,zero,803444 <___vfprintf_internal_r+0x157c>
				PRINT (expstr, expsize);
  802f48:	e0800404 	addi	r2,fp,16
  802f4c:	aa000084 	addi	r8,r21,2
						PRINT (cp, ndig - 1);
  802f50:	b039883a 	mov	fp,r22
				PRINT (expstr, expsize);
  802f54:	102d883a 	mov	r22,r2
  802f58:	d9001017 	ldw	r4,64(sp)
  802f5c:	d8801644 	addi	r2,sp,89
  802f60:	da001b15 	stw	r8,108(sp)
  802f64:	20c7883a 	add	r3,r4,r3
  802f68:	e0800015 	stw	r2,0(fp)
  802f6c:	e1000115 	stw	r4,4(fp)
  802f70:	d8c01c15 	stw	r3,112(sp)
  802f74:	42000210 	cmplti	r8,r8,8
  802f78:	403cc91e 	bne	r8,zero,8022a0 <___vfprintf_internal_r+0x3d8>
  802f7c:	d9801a04 	addi	r6,sp,104
  802f80:	900b883a 	mov	r5,r18
  802f84:	9809883a 	mov	r4,r19
  802f88:	0809c180 	call	809c18 <__sprint_r>
  802f8c:	103cd51e 	bne	r2,zero,8022e4 <___vfprintf_internal_r+0x41c>
		FLUSH ();	/* copy out the I/O vectors */
  802f90:	d8c01c17 	ldw	r3,112(sp)
				PRINT (expstr, expsize);
  802f94:	dd802704 	addi	r22,sp,156
  802f98:	003cc106 	br	8022a0 <___vfprintf_internal_r+0x3d8>
  802f9c:	2019883a 	mov	r12,r4
  802fa0:	003e9e06 	br	802a1c <___vfprintf_internal_r+0xb54>
			PAD (width - realsz, blanks);
  802fa4:	03002074 	movhi	r12,129
  802fa8:	39000450 	cmplti	r4,r7,17
  802fac:	d8801b17 	ldw	r2,108(sp)
  802fb0:	630bb604 	addi	r12,r12,11992
  802fb4:	2000321e 	bne	r4,zero,803080 <___vfprintf_internal_r+0x11b8>
  802fb8:	dc401115 	stw	r17,68(sp)
  802fbc:	b009883a 	mov	r4,r22
  802fc0:	9023883a 	mov	r17,r18
  802fc4:	a82d883a 	mov	r22,r21
  802fc8:	ddc01215 	stw	r23,72(sp)
  802fcc:	03c00404 	movi	r15,16
  802fd0:	a02f883a 	mov	r23,r20
  802fd4:	db800e15 	stw	r14,56(sp)
  802fd8:	8029883a 	mov	r20,r16
  802fdc:	db400f15 	stw	r13,60(sp)
  802fe0:	402b883a 	mov	r21,r8
  802fe4:	3821883a 	mov	r16,r7
  802fe8:	6025883a 	mov	r18,r12
  802fec:	00000406 	br	803000 <___vfprintf_internal_r+0x1138>
  802ff0:	843ffc04 	addi	r16,r16,-16
  802ff4:	81800448 	cmpgei	r6,r16,17
  802ff8:	21000204 	addi	r4,r4,8
  802ffc:	30001426 	beq	r6,zero,803050 <___vfprintf_internal_r+0x1188>
  803000:	10800044 	addi	r2,r2,1
  803004:	18c00404 	addi	r3,r3,16
  803008:	24800015 	stw	r18,0(r4)
  80300c:	23c00115 	stw	r15,4(r4)
  803010:	d8c01c15 	stw	r3,112(sp)
  803014:	d8801b15 	stw	r2,108(sp)
  803018:	11800208 	cmpgei	r6,r2,8
  80301c:	303ff426 	beq	r6,zero,802ff0 <___vfprintf_internal_r+0x1128>
  803020:	d9801a04 	addi	r6,sp,104
  803024:	880b883a 	mov	r5,r17
  803028:	9809883a 	mov	r4,r19
  80302c:	0809c180 	call	809c18 <__sprint_r>
  803030:	1002021e 	bne	r2,zero,80383c <___vfprintf_internal_r+0x1974>
  803034:	843ffc04 	addi	r16,r16,-16
  803038:	81800448 	cmpgei	r6,r16,17
  80303c:	d8c01c17 	ldw	r3,112(sp)
  803040:	d8801b17 	ldw	r2,108(sp)
  803044:	d9002704 	addi	r4,sp,156
  803048:	03c00404 	movi	r15,16
  80304c:	303fec1e 	bne	r6,zero,803000 <___vfprintf_internal_r+0x1138>
  803050:	800f883a 	mov	r7,r16
  803054:	9019883a 	mov	r12,r18
  803058:	a021883a 	mov	r16,r20
  80305c:	8825883a 	mov	r18,r17
  803060:	b829883a 	mov	r20,r23
  803064:	db800e17 	ldw	r14,56(sp)
  803068:	db400f17 	ldw	r13,60(sp)
  80306c:	ddc01217 	ldw	r23,72(sp)
  803070:	dc401117 	ldw	r17,68(sp)
  803074:	a811883a 	mov	r8,r21
  803078:	b02b883a 	mov	r21,r22
  80307c:	202d883a 	mov	r22,r4
  803080:	10800044 	addi	r2,r2,1
  803084:	19c7883a 	add	r3,r3,r7
  803088:	d8801b15 	stw	r2,108(sp)
  80308c:	b3000015 	stw	r12,0(r22)
  803090:	b1c00115 	stw	r7,4(r22)
  803094:	d8c01c15 	stw	r3,112(sp)
  803098:	10800208 	cmpgei	r2,r2,8
  80309c:	1001b01e 	bne	r2,zero,803760 <___vfprintf_internal_r+0x1898>
  8030a0:	b5800204 	addi	r22,r22,8
  8030a4:	003c5206 	br	8021f0 <___vfprintf_internal_r+0x328>
			PRINT (&sign, 1);
  8030a8:	d9801a04 	addi	r6,sp,104
  8030ac:	900b883a 	mov	r5,r18
  8030b0:	9809883a 	mov	r4,r19
  8030b4:	da001115 	stw	r8,68(sp)
  8030b8:	db400f15 	stw	r13,60(sp)
  8030bc:	db800e15 	stw	r14,56(sp)
  8030c0:	0809c180 	call	809c18 <__sprint_r>
  8030c4:	103c871e 	bne	r2,zero,8022e4 <___vfprintf_internal_r+0x41c>
			PRINT (ox, 2);
  8030c8:	d8c01c17 	ldw	r3,112(sp)
			PRINT (&sign, 1);
  8030cc:	da001117 	ldw	r8,68(sp)
  8030d0:	db400f17 	ldw	r13,60(sp)
  8030d4:	db800e17 	ldw	r14,56(sp)
  8030d8:	dd802704 	addi	r22,sp,156
  8030dc:	003c5206 	br	802228 <___vfprintf_internal_r+0x360>
			PRINT (ox, 2);
  8030e0:	d9801a04 	addi	r6,sp,104
  8030e4:	900b883a 	mov	r5,r18
  8030e8:	9809883a 	mov	r4,r19
  8030ec:	da000f15 	stw	r8,60(sp)
  8030f0:	db400e15 	stw	r13,56(sp)
  8030f4:	0809c180 	call	809c18 <__sprint_r>
  8030f8:	103c7a1e 	bne	r2,zero,8022e4 <___vfprintf_internal_r+0x41c>
			PRINT (cp, size);
  8030fc:	d8c01c17 	ldw	r3,112(sp)
			PRINT (ox, 2);
  803100:	da000f17 	ldw	r8,60(sp)
  803104:	db400e17 	ldw	r13,56(sp)
  803108:	dd802704 	addi	r22,sp,156
  80310c:	003c5306 	br	80225c <___vfprintf_internal_r+0x394>
				} else if (expt <= 0) {
  803110:	dd401417 	ldw	r21,80(sp)
  803114:	0541a00e 	bge	zero,r21,803798 <___vfprintf_internal_r+0x18d0>
					PRINTANDPAD(cp, convbuf + ndig,
  803118:	d8800717 	ldw	r2,28(sp)
  80311c:	d9000817 	ldw	r4,32(sp)
  803120:	102b883a 	mov	r21,r2
  803124:	2080b916 	blt	r4,r2,80340c <___vfprintf_internal_r+0x1544>
  803128:	05400a0e 	bge	zero,r21,803154 <___vfprintf_internal_r+0x128c>
  80312c:	d8801b17 	ldw	r2,108(sp)
  803130:	1d47883a 	add	r3,r3,r21
  803134:	b4400015 	stw	r17,0(r22)
  803138:	10800044 	addi	r2,r2,1
  80313c:	d8801b15 	stw	r2,108(sp)
  803140:	b5400115 	stw	r21,4(r22)
  803144:	d8c01c15 	stw	r3,112(sp)
  803148:	10800208 	cmpgei	r2,r2,8
  80314c:	1002b51e 	bne	r2,zero,803c24 <___vfprintf_internal_r+0x1d5c>
  803150:	b5800204 	addi	r22,r22,8
  803154:	a800cd16 	blt	r21,zero,80348c <___vfprintf_internal_r+0x15c4>
  803158:	d8800717 	ldw	r2,28(sp)
  80315c:	156bc83a 	sub	r21,r2,r21
  803160:	0540dc16 	blt	zero,r21,8034d4 <___vfprintf_internal_r+0x160c>
					if (expt < ndig || flags & ALT)
  803164:	dd401417 	ldw	r21,80(sp)
  803168:	d8800817 	ldw	r2,32(sp)
  80316c:	a880aa0e 	bge	r21,r2,803418 <___vfprintf_internal_r+0x1550>
					    PRINT (decimal_point, decp_len);
  803170:	d8800d17 	ldw	r2,52(sp)
  803174:	d9000b17 	ldw	r4,44(sp)
  803178:	b0800015 	stw	r2,0(r22)
  80317c:	d8801b17 	ldw	r2,108(sp)
  803180:	1907883a 	add	r3,r3,r4
  803184:	b1000115 	stw	r4,4(r22)
  803188:	10800044 	addi	r2,r2,1
  80318c:	d8801b15 	stw	r2,108(sp)
  803190:	d8c01c15 	stw	r3,112(sp)
  803194:	10800208 	cmpgei	r2,r2,8
  803198:	1002991e 	bne	r2,zero,803c00 <___vfprintf_internal_r+0x1d38>
  80319c:	b5800204 	addi	r22,r22,8
					PRINTANDPAD (cp, convbuf + ndig,
  8031a0:	d9000817 	ldw	r4,32(sp)
  8031a4:	d9400717 	ldw	r5,28(sp)
  8031a8:	2545c83a 	sub	r2,r4,r21
  8031ac:	2149c83a 	sub	r4,r4,r5
  8031b0:	102b883a 	mov	r21,r2
  8031b4:	2080010e 	bge	r4,r2,8031bc <___vfprintf_internal_r+0x12f4>
  8031b8:	202b883a 	mov	r21,r4
  8031bc:	05400c0e 	bge	zero,r21,8031f0 <___vfprintf_internal_r+0x1328>
					cp += lead;
  8031c0:	d9000717 	ldw	r4,28(sp)
					PRINTANDPAD (cp, convbuf + ndig,
  8031c4:	1d47883a 	add	r3,r3,r21
  8031c8:	b5400115 	stw	r21,4(r22)
					cp += lead;
  8031cc:	8913883a 	add	r9,r17,r4
					PRINTANDPAD (cp, convbuf + ndig,
  8031d0:	d9001b17 	ldw	r4,108(sp)
  8031d4:	b2400015 	stw	r9,0(r22)
  8031d8:	d8c01c15 	stw	r3,112(sp)
  8031dc:	21000044 	addi	r4,r4,1
  8031e0:	d9001b15 	stw	r4,108(sp)
  8031e4:	21000208 	cmpgei	r4,r4,8
  8031e8:	2002b91e 	bne	r4,zero,803cd0 <___vfprintf_internal_r+0x1e08>
  8031ec:	b5800204 	addi	r22,r22,8
  8031f0:	a800010e 	bge	r21,zero,8031f8 <___vfprintf_internal_r+0x1330>
  8031f4:	002b883a 	mov	r21,zero
  8031f8:	156bc83a 	sub	r21,r2,r21
  8031fc:	057c280e 	bge	zero,r21,8022a0 <___vfprintf_internal_r+0x3d8>
  803200:	01c02074 	movhi	r7,129
  803204:	a9000450 	cmplti	r4,r21,17
  803208:	d8801b17 	ldw	r2,108(sp)
  80320c:	39cbb204 	addi	r7,r7,11976
  803210:	20018d1e 	bne	r4,zero,803848 <___vfprintf_internal_r+0x1980>
  803214:	07000404 	movi	fp,16
  803218:	3823883a 	mov	r17,r7
  80321c:	00000406 	br	803230 <___vfprintf_internal_r+0x1368>
  803220:	b5800204 	addi	r22,r22,8
  803224:	ad7ffc04 	addi	r21,r21,-16
  803228:	a9000448 	cmpgei	r4,r21,17
  80322c:	20018526 	beq	r4,zero,803844 <___vfprintf_internal_r+0x197c>
  803230:	10800044 	addi	r2,r2,1
  803234:	18c00404 	addi	r3,r3,16
  803238:	b4400015 	stw	r17,0(r22)
  80323c:	b7000115 	stw	fp,4(r22)
  803240:	d8c01c15 	stw	r3,112(sp)
  803244:	d8801b15 	stw	r2,108(sp)
  803248:	11000208 	cmpgei	r4,r2,8
  80324c:	203ff426 	beq	r4,zero,803220 <___vfprintf_internal_r+0x1358>
  803250:	d9801a04 	addi	r6,sp,104
  803254:	900b883a 	mov	r5,r18
  803258:	9809883a 	mov	r4,r19
  80325c:	0809c180 	call	809c18 <__sprint_r>
  803260:	103c201e 	bne	r2,zero,8022e4 <___vfprintf_internal_r+0x41c>
  803264:	d8c01c17 	ldw	r3,112(sp)
  803268:	d8801b17 	ldw	r2,108(sp)
  80326c:	dd802704 	addi	r22,sp,156
  803270:	003fec06 	br	803224 <___vfprintf_internal_r+0x135c>
				if (ndig > 1 || flags & ALT) {
  803274:	d8800417 	ldw	r2,16(sp)
  803278:	1080004c 	andi	r2,r2,1
  80327c:	103f0a1e 	bne	r2,zero,802ea8 <___vfprintf_internal_r+0xfe0>
					PRINT (cp, 1);
  803280:	00800044 	movi	r2,1
  803284:	dd401b15 	stw	r21,108(sp)
  803288:	b4400015 	stw	r17,0(r22)
  80328c:	b0800115 	stw	r2,4(r22)
  803290:	d8c01c15 	stw	r3,112(sp)
  803294:	ad400208 	cmpgei	r21,r21,8
  803298:	a8006a1e 	bne	r21,zero,803444 <___vfprintf_internal_r+0x157c>
				PRINT (expstr, expsize);
  80329c:	42000084 	addi	r8,r8,2
  8032a0:	b5800404 	addi	r22,r22,16
  8032a4:	003f2c06 	br	802f58 <___vfprintf_internal_r+0x1090>
			if (_uquad != 0 || prec != 0) {
  8032a8:	4002511e 	bne	r8,zero,803bf0 <___vfprintf_internal_r+0x1d28>
  8032ac:	0011883a 	mov	r8,zero
  8032b0:	002b883a 	mov	r21,zero
			cp = buf + BUF;
  8032b4:	dc402704 	addi	r17,sp,156
  8032b8:	003d4806 	br	8027dc <___vfprintf_internal_r+0x914>
						PAD (ndig - 1, zeroes);
  8032bc:	02ff260e 	bge	zero,r11,802f58 <___vfprintf_internal_r+0x1090>
  8032c0:	58800450 	cmplti	r2,r11,17
  8032c4:	01c02074 	movhi	r7,129
  8032c8:	1002d01e 	bne	r2,zero,803e0c <___vfprintf_internal_r+0x1f44>
  8032cc:	39cbb204 	addi	r7,r7,11976
  8032d0:	dc000715 	stw	r16,28(sp)
  8032d4:	05800404 	movi	r22,16
  8032d8:	5823883a 	mov	r17,r11
  8032dc:	402b883a 	mov	r21,r8
  8032e0:	3821883a 	mov	r16,r7
  8032e4:	00000506 	br	8032fc <___vfprintf_internal_r+0x1434>
  8032e8:	e7000204 	addi	fp,fp,8
  8032ec:	8c7ffc04 	addi	r17,r17,-16
  8032f0:	88800448 	cmpgei	r2,r17,17
  8032f4:	1001c526 	beq	r2,zero,803a0c <___vfprintf_internal_r+0x1b44>
  8032f8:	ad400044 	addi	r21,r21,1
  8032fc:	18c00404 	addi	r3,r3,16
  803300:	e4000015 	stw	r16,0(fp)
  803304:	e5800115 	stw	r22,4(fp)
  803308:	d8c01c15 	stw	r3,112(sp)
  80330c:	dd401b15 	stw	r21,108(sp)
  803310:	a8800208 	cmpgei	r2,r21,8
  803314:	103ff426 	beq	r2,zero,8032e8 <___vfprintf_internal_r+0x1420>
  803318:	d9801a04 	addi	r6,sp,104
  80331c:	900b883a 	mov	r5,r18
  803320:	9809883a 	mov	r4,r19
  803324:	0809c180 	call	809c18 <__sprint_r>
  803328:	103bee1e 	bne	r2,zero,8022e4 <___vfprintf_internal_r+0x41c>
  80332c:	dd401b17 	ldw	r21,108(sp)
  803330:	d8c01c17 	ldw	r3,112(sp)
  803334:	df002704 	addi	fp,sp,156
  803338:	003fec06 	br	8032ec <___vfprintf_internal_r+0x1424>
		PAD (dprec - size, zeroes);
  80333c:	d9801a04 	addi	r6,sp,104
  803340:	900b883a 	mov	r5,r18
  803344:	9809883a 	mov	r4,r19
  803348:	0809c180 	call	809c18 <__sprint_r>
  80334c:	103be51e 	bne	r2,zero,8022e4 <___vfprintf_internal_r+0x41c>
			PRINT (cp, size);
  803350:	d8c01c17 	ldw	r3,112(sp)
		PAD (dprec - size, zeroes);
  803354:	dd802704 	addi	r22,sp,156
  803358:	003bc406 	br	80226c <___vfprintf_internal_r+0x3a4>
					if (expt < ndig || flags & ALT) {
  80335c:	d8800417 	ldw	r2,16(sp)
  803360:	1080004c 	andi	r2,r2,1
  803364:	103bce26 	beq	r2,zero,8022a0 <___vfprintf_internal_r+0x3d8>
  803368:	003e2b06 	br	802c18 <___vfprintf_internal_r+0xd50>
			cp = buf + BUF;
  80336c:	dc402704 	addi	r17,sp,156
  803370:	003d1a06 	br	8027dc <___vfprintf_internal_r+0x914>
				*GET_ARG (N, ap, quad_ptr_t) = ret;
  803374:	d9000517 	ldw	r4,20(sp)
  803378:	2005d7fa 	srai	r2,r4,31
  80337c:	19000015 	stw	r4,0(r3)
  803380:	18800115 	stw	r2,4(r3)
  803384:	003b0406 	br	801f98 <___vfprintf_internal_r+0xd0>
				_fpvalue = (double) GET_ARG (N, ap, _LONG_DOUBLE);
  803388:	18800017 	ldw	r2,0(r3)
  80338c:	d8800915 	stw	r2,36(sp)
  803390:	18800117 	ldw	r2,4(r3)
  803394:	d8800a15 	stw	r2,40(sp)
  803398:	003c7406 	br	80256c <___vfprintf_internal_r+0x6a4>
			_uquad = UARG ();
  80339c:	25000017 	ldw	r20,0(r4)
  8033a0:	002b883a 	mov	r21,zero
  8033a4:	d8c00615 	stw	r3,24(sp)
			base = DEC;
  8033a8:	00800044 	movi	r2,1
  8033ac:	003c0006 	br	8023b0 <___vfprintf_internal_r+0x4e8>
				ox[0] = '0';
  8033b0:	00800c04 	movi	r2,48
  8033b4:	d8801385 	stb	r2,78(sp)
				ox[1] = ch;
  8033b8:	d8c013c5 	stb	r3,79(sp)
				flags |= HEXPREFIX;
  8033bc:	63000094 	ori	r12,r12,2
			base = HEX;
  8033c0:	00800084 	movi	r2,2
  8033c4:	003bfa06 	br	8023b0 <___vfprintf_internal_r+0x4e8>
			_uquad = UARG ();
  8033c8:	25000017 	ldw	r20,0(r4)
  8033cc:	002b883a 	mov	r21,zero
  8033d0:	d8c00615 	stw	r3,24(sp)
			base = OCT;
  8033d4:	0005883a 	mov	r2,zero
  8033d8:	003bf506 	br	8023b0 <___vfprintf_internal_r+0x4e8>
hex:			_uquad = UARG ();
  8033dc:	2d000017 	ldw	r20,0(r5)
  8033e0:	002b883a 	mov	r21,zero
  8033e4:	d9000615 	stw	r4,24(sp)
  8033e8:	003d1f06 	br	802868 <___vfprintf_internal_r+0x9a0>
			_uquad = SARG ();
  8033ec:	25000017 	ldw	r20,0(r4)
  8033f0:	d8c00615 	stw	r3,24(sp)
  8033f4:	a02bd7fa 	srai	r21,r20,31
			if ((quad_t)_uquad < 0)
  8033f8:	a805883a 	mov	r2,r21
  8033fc:	003ce506 	br	802794 <___vfprintf_internal_r+0x8cc>
			width = -width;
  803400:	0421c83a 	sub	r16,zero,r16
			width = GET_ARG (n, ap, int);
  803404:	d8800615 	stw	r2,24(sp)
  803408:	003db006 	br	802acc <___vfprintf_internal_r+0xc04>
  80340c:	202b883a 	mov	r21,r4
					PRINTANDPAD(cp, convbuf + ndig,
  803410:	057f4616 	blt	zero,r21,80312c <___vfprintf_internal_r+0x1264>
  803414:	003f4f06 	br	803154 <___vfprintf_internal_r+0x128c>
					if (expt < ndig || flags & ALT)
  803418:	d8800417 	ldw	r2,16(sp)
  80341c:	1080004c 	andi	r2,r2,1
  803420:	103f531e 	bne	r2,zero,803170 <___vfprintf_internal_r+0x12a8>
					PRINTANDPAD (cp, convbuf + ndig,
  803424:	d9000817 	ldw	r4,32(sp)
  803428:	d9400717 	ldw	r5,28(sp)
  80342c:	2545c83a 	sub	r2,r4,r21
  803430:	2179c83a 	sub	fp,r4,r5
  803434:	102b883a 	mov	r21,r2
  803438:	e0bf6d0e 	bge	fp,r2,8031f0 <___vfprintf_internal_r+0x1328>
  80343c:	e02b883a 	mov	r21,fp
  803440:	003f6b06 	br	8031f0 <___vfprintf_internal_r+0x1328>
					PRINT (cp, 1);
  803444:	d9801a04 	addi	r6,sp,104
  803448:	900b883a 	mov	r5,r18
  80344c:	9809883a 	mov	r4,r19
  803450:	0809c180 	call	809c18 <__sprint_r>
  803454:	103ba31e 	bne	r2,zero,8022e4 <___vfprintf_internal_r+0x41c>
				PRINT (expstr, expsize);
  803458:	da001b17 	ldw	r8,108(sp)
  80345c:	d8c01c17 	ldw	r3,112(sp)
  803460:	dd802904 	addi	r22,sp,164
  803464:	42000044 	addi	r8,r8,1
					PRINT (cp, 1);
  803468:	df002704 	addi	fp,sp,156
  80346c:	003eba06 	br	802f58 <___vfprintf_internal_r+0x1090>
rflag:		ch = *fmt++;
  803470:	bf000043 	ldbu	fp,1(r23)
				flags |= QUADINT;
  803474:	63000814 	ori	r12,r12,32
				fmt++;
  803478:	bdc00044 	addi	r23,r23,1
  80347c:	e2c03fcc 	andi	r11,fp,255
  803480:	5ac0201c 	xori	r11,r11,128
  803484:	5affe004 	addi	r11,r11,-128
  803488:	003ad406 	br	801fdc <___vfprintf_internal_r+0x114>
					PRINTANDPAD(cp, convbuf + ndig,
  80348c:	002b883a 	mov	r21,zero
  803490:	003f3106 	br	803158 <___vfprintf_internal_r+0x1290>
						PRINT (decimal_point, decp_len);
  803494:	d9801a04 	addi	r6,sp,104
  803498:	900b883a 	mov	r5,r18
  80349c:	9809883a 	mov	r4,r19
  8034a0:	0809c180 	call	809c18 <__sprint_r>
  8034a4:	103b8f1e 	bne	r2,zero,8022e4 <___vfprintf_internal_r+0x41c>
		FLUSH ();	/* copy out the I/O vectors */
  8034a8:	d8c01c17 	ldw	r3,112(sp)
						PRINT (decimal_point, decp_len);
  8034ac:	dd802704 	addi	r22,sp,156
  8034b0:	003de506 	br	802c48 <___vfprintf_internal_r+0xd80>
				size = ((unsigned) prec > 6U) ? 6 : prec;
  8034b4:	408001f0 	cmpltui	r2,r8,7
  8034b8:	402b883a 	mov	r21,r8
  8034bc:	1001a026 	beq	r2,zero,803b40 <___vfprintf_internal_r+0x1c78>
				cp = "(null)";
  8034c0:	04402074 	movhi	r17,129
  8034c4:	a829883a 	mov	r20,r21
			cp = GET_ARG (N, ap, char_ptr_t);
  8034c8:	d8c00615 	stw	r3,24(sp)
				cp = "(null)";
  8034cc:	8c4baf04 	addi	r17,r17,11964
  8034d0:	003b3a06 	br	8021bc <___vfprintf_internal_r+0x2f4>
					PRINTANDPAD(cp, convbuf + ndig,
  8034d4:	01c02074 	movhi	r7,129
  8034d8:	a9000450 	cmplti	r4,r21,17
  8034dc:	d8801b17 	ldw	r2,108(sp)
  8034e0:	39cbb204 	addi	r7,r7,11976
  8034e4:	2001831e 	bne	r4,zero,803af4 <___vfprintf_internal_r+0x1c2c>
  8034e8:	dc000e15 	stw	r16,56(sp)
  8034ec:	07000404 	movi	fp,16
  8034f0:	3821883a 	mov	r16,r7
  8034f4:	00000406 	br	803508 <___vfprintf_internal_r+0x1640>
  8034f8:	b5800204 	addi	r22,r22,8
  8034fc:	ad7ffc04 	addi	r21,r21,-16
  803500:	a9000448 	cmpgei	r4,r21,17
  803504:	20017926 	beq	r4,zero,803aec <___vfprintf_internal_r+0x1c24>
  803508:	10800044 	addi	r2,r2,1
  80350c:	18c00404 	addi	r3,r3,16
  803510:	b4000015 	stw	r16,0(r22)
  803514:	b7000115 	stw	fp,4(r22)
  803518:	d8c01c15 	stw	r3,112(sp)
  80351c:	d8801b15 	stw	r2,108(sp)
  803520:	11000208 	cmpgei	r4,r2,8
  803524:	203ff426 	beq	r4,zero,8034f8 <___vfprintf_internal_r+0x1630>
  803528:	d9801a04 	addi	r6,sp,104
  80352c:	900b883a 	mov	r5,r18
  803530:	9809883a 	mov	r4,r19
  803534:	0809c180 	call	809c18 <__sprint_r>
  803538:	103b6a1e 	bne	r2,zero,8022e4 <___vfprintf_internal_r+0x41c>
  80353c:	d8c01c17 	ldw	r3,112(sp)
  803540:	d8801b17 	ldw	r2,108(sp)
  803544:	dd802704 	addi	r22,sp,156
  803548:	003fec06 	br	8034fc <___vfprintf_internal_r+0x1634>
  80354c:	1805883a 	mov	r2,r3
				} else if (expt >= ndig) { /* fixed g fmt */
  803550:	d8c00817 	ldw	r3,32(sp)
  803554:	10c15016 	blt	r2,r3,803a98 <___vfprintf_internal_r+0x1bd0>
					if (flags & ALT)
  803558:	6300004c 	andi	r12,r12,1
  80355c:	60017f1e 	bne	r12,zero,803b5c <___vfprintf_internal_r+0x1c94>
		realsz = dprec > size ? dprec : size;
  803560:	1029883a 	mov	r20,r2
  803564:	1000010e 	bge	r2,zero,80356c <___vfprintf_internal_r+0x16a4>
  803568:	0029883a 	mov	r20,zero
  80356c:	dd400717 	ldw	r21,28(sp)
  803570:	070019c4 	movi	fp,103
  803574:	00015006 	br	803ab8 <___vfprintf_internal_r+0x1bf0>
			cp = buf + BUF;
  803578:	dc402704 	addi	r17,sp,156
  80357c:	a805883a 	mov	r2,r21
  803580:	dc000715 	stw	r16,28(sp)
  803584:	902b883a 	mov	r21,r18
  803588:	8821883a 	mov	r16,r17
  80358c:	db000415 	stw	r12,16(sp)
  803590:	a023883a 	mov	r17,r20
  803594:	da000e15 	stw	r8,56(sp)
  803598:	9829883a 	mov	r20,r19
  80359c:	1025883a 	mov	r18,r2
  8035a0:	6827883a 	mov	r19,r13
					  *--cp = to_char (_uquad % 10);
  8035a4:	8809883a 	mov	r4,r17
  8035a8:	900b883a 	mov	r5,r18
  8035ac:	01800284 	movi	r6,10
  8035b0:	000f883a 	mov	r7,zero
  8035b4:	080d1180 	call	80d118 <__umoddi3>
  8035b8:	10800c04 	addi	r2,r2,48
					  _uquad /= 10;
  8035bc:	8809883a 	mov	r4,r17
  8035c0:	900b883a 	mov	r5,r18
  8035c4:	01800284 	movi	r6,10
  8035c8:	000f883a 	mov	r7,zero
					  *--cp = to_char (_uquad % 10);
  8035cc:	80bfffc5 	stb	r2,-1(r16)
					  _uquad /= 10;
  8035d0:	080caf80 	call	80caf8 <__udivdi3>
  8035d4:	900d883a 	mov	r6,r18
  8035d8:	880f883a 	mov	r7,r17
					  *--cp = to_char (_uquad % 10);
  8035dc:	843fffc4 	addi	r16,r16,-1
					  _uquad /= 10;
  8035e0:	1023883a 	mov	r17,r2
  8035e4:	1825883a 	mov	r18,r3
					} while (_uquad != 0);
  8035e8:	303fee1e 	bne	r6,zero,8035a4 <___vfprintf_internal_r+0x16dc>
  8035ec:	39c002a8 	cmpgeui	r7,r7,10
  8035f0:	383fec1e 	bne	r7,zero,8035a4 <___vfprintf_internal_r+0x16dc>
			size = buf + BUF - cp;
  8035f4:	8023883a 	mov	r17,r16
  8035f8:	d8802704 	addi	r2,sp,156
  8035fc:	981b883a 	mov	r13,r19
  803600:	a825883a 	mov	r18,r21
  803604:	dc000717 	ldw	r16,28(sp)
  803608:	da000e17 	ldw	r8,56(sp)
  80360c:	a027883a 	mov	r19,r20
  803610:	146bc83a 	sub	r21,r2,r17
  803614:	003c7106 	br	8027dc <___vfprintf_internal_r+0x914>
				*GET_ARG (N, ap, int_ptr_t) = ret;
  803618:	d8800517 	ldw	r2,20(sp)
  80361c:	18800015 	stw	r2,0(r3)
  803620:	003a5d06 	br	801f98 <___vfprintf_internal_r+0xd0>
					PRINT (cp, 1);
  803624:	d9801a04 	addi	r6,sp,104
  803628:	900b883a 	mov	r5,r18
  80362c:	9809883a 	mov	r4,r19
  803630:	0809c180 	call	809c18 <__sprint_r>
  803634:	103b2b1e 	bne	r2,zero,8022e4 <___vfprintf_internal_r+0x41c>
					PRINT (decimal_point, decp_len);
  803638:	d8c01c17 	ldw	r3,112(sp)
  80363c:	dd401b17 	ldw	r21,108(sp)
					PRINT (cp, 1);
  803640:	df002704 	addi	fp,sp,156
  803644:	003e1f06 	br	802ec4 <___vfprintf_internal_r+0xffc>
					PRINT (decimal_point, decp_len);
  803648:	d9801a04 	addi	r6,sp,104
  80364c:	900b883a 	mov	r5,r18
  803650:	9809883a 	mov	r4,r19
  803654:	0809c180 	call	809c18 <__sprint_r>
  803658:	103b221e 	bne	r2,zero,8022e4 <___vfprintf_internal_r+0x41c>
						PRINT (cp, ndig - 1);
  80365c:	d8c01c17 	ldw	r3,112(sp)
  803660:	dd401b17 	ldw	r21,108(sp)
					PRINT (decimal_point, decp_len);
  803664:	df002704 	addi	fp,sp,156
  803668:	003e2106 	br	802ef0 <___vfprintf_internal_r+0x1028>
	digits = _DTOA_R (data, value, mode, ndigits, decpt, &dsgn, &rve);
  80366c:	d8801804 	addi	r2,sp,96
  803670:	d8800315 	stw	r2,12(sp)
  803674:	d9400917 	ldw	r5,36(sp)
  803678:	d8801504 	addi	r2,sp,84
  80367c:	d8800215 	stw	r2,8(sp)
  803680:	d8801404 	addi	r2,sp,80
  803684:	da000015 	stw	r8,0(sp)
  803688:	180d883a 	mov	r6,r3
  80368c:	d8800115 	stw	r2,4(sp)
  803690:	01c000c4 	movi	r7,3
  803694:	9809883a 	mov	r4,r19
  803698:	db000f15 	stw	r12,60(sp)
  80369c:	da000815 	stw	r8,32(sp)
  8036a0:	d8c00715 	stw	r3,28(sp)
  8036a4:	08042b80 	call	8042b8 <_dtoa_r>
		bp = digits + ndigits;
  8036a8:	da000817 	ldw	r8,32(sp)
	digits = _DTOA_R (data, value, mode, ndigits, decpt, &dsgn, &rve);
  8036ac:	1023883a 	mov	r17,r2
		bp = digits + ndigits;
  8036b0:	d8c00717 	ldw	r3,28(sp)
  8036b4:	1213883a 	add	r9,r2,r8
			if (*digits == '0' && value)
  8036b8:	88800007 	ldb	r2,0(r17)
  8036bc:	db000f17 	ldw	r12,60(sp)
  8036c0:	10800c20 	cmpeqi	r2,r2,48
  8036c4:	1001951e 	bne	r2,zero,803d1c <___vfprintf_internal_r+0x1e54>
			bp += *decpt;
  8036c8:	d8801417 	ldw	r2,80(sp)
  8036cc:	4893883a 	add	r9,r9,r2
		if (value == 0)	/* kludge for __dtoa irregularity */
  8036d0:	d9000917 	ldw	r4,36(sp)
  8036d4:	000d883a 	mov	r6,zero
  8036d8:	000f883a 	mov	r7,zero
  8036dc:	180b883a 	mov	r5,r3
  8036e0:	da400f15 	stw	r9,60(sp)
  8036e4:	da000815 	stw	r8,32(sp)
  8036e8:	db000715 	stw	r12,28(sp)
  8036ec:	080ead80 	call	80ead8 <__eqdf2>
  8036f0:	db000717 	ldw	r12,28(sp)
  8036f4:	da000817 	ldw	r8,32(sp)
  8036f8:	da400f17 	ldw	r9,60(sp)
  8036fc:	10000f1e 	bne	r2,zero,80373c <___vfprintf_internal_r+0x1874>
  803700:	4805883a 	mov	r2,r9
				if (expt <= -4 || expt > prec)
  803704:	d8c01417 	ldw	r3,80(sp)
	*length = rve - digits;
  803708:	1445c83a 	sub	r2,r2,r17
			if (ch == 'g' || ch == 'G') {
  80370c:	ad4011d8 	cmpnei	r21,r21,71
				if (expt <= -4 || expt > prec)
  803710:	d8c00715 	stw	r3,28(sp)
	*length = rve - digits;
  803714:	d8800815 	stw	r2,32(sp)
			if (ch == 'g' || ch == 'G') {
  803718:	a83bc526 	beq	r21,zero,802630 <___vfprintf_internal_r+0x768>
			if (ch <= 'e') {	/* 'a', 'A', 'e', or 'E' fmt */
  80371c:	a03bc926 	beq	r20,zero,802644 <___vfprintf_internal_r+0x77c>
					if (expt > 0) {
  803720:	6080004c 	andi	r2,r12,1
  803724:	1204b03a 	or	r2,r2,r8
  803728:	00c11a0e 	bge	zero,r3,803b94 <___vfprintf_internal_r+0x1ccc>
						if (prec || flags & ALT)
  80372c:	1001981e 	bne	r2,zero,803d90 <___vfprintf_internal_r+0x1ec8>
  803730:	182b883a 	mov	r21,r3
  803734:	1829883a 	mov	r20,r3
  803738:	0000df06 	br	803ab8 <___vfprintf_internal_r+0x1bf0>
		while (rve < bp)
  80373c:	d8801817 	ldw	r2,96(sp)
  803740:	127ff02e 	bgeu	r2,r9,803704 <___vfprintf_internal_r+0x183c>
			*rve++ = '0';
  803744:	01000c04 	movi	r4,48
  803748:	10c00044 	addi	r3,r2,1
  80374c:	d8c01815 	stw	r3,96(sp)
  803750:	11000005 	stb	r4,0(r2)
		while (rve < bp)
  803754:	d8801817 	ldw	r2,96(sp)
  803758:	127ffb36 	bltu	r2,r9,803748 <___vfprintf_internal_r+0x1880>
  80375c:	003fe906 	br	803704 <___vfprintf_internal_r+0x183c>
			PAD (width - realsz, blanks);
  803760:	d9801a04 	addi	r6,sp,104
  803764:	900b883a 	mov	r5,r18
  803768:	9809883a 	mov	r4,r19
  80376c:	da001115 	stw	r8,68(sp)
  803770:	db400f15 	stw	r13,60(sp)
  803774:	db800e15 	stw	r14,56(sp)
  803778:	0809c180 	call	809c18 <__sprint_r>
  80377c:	103ad91e 	bne	r2,zero,8022e4 <___vfprintf_internal_r+0x41c>
			PRINT (&sign, 1);
  803780:	d8c01c17 	ldw	r3,112(sp)
			PAD (width - realsz, blanks);
  803784:	da001117 	ldw	r8,68(sp)
  803788:	db400f17 	ldw	r13,60(sp)
  80378c:	db800e17 	ldw	r14,56(sp)
  803790:	dd802704 	addi	r22,sp,156
  803794:	003a9606 	br	8021f0 <___vfprintf_internal_r+0x328>
					PRINT ("0", 1);
  803798:	d8801b17 	ldw	r2,108(sp)
  80379c:	01002074 	movhi	r4,129
  8037a0:	210bb104 	addi	r4,r4,11972
  8037a4:	10800044 	addi	r2,r2,1
  8037a8:	18c00044 	addi	r3,r3,1
  8037ac:	b1000015 	stw	r4,0(r22)
  8037b0:	01000044 	movi	r4,1
  8037b4:	d8801b15 	stw	r2,108(sp)
  8037b8:	b1000115 	stw	r4,4(r22)
  8037bc:	d8c01c15 	stw	r3,112(sp)
  8037c0:	10800208 	cmpgei	r2,r2,8
  8037c4:	1000d51e 	bne	r2,zero,803b1c <___vfprintf_internal_r+0x1c54>
  8037c8:	b5800204 	addi	r22,r22,8
					if (expt || ndig || flags & ALT) {
  8037cc:	a800631e 	bne	r21,zero,80395c <___vfprintf_internal_r+0x1a94>
  8037d0:	d8800417 	ldw	r2,16(sp)
  8037d4:	d9000817 	ldw	r4,32(sp)
  8037d8:	1080004c 	andi	r2,r2,1
  8037dc:	1104b03a 	or	r2,r2,r4
  8037e0:	103aaf26 	beq	r2,zero,8022a0 <___vfprintf_internal_r+0x3d8>
						PRINT (decimal_point, decp_len);
  8037e4:	d8800d17 	ldw	r2,52(sp)
  8037e8:	d9000b17 	ldw	r4,44(sp)
  8037ec:	b0800015 	stw	r2,0(r22)
  8037f0:	d8801b17 	ldw	r2,108(sp)
  8037f4:	20c7883a 	add	r3,r4,r3
  8037f8:	b1000115 	stw	r4,4(r22)
  8037fc:	10800044 	addi	r2,r2,1
  803800:	d8c01c15 	stw	r3,112(sp)
  803804:	d8801b15 	stw	r2,108(sp)
  803808:	11000208 	cmpgei	r4,r2,8
  80380c:	2000e51e 	bne	r4,zero,803ba4 <___vfprintf_internal_r+0x1cdc>
  803810:	b5800204 	addi	r22,r22,8
						PRINT (cp, ndig);
  803814:	d9000817 	ldw	r4,32(sp)
  803818:	10800044 	addi	r2,r2,1
  80381c:	d8801b15 	stw	r2,108(sp)
  803820:	20c7883a 	add	r3,r4,r3
  803824:	b4400015 	stw	r17,0(r22)
  803828:	b1000115 	stw	r4,4(r22)
  80382c:	d8c01c15 	stw	r3,112(sp)
  803830:	10800208 	cmpgei	r2,r2,8
  803834:	103a9926 	beq	r2,zero,80229c <___vfprintf_internal_r+0x3d4>
  803838:	003dd006 	br	802f7c <___vfprintf_internal_r+0x10b4>
  80383c:	8825883a 	mov	r18,r17
  803840:	003aa806 	br	8022e4 <___vfprintf_internal_r+0x41c>
  803844:	880f883a 	mov	r7,r17
					PRINTANDPAD (cp, convbuf + ndig,
  803848:	10800044 	addi	r2,r2,1
  80384c:	1d47883a 	add	r3,r3,r21
  803850:	b1c00015 	stw	r7,0(r22)
  803854:	003a8c06 	br	802288 <___vfprintf_internal_r+0x3c0>
					PRINT ("0", 1);
  803858:	d9801a04 	addi	r6,sp,104
  80385c:	900b883a 	mov	r5,r18
  803860:	9809883a 	mov	r4,r19
  803864:	0809c180 	call	809c18 <__sprint_r>
  803868:	103a9e1e 	bne	r2,zero,8022e4 <___vfprintf_internal_r+0x41c>
						PRINT (decimal_point, decp_len);
  80386c:	d8c01c17 	ldw	r3,112(sp)
					PRINT ("0", 1);
  803870:	dd802704 	addi	r22,sp,156
  803874:	003ce506 	br	802c0c <___vfprintf_internal_r+0xd44>
		value = -value;
  803878:	10e0003c 	xorhi	r3,r2,32768
		*sign = '-';
  80387c:	00800b44 	movi	r2,45
  803880:	d8800605 	stb	r2,24(sp)
  803884:	003b4506 	br	80259c <___vfprintf_internal_r+0x6d4>
			} else if ((ch == 'g' || ch == 'G') && prec == 0) {
  803888:	403b3e1e 	bne	r8,zero,802584 <___vfprintf_internal_r+0x6bc>
				prec = 1;
  80388c:	02000044 	movi	r8,1
  803890:	003b3c06 	br	802584 <___vfprintf_internal_r+0x6bc>
			PAD (width - realsz, zeroes);
  803894:	d9801a04 	addi	r6,sp,104
  803898:	900b883a 	mov	r5,r18
  80389c:	9809883a 	mov	r4,r19
  8038a0:	da000e15 	stw	r8,56(sp)
  8038a4:	0809c180 	call	809c18 <__sprint_r>
  8038a8:	103a8e1e 	bne	r2,zero,8022e4 <___vfprintf_internal_r+0x41c>
			PRINT (cp, size);
  8038ac:	d8c01c17 	ldw	r3,112(sp)
			PAD (width - realsz, zeroes);
  8038b0:	da000e17 	ldw	r8,56(sp)
  8038b4:	dd802704 	addi	r22,sp,156
  8038b8:	003a6a06 	br	802264 <___vfprintf_internal_r+0x39c>
				switch (base) {
  8038bc:	10c00060 	cmpeqi	r3,r2,1
  8038c0:	2019883a 	mov	r12,r4
  8038c4:	183c5726 	beq	r3,zero,802a24 <___vfprintf_internal_r+0xb5c>
  8038c8:	003bbf06 	br	8027c8 <___vfprintf_internal_r+0x900>
				prec = DEFPREC;
  8038cc:	02000184 	movi	r8,6
  8038d0:	003b2c06 	br	802584 <___vfprintf_internal_r+0x6bc>
	digits = _DTOA_R (data, value, mode, ndigits, decpt, &dsgn, &rve);
  8038d4:	d8801804 	addi	r2,sp,96
  8038d8:	d8800315 	stw	r2,12(sp)
  8038dc:	d9400917 	ldw	r5,36(sp)
  8038e0:	d8801504 	addi	r2,sp,84
			ndigits++;
  8038e4:	42400044 	addi	r9,r8,1
	digits = _DTOA_R (data, value, mode, ndigits, decpt, &dsgn, &rve);
  8038e8:	d8800215 	stw	r2,8(sp)
  8038ec:	d8801404 	addi	r2,sp,80
  8038f0:	da400015 	stw	r9,0(sp)
  8038f4:	180d883a 	mov	r6,r3
  8038f8:	d8800115 	stw	r2,4(sp)
  8038fc:	01c00084 	movi	r7,2
  803900:	9809883a 	mov	r4,r19
  803904:	db001115 	stw	r12,68(sp)
			ndigits++;
  803908:	da000f15 	stw	r8,60(sp)
	digits = _DTOA_R (data, value, mode, ndigits, decpt, &dsgn, &rve);
  80390c:	da400815 	stw	r9,32(sp)
  803910:	d8c00715 	stw	r3,28(sp)
  803914:	08042b80 	call	8042b8 <_dtoa_r>
  803918:	d8c00717 	ldw	r3,28(sp)
  80391c:	da400817 	ldw	r9,32(sp)
  803920:	da000f17 	ldw	r8,60(sp)
  803924:	db001117 	ldw	r12,68(sp)
  803928:	1023883a 	mov	r17,r2
	if ((ch != 'g' && ch != 'G') || flags & ALT) {	/* Print trailing zeros */
  80392c:	e08011d8 	cmpnei	r2,fp,71
  803930:	103b3626 	beq	r2,zero,80260c <___vfprintf_internal_r+0x744>
		bp = digits + ndigits;
  803934:	8a53883a 	add	r9,r17,r9
		if (ch == 'f' || ch == 'F') {
  803938:	003f6506 	br	8036d0 <___vfprintf_internal_r+0x1808>
				size = strlen (cp);
  80393c:	8809883a 	mov	r4,r17
  803940:	db000415 	stw	r12,16(sp)
  803944:	d8c00615 	stw	r3,24(sp)
  803948:	0801e300 	call	801e30 <strlen>
  80394c:	db000417 	ldw	r12,16(sp)
  803950:	102b883a 	mov	r21,r2
  803954:	1029883a 	mov	r20,r2
  803958:	003a1806 	br	8021bc <___vfprintf_internal_r+0x2f4>
						PRINT (decimal_point, decp_len);
  80395c:	d8800d17 	ldw	r2,52(sp)
  803960:	d9000b17 	ldw	r4,44(sp)
  803964:	b0800015 	stw	r2,0(r22)
  803968:	d8801b17 	ldw	r2,108(sp)
  80396c:	20c7883a 	add	r3,r4,r3
  803970:	b1000115 	stw	r4,4(r22)
  803974:	10800044 	addi	r2,r2,1
  803978:	d8c01c15 	stw	r3,112(sp)
  80397c:	d8801b15 	stw	r2,108(sp)
  803980:	11000208 	cmpgei	r4,r2,8
  803984:	2000871e 	bne	r4,zero,803ba4 <___vfprintf_internal_r+0x1cdc>
  803988:	b5800204 	addi	r22,r22,8
						PAD (-expt, zeroes);
  80398c:	a83fa10e 	bge	r21,zero,803814 <___vfprintf_internal_r+0x194c>
  803990:	01c02074 	movhi	r7,129
  803994:	a93ffc08 	cmpgei	r4,r21,-16
  803998:	39cbb204 	addi	r7,r7,11976
  80399c:	056bc83a 	sub	r21,zero,r21
  8039a0:	2001021e 	bne	r4,zero,803dac <___vfprintf_internal_r+0x1ee4>
  8039a4:	dc000715 	stw	r16,28(sp)
  8039a8:	07000404 	movi	fp,16
  8039ac:	9021883a 	mov	r16,r18
  8039b0:	3825883a 	mov	r18,r7
  8039b4:	00000406 	br	8039c8 <___vfprintf_internal_r+0x1b00>
  8039b8:	b5800204 	addi	r22,r22,8
  8039bc:	ad7ffc04 	addi	r21,r21,-16
  8039c0:	a9800448 	cmpgei	r6,r21,17
  8039c4:	3000f626 	beq	r6,zero,803da0 <___vfprintf_internal_r+0x1ed8>
  8039c8:	10800044 	addi	r2,r2,1
  8039cc:	18c00404 	addi	r3,r3,16
  8039d0:	b4800015 	stw	r18,0(r22)
  8039d4:	b7000115 	stw	fp,4(r22)
  8039d8:	d8c01c15 	stw	r3,112(sp)
  8039dc:	d8801b15 	stw	r2,108(sp)
  8039e0:	11800208 	cmpgei	r6,r2,8
  8039e4:	303ff426 	beq	r6,zero,8039b8 <___vfprintf_internal_r+0x1af0>
  8039e8:	d9801a04 	addi	r6,sp,104
  8039ec:	800b883a 	mov	r5,r16
  8039f0:	9809883a 	mov	r4,r19
  8039f4:	0809c180 	call	809c18 <__sprint_r>
  8039f8:	1001071e 	bne	r2,zero,803e18 <___vfprintf_internal_r+0x1f50>
  8039fc:	d8c01c17 	ldw	r3,112(sp)
  803a00:	d8801b17 	ldw	r2,108(sp)
  803a04:	dd802704 	addi	r22,sp,156
  803a08:	003fec06 	br	8039bc <___vfprintf_internal_r+0x1af4>
						PAD (ndig - 1, zeroes);
  803a0c:	800f883a 	mov	r7,r16
  803a10:	dc000717 	ldw	r16,28(sp)
  803a14:	8817883a 	mov	r11,r17
  803a18:	aa000044 	addi	r8,r21,1
  803a1c:	e0800204 	addi	r2,fp,8
  803a20:	1ac7883a 	add	r3,r3,r11
  803a24:	e1c00015 	stw	r7,0(fp)
  803a28:	e2c00115 	stw	r11,4(fp)
  803a2c:	d8c01c15 	stw	r3,112(sp)
  803a30:	da001b15 	stw	r8,108(sp)
  803a34:	41000208 	cmpgei	r4,r8,8
  803a38:	203e821e 	bne	r4,zero,803444 <___vfprintf_internal_r+0x157c>
				PRINT (expstr, expsize);
  803a3c:	42000044 	addi	r8,r8,1
  803a40:	15800204 	addi	r22,r2,8
						PAD (ndig - 1, zeroes);
  803a44:	1039883a 	mov	fp,r2
  803a48:	003d4306 	br	802f58 <___vfprintf_internal_r+0x1090>
			_uquad = UARG ();
  803a4c:	25000017 	ldw	r20,0(r4)
  803a50:	002b883a 	mov	r21,zero
  803a54:	d8c00615 	stw	r3,24(sp)
			base = DEC;
  803a58:	00800044 	movi	r2,1
  803a5c:	003a5406 	br	8023b0 <___vfprintf_internal_r+0x4e8>
			_uquad = UARG ();
  803a60:	25000017 	ldw	r20,0(r4)
  803a64:	002b883a 	mov	r21,zero
  803a68:	d8c00615 	stw	r3,24(sp)
			base = OCT;
  803a6c:	0005883a 	mov	r2,zero
  803a70:	003a4f06 	br	8023b0 <___vfprintf_internal_r+0x4e8>
hex:			_uquad = UARG ();
  803a74:	2d000017 	ldw	r20,0(r5)
  803a78:	002b883a 	mov	r21,zero
  803a7c:	d9000615 	stw	r4,24(sp)
  803a80:	003b7906 	br	802868 <___vfprintf_internal_r+0x9a0>
			_uquad = SARG ();
  803a84:	25000017 	ldw	r20,0(r4)
  803a88:	d8c00615 	stw	r3,24(sp)
  803a8c:	a02bd7fa 	srai	r21,r20,31
			if ((quad_t)_uquad < 0)
  803a90:	a805883a 	mov	r2,r21
  803a94:	003b3f06 	br	802794 <___vfprintf_internal_r+0x8cc>
  803a98:	1805883a 	mov	r2,r3
					size = ndig + decp_len;
  803a9c:	d8c00b17 	ldw	r3,44(sp)
  803aa0:	10eb883a 	add	r21,r2,r3
					if (expt <= 0)
  803aa4:	d8800717 	ldw	r2,28(sp)
  803aa8:	0080370e 	bge	zero,r2,803b88 <___vfprintf_internal_r+0x1cc0>
		realsz = dprec > size ? dprec : size;
  803aac:	a829883a 	mov	r20,r21
  803ab0:	a8002e16 	blt	r21,zero,803b6c <___vfprintf_internal_r+0x1ca4>
  803ab4:	070019c4 	movi	fp,103
			if (softsign)
  803ab8:	d8800607 	ldb	r2,24(sp)
  803abc:	10000626 	beq	r2,zero,803ad8 <___vfprintf_internal_r+0x1c10>
				sign = '-';
  803ac0:	00800b44 	movi	r2,45
  803ac4:	d8801345 	stb	r2,77(sp)
  803ac8:	d8800e17 	ldw	r2,56(sp)
		dprec = 0;
  803acc:	0011883a 	mov	r8,zero
				sign = '-';
  803ad0:	d8800615 	stw	r2,24(sp)
  803ad4:	003b4906 	br	8027fc <___vfprintf_internal_r+0x934>
		if (sign)
  803ad8:	d8800e17 	ldw	r2,56(sp)
  803adc:	db401343 	ldbu	r13,77(sp)
		dprec = 0;
  803ae0:	0011883a 	mov	r8,zero
		if (sign)
  803ae4:	d8800615 	stw	r2,24(sp)
  803ae8:	003b4006 	br	8027ec <___vfprintf_internal_r+0x924>
  803aec:	800f883a 	mov	r7,r16
  803af0:	dc000e17 	ldw	r16,56(sp)
					PRINTANDPAD(cp, convbuf + ndig,
  803af4:	10800044 	addi	r2,r2,1
  803af8:	1d47883a 	add	r3,r3,r21
  803afc:	d8801b15 	stw	r2,108(sp)
  803b00:	b1c00015 	stw	r7,0(r22)
  803b04:	b5400115 	stw	r21,4(r22)
  803b08:	d8c01c15 	stw	r3,112(sp)
  803b0c:	10800208 	cmpgei	r2,r2,8
  803b10:	10002f1e 	bne	r2,zero,803bd0 <___vfprintf_internal_r+0x1d08>
  803b14:	b5800204 	addi	r22,r22,8
  803b18:	003d9206 	br	803164 <___vfprintf_internal_r+0x129c>
					PRINT ("0", 1);
  803b1c:	d9801a04 	addi	r6,sp,104
  803b20:	900b883a 	mov	r5,r18
  803b24:	9809883a 	mov	r4,r19
  803b28:	0809c180 	call	809c18 <__sprint_r>
  803b2c:	1039ed1e 	bne	r2,zero,8022e4 <___vfprintf_internal_r+0x41c>
					if (expt || ndig || flags & ALT) {
  803b30:	dd401417 	ldw	r21,80(sp)
						PRINT (decimal_point, decp_len);
  803b34:	d8c01c17 	ldw	r3,112(sp)
					PRINT ("0", 1);
  803b38:	dd802704 	addi	r22,sp,156
  803b3c:	003f2306 	br	8037cc <___vfprintf_internal_r+0x1904>
				size = ((unsigned) prec > 6U) ? 6 : prec;
  803b40:	05400184 	movi	r21,6
  803b44:	003e5e06 	br	8034c0 <___vfprintf_internal_r+0x15f8>
		exp = -exp;
  803b48:	00c00044 	movi	r3,1
  803b4c:	1887c83a 	sub	r3,r3,r2
		*p++ = '-';
  803b50:	00800b44 	movi	r2,45
  803b54:	d8801685 	stb	r2,90(sp)
  803b58:	003ac106 	br	802660 <___vfprintf_internal_r+0x798>
						size += decp_len;
  803b5c:	d8c00b17 	ldw	r3,44(sp)
  803b60:	10eb883a 	add	r21,r2,r3
		realsz = dprec > size ? dprec : size;
  803b64:	a829883a 	mov	r20,r21
  803b68:	a83fd20e 	bge	r21,zero,803ab4 <___vfprintf_internal_r+0x1bec>
  803b6c:	0029883a 	mov	r20,zero
  803b70:	003fd006 	br	803ab4 <___vfprintf_internal_r+0x1bec>
	FLUSH ();
  803b74:	d9801a04 	addi	r6,sp,104
  803b78:	900b883a 	mov	r5,r18
  803b7c:	9809883a 	mov	r4,r19
  803b80:	0809c180 	call	809c18 <__sprint_r>
  803b84:	0039d706 	br	8022e4 <___vfprintf_internal_r+0x41c>
						size += 1 - expt;
  803b88:	a8abc83a 	sub	r21,r21,r2
  803b8c:	ad400044 	addi	r21,r21,1
  803b90:	003fc606 	br	803aac <___vfprintf_internal_r+0x1be4>
						size = (prec || flags & ALT)
  803b94:	1000961e 	bne	r2,zero,803df0 <___vfprintf_internal_r+0x1f28>
  803b98:	05000044 	movi	r20,1
							  : 1;
  803b9c:	05400044 	movi	r21,1
					lead = expt;
  803ba0:	003fc506 	br	803ab8 <___vfprintf_internal_r+0x1bf0>
						PRINT (decimal_point, decp_len);
  803ba4:	d9801a04 	addi	r6,sp,104
  803ba8:	900b883a 	mov	r5,r18
  803bac:	9809883a 	mov	r4,r19
  803bb0:	0809c180 	call	809c18 <__sprint_r>
  803bb4:	1039cb1e 	bne	r2,zero,8022e4 <___vfprintf_internal_r+0x41c>
						PAD (-expt, zeroes);
  803bb8:	dd401417 	ldw	r21,80(sp)
						PRINT (cp, ndig);
  803bbc:	d8c01c17 	ldw	r3,112(sp)
  803bc0:	d8801b17 	ldw	r2,108(sp)
						PRINT (decimal_point, decp_len);
  803bc4:	dd802704 	addi	r22,sp,156
						PAD (-expt, zeroes);
  803bc8:	a83f120e 	bge	r21,zero,803814 <___vfprintf_internal_r+0x194c>
  803bcc:	003f7006 	br	803990 <___vfprintf_internal_r+0x1ac8>
					PRINTANDPAD(cp, convbuf + ndig,
  803bd0:	d9801a04 	addi	r6,sp,104
  803bd4:	900b883a 	mov	r5,r18
  803bd8:	9809883a 	mov	r4,r19
  803bdc:	0809c180 	call	809c18 <__sprint_r>
  803be0:	1039c01e 	bne	r2,zero,8022e4 <___vfprintf_internal_r+0x41c>
					    PRINT (decimal_point, decp_len);
  803be4:	d8c01c17 	ldw	r3,112(sp)
					PRINTANDPAD(cp, convbuf + ndig,
  803be8:	dd802704 	addi	r22,sp,156
  803bec:	003d5d06 	br	803164 <___vfprintf_internal_r+0x129c>
  803bf0:	1819883a 	mov	r12,r3
  803bf4:	003af406 	br	8027c8 <___vfprintf_internal_r+0x900>
		} while ((exp /= 10) > 9);
  803bf8:	080d6dc0 	call	80d6dc <__divsi3>
  803bfc:	003ab206 	br	8026c8 <___vfprintf_internal_r+0x800>
					    PRINT (decimal_point, decp_len);
  803c00:	d9801a04 	addi	r6,sp,104
  803c04:	900b883a 	mov	r5,r18
  803c08:	9809883a 	mov	r4,r19
  803c0c:	0809c180 	call	809c18 <__sprint_r>
  803c10:	1039b41e 	bne	r2,zero,8022e4 <___vfprintf_internal_r+0x41c>
					PRINTANDPAD (cp, convbuf + ndig,
  803c14:	dd401417 	ldw	r21,80(sp)
  803c18:	d8c01c17 	ldw	r3,112(sp)
					    PRINT (decimal_point, decp_len);
  803c1c:	dd802704 	addi	r22,sp,156
  803c20:	003d5f06 	br	8031a0 <___vfprintf_internal_r+0x12d8>
					PRINTANDPAD(cp, convbuf + ndig,
  803c24:	d9801a04 	addi	r6,sp,104
  803c28:	900b883a 	mov	r5,r18
  803c2c:	9809883a 	mov	r4,r19
  803c30:	0809c180 	call	809c18 <__sprint_r>
  803c34:	1039ab1e 	bne	r2,zero,8022e4 <___vfprintf_internal_r+0x41c>
					    PRINT (decimal_point, decp_len);
  803c38:	d8c01c17 	ldw	r3,112(sp)
					PRINTANDPAD(cp, convbuf + ndig,
  803c3c:	dd802704 	addi	r22,sp,156
  803c40:	a83d450e 	bge	r21,zero,803158 <___vfprintf_internal_r+0x1290>
  803c44:	003e1106 	br	80348c <___vfprintf_internal_r+0x15c4>
		*--t = to_char (exp);
  803c48:	10800c04 	addi	r2,r2,48
  803c4c:	a825883a 	mov	r18,r21
  803c50:	882b883a 	mov	r21,r17
  803c54:	a8bfffc5 	stb	r2,-1(r21)
  803c58:	a17fff84 	addi	r5,r20,-2
		for (; t < expbuf + MAXEXPLEN; *p++ = *t++);
  803c5c:	d88019c4 	addi	r2,sp,103
		*--t = to_char (exp);
  803c60:	db000f17 	ldw	r12,60(sp)
  803c64:	dc001017 	ldw	r16,64(sp)
  803c68:	dc400717 	ldw	r17,28(sp)
		for (; t < expbuf + MAXEXPLEN; *p++ = *t++);
  803c6c:	28806c2e 	bgeu	r5,r2,803e20 <___vfprintf_internal_r+0x1f58>
  803c70:	d8801a44 	addi	r2,sp,105
  803c74:	1529c83a 	sub	r20,r2,r20
  803c78:	d90016c4 	addi	r4,sp,91
  803c7c:	a00d883a 	mov	r6,r20
  803c80:	db000715 	stw	r12,28(sp)
  803c84:	08078fc0 	call	8078fc <memcpy>
  803c88:	d88016c4 	addi	r2,sp,91
  803c8c:	1505883a 	add	r2,r2,r20
	else {
		if (!isa)
			*p++ = '0';
		*p++ = to_char (exp);
	}
	return (p - p0);
  803c90:	d8c01644 	addi	r3,sp,89
  803c94:	db000717 	ldw	r12,28(sp)
  803c98:	10c5c83a 	sub	r2,r2,r3
  803c9c:	d8801015 	stw	r2,64(sp)
  803ca0:	1009883a 	mov	r4,r2
				if (ndig > 1 || flags & ALT)
  803ca4:	d8c00817 	ldw	r3,32(sp)
  803ca8:	18800088 	cmpgei	r2,r3,2
				size = expsize + ndig;
  803cac:	192b883a 	add	r21,r3,r4
				if (ndig > 1 || flags & ALT)
  803cb0:	10002c26 	beq	r2,zero,803d64 <___vfprintf_internal_r+0x1e9c>
					size += decp_len;
  803cb4:	d8800b17 	ldw	r2,44(sp)
  803cb8:	a8ab883a 	add	r21,r21,r2
		realsz = dprec > size ? dprec : size;
  803cbc:	a829883a 	mov	r20,r21
  803cc0:	a800010e 	bge	r21,zero,803cc8 <___vfprintf_internal_r+0x1e00>
  803cc4:	0029883a 	mov	r20,zero
		lead = 0;
  803cc8:	d8000715 	stw	zero,28(sp)
  803ccc:	003f7a06 	br	803ab8 <___vfprintf_internal_r+0x1bf0>
					PRINTANDPAD (cp, convbuf + ndig,
  803cd0:	d9801a04 	addi	r6,sp,104
  803cd4:	900b883a 	mov	r5,r18
  803cd8:	9809883a 	mov	r4,r19
  803cdc:	0809c180 	call	809c18 <__sprint_r>
  803ce0:	1039801e 	bne	r2,zero,8022e4 <___vfprintf_internal_r+0x41c>
  803ce4:	d8801417 	ldw	r2,80(sp)
  803ce8:	d9000817 	ldw	r4,32(sp)
		FLUSH ();	/* copy out the I/O vectors */
  803cec:	d8c01c17 	ldw	r3,112(sp)
					PRINTANDPAD (cp, convbuf + ndig,
  803cf0:	dd802704 	addi	r22,sp,156
  803cf4:	2085c83a 	sub	r2,r4,r2
  803cf8:	003d3d06 	br	8031f0 <___vfprintf_internal_r+0x1328>
			*p++ = '0';
  803cfc:	00800c04 	movi	r2,48
		*p++ = to_char (exp);
  803d00:	18c00c04 	addi	r3,r3,48
			*p++ = '0';
  803d04:	d88016c5 	stb	r2,91(sp)
		*p++ = to_char (exp);
  803d08:	00800104 	movi	r2,4
  803d0c:	d8c01705 	stb	r3,92(sp)
  803d10:	d8801015 	stw	r2,64(sp)
  803d14:	1009883a 	mov	r4,r2
  803d18:	003fe206 	br	803ca4 <___vfprintf_internal_r+0x1ddc>
			if (*digits == '0' && value)
  803d1c:	d9000917 	ldw	r4,36(sp)
  803d20:	180b883a 	mov	r5,r3
  803d24:	000d883a 	mov	r6,zero
  803d28:	000f883a 	mov	r7,zero
  803d2c:	da401115 	stw	r9,68(sp)
  803d30:	da000f15 	stw	r8,60(sp)
  803d34:	db000815 	stw	r12,32(sp)
  803d38:	d8c00715 	stw	r3,28(sp)
  803d3c:	080ead80 	call	80ead8 <__eqdf2>
  803d40:	d8c00717 	ldw	r3,28(sp)
  803d44:	db000817 	ldw	r12,32(sp)
  803d48:	da000f17 	ldw	r8,60(sp)
  803d4c:	da401117 	ldw	r9,68(sp)
  803d50:	103e5d26 	beq	r2,zero,8036c8 <___vfprintf_internal_r+0x1800>
				*decpt = -ndigits + 1;
  803d54:	00800044 	movi	r2,1
  803d58:	1205c83a 	sub	r2,r2,r8
  803d5c:	d8801415 	stw	r2,80(sp)
  803d60:	003e5a06 	br	8036cc <___vfprintf_internal_r+0x1804>
  803d64:	6080004c 	andi	r2,r12,1
  803d68:	d8800715 	stw	r2,28(sp)
				if (ndig > 1 || flags & ALT)
  803d6c:	103fd11e 	bne	r2,zero,803cb4 <___vfprintf_internal_r+0x1dec>
		realsz = dprec > size ? dprec : size;
  803d70:	a829883a 	mov	r20,r21
  803d74:	a83f500e 	bge	r21,zero,803ab8 <___vfprintf_internal_r+0x1bf0>
  803d78:	0029883a 	mov	r20,zero
							  : 1;
  803d7c:	003f4e06 	br	803ab8 <___vfprintf_internal_r+0x1bf0>
  803d80:	4029883a 	mov	r20,r8
			cp = GET_ARG (N, ap, char_ptr_t);
  803d84:	d8c00615 	stw	r3,24(sp)
  803d88:	402b883a 	mov	r21,r8
  803d8c:	00390b06 	br	8021bc <___vfprintf_internal_r+0x2f4>
							size += prec + decp_len;
  803d90:	d8800b17 	ldw	r2,44(sp)
  803d94:	18ab883a 	add	r21,r3,r2
  803d98:	aa2b883a 	add	r21,r21,r8
  803d9c:	003ff406 	br	803d70 <___vfprintf_internal_r+0x1ea8>
  803da0:	900f883a 	mov	r7,r18
  803da4:	8025883a 	mov	r18,r16
  803da8:	dc000717 	ldw	r16,28(sp)
						PAD (-expt, zeroes);
  803dac:	10800044 	addi	r2,r2,1
  803db0:	1d47883a 	add	r3,r3,r21
  803db4:	b1c00015 	stw	r7,0(r22)
  803db8:	b5400115 	stw	r21,4(r22)
  803dbc:	d8c01c15 	stw	r3,112(sp)
  803dc0:	d8801b15 	stw	r2,108(sp)
  803dc4:	11000208 	cmpgei	r4,r2,8
  803dc8:	203e9126 	beq	r4,zero,803810 <___vfprintf_internal_r+0x1948>
  803dcc:	d9801a04 	addi	r6,sp,104
  803dd0:	900b883a 	mov	r5,r18
  803dd4:	9809883a 	mov	r4,r19
  803dd8:	0809c180 	call	809c18 <__sprint_r>
  803ddc:	1039411e 	bne	r2,zero,8022e4 <___vfprintf_internal_r+0x41c>
						PRINT (cp, ndig);
  803de0:	d8c01c17 	ldw	r3,112(sp)
  803de4:	d8801b17 	ldw	r2,108(sp)
						PAD (-expt, zeroes);
  803de8:	dd802704 	addi	r22,sp,156
  803dec:	003e8906 	br	803814 <___vfprintf_internal_r+0x194c>
							  ? prec + 1 + decp_len
  803df0:	d8800b17 	ldw	r2,44(sp)
  803df4:	15400044 	addi	r21,r2,1
  803df8:	aa2b883a 	add	r21,r21,r8
  803dfc:	003fdc06 	br	803d70 <___vfprintf_internal_r+0x1ea8>
		return (EOF);
  803e00:	00bfffc4 	movi	r2,-1
  803e04:	d8800515 	stw	r2,20(sp)
  803e08:	00393906 	br	8022f0 <___vfprintf_internal_r+0x428>
						PAD (ndig - 1, zeroes);
  803e0c:	b005883a 	mov	r2,r22
  803e10:	39cbb204 	addi	r7,r7,11976
  803e14:	003f0206 	br	803a20 <___vfprintf_internal_r+0x1b58>
  803e18:	8025883a 	mov	r18,r16
  803e1c:	00393106 	br	8022e4 <___vfprintf_internal_r+0x41c>
		for (; t < expbuf + MAXEXPLEN; *p++ = *t++);
  803e20:	00800084 	movi	r2,2
  803e24:	d8801015 	stw	r2,64(sp)
  803e28:	1009883a 	mov	r4,r2
  803e2c:	003f9d06 	br	803ca4 <___vfprintf_internal_r+0x1ddc>
				prec = GET_ARG (n, ap, int);
  803e30:	d8c00617 	ldw	r3,24(sp)
  803e34:	1a000017 	ldw	r8,0(r3)
  803e38:	18c00104 	addi	r3,r3,4
				if (prec < 0)
  803e3c:	4000010e 	bge	r8,zero,803e44 <___vfprintf_internal_r+0x1f7c>
  803e40:	023fffc4 	movi	r8,-1
rflag:		ch = *fmt++;
  803e44:	bf000043 	ldbu	fp,1(r23)
				prec = GET_ARG (n, ap, int);
  803e48:	d8c00615 	stw	r3,24(sp)
			if ((ch = *fmt++) == '*') {
  803e4c:	102f883a 	mov	r23,r2
  803e50:	e2c03fcc 	andi	r11,fp,255
  803e54:	5ac0201c 	xori	r11,r11,128
  803e58:	5affe004 	addi	r11,r11,-128
				goto rflag;
  803e5c:	00385f06 	br	801fdc <___vfprintf_internal_r+0x114>

00803e60 <__vfprintf_internal>:
{
  803e60:	2005883a 	mov	r2,r4
  result = _VFPRINTF_R (_REENT, fp, fmt0, ap);
  803e64:	d1200917 	ldw	r4,-32732(gp)
  803e68:	300f883a 	mov	r7,r6
  803e6c:	280d883a 	mov	r6,r5
  803e70:	100b883a 	mov	r5,r2
  803e74:	0801ec81 	jmpi	801ec8 <___vfprintf_internal_r>

00803e78 <__sbprintf>:
	fake._flags = fp->_flags & ~__SNBF;
  803e78:	2880030b 	ldhu	r2,12(r5)
	fake._flags2 = fp->_flags2;
  803e7c:	2b001917 	ldw	r12,100(r5)
	fake._file = fp->_file;
  803e80:	2ac0038b 	ldhu	r11,14(r5)
	fake._cookie = fp->_cookie;
  803e84:	2a800717 	ldw	r10,28(r5)
	fake._write = fp->_write;
  803e88:	2a400917 	ldw	r9,36(r5)
{
  803e8c:	defee204 	addi	sp,sp,-1144
	fake._bf._base = fake._p = buf;
  803e90:	da001a04 	addi	r8,sp,104
	fake._bf._size = fake._w = sizeof (buf);
  803e94:	00c10004 	movi	r3,1024
{
  803e98:	dc011a15 	stw	r16,1128(sp)
	fake._flags = fp->_flags & ~__SNBF;
  803e9c:	10bfff4c 	andi	r2,r2,65533
{
  803ea0:	2821883a 	mov	r16,r5
	ret = _VFPRINTF_R (rptr, &fake, fmt, ap);
  803ea4:	d80b883a 	mov	r5,sp
{
  803ea8:	dc811c15 	stw	r18,1136(sp)
  803eac:	dc411b15 	stw	r17,1132(sp)
  803eb0:	dfc11d15 	stw	ra,1140(sp)
  803eb4:	2025883a 	mov	r18,r4
	fake._flags = fp->_flags & ~__SNBF;
  803eb8:	d880030d 	sth	r2,12(sp)
	fake._flags2 = fp->_flags2;
  803ebc:	db001915 	stw	r12,100(sp)
	fake._file = fp->_file;
  803ec0:	dac0038d 	sth	r11,14(sp)
	fake._cookie = fp->_cookie;
  803ec4:	da800715 	stw	r10,28(sp)
	fake._write = fp->_write;
  803ec8:	da400915 	stw	r9,36(sp)
	fake._bf._base = fake._p = buf;
  803ecc:	da000015 	stw	r8,0(sp)
  803ed0:	da000415 	stw	r8,16(sp)
	fake._bf._size = fake._w = sizeof (buf);
  803ed4:	d8c00215 	stw	r3,8(sp)
  803ed8:	d8c00515 	stw	r3,20(sp)
	fake._lbfsize = 0;	/* not actually used, but Just In Case */
  803edc:	d8000615 	stw	zero,24(sp)
	ret = _VFPRINTF_R (rptr, &fake, fmt, ap);
  803ee0:	0801ec80 	call	801ec8 <___vfprintf_internal_r>
  803ee4:	1023883a 	mov	r17,r2
	if (ret >= 0 && _fflush_r (rptr, &fake))
  803ee8:	10000d0e 	bge	r2,zero,803f20 <__sbprintf+0xa8>
	if (fake._flags & __SERR)
  803eec:	d880030b 	ldhu	r2,12(sp)
  803ef0:	1080100c 	andi	r2,r2,64
  803ef4:	10000326 	beq	r2,zero,803f04 <__sbprintf+0x8c>
		fp->_flags |= __SERR;
  803ef8:	8080030b 	ldhu	r2,12(r16)
  803efc:	10801014 	ori	r2,r2,64
  803f00:	8080030d 	sth	r2,12(r16)
}
  803f04:	8805883a 	mov	r2,r17
  803f08:	dfc11d17 	ldw	ra,1140(sp)
  803f0c:	dc811c17 	ldw	r18,1136(sp)
  803f10:	dc411b17 	ldw	r17,1132(sp)
  803f14:	dc011a17 	ldw	r16,1128(sp)
  803f18:	dec11e04 	addi	sp,sp,1144
  803f1c:	f800283a 	ret
	if (ret >= 0 && _fflush_r (rptr, &fake))
  803f20:	d80b883a 	mov	r5,sp
  803f24:	9009883a 	mov	r4,r18
  803f28:	0805cbc0 	call	805cbc <_fflush_r>
  803f2c:	103fef26 	beq	r2,zero,803eec <__sbprintf+0x74>
		ret = EOF;
  803f30:	047fffc4 	movi	r17,-1
  803f34:	003fed06 	br	803eec <__sbprintf+0x74>

00803f38 <__swsetup_r>:
__swsetup_r (struct _reent *ptr,
       register FILE * fp)
{
  /* Make sure stdio is set up.  */

  CHECK_INIT (_REENT, fp);
  803f38:	d0a00917 	ldw	r2,-32732(gp)
{
  803f3c:	defffd04 	addi	sp,sp,-12
  803f40:	dc400115 	stw	r17,4(sp)
  803f44:	dc000015 	stw	r16,0(sp)
  803f48:	dfc00215 	stw	ra,8(sp)
  803f4c:	2023883a 	mov	r17,r4
  803f50:	2821883a 	mov	r16,r5
  CHECK_INIT (_REENT, fp);
  803f54:	10000226 	beq	r2,zero,803f60 <__swsetup_r+0x28>
  803f58:	10c00e17 	ldw	r3,56(r2)
  803f5c:	18001f26 	beq	r3,zero,803fdc <__swsetup_r+0xa4>

  /*
   * If we are not writing, we had better be reading and writing.
   */

  if ((fp->_flags & __SWR) == 0)
  803f60:	8180030b 	ldhu	r6,12(r16)
  803f64:	30c0020c 	andi	r3,r6,8
  803f68:	3005883a 	mov	r2,r6
  803f6c:	18002126 	beq	r3,zero,803ff4 <__swsetup_r+0xbc>
  /*
   * Make a buffer if necessary, then set _w.
   * A string I/O file should not explicitly allocate a buffer
   * unless asprintf is being used.
   */
  if (fp->_bf._base == NULL
  803f70:	80c00417 	ldw	r3,16(r16)
  803f74:	18002826 	beq	r3,zero,804018 <__swsetup_r+0xe0>
        && (!(fp->_flags & __SSTR) || (fp->_flags & __SMBF)))
    __smakebuf_r (ptr, fp);

  if (fp->_flags & __SLBF)
  803f78:	1100004c 	andi	r4,r2,1
  803f7c:	20000b1e 	bne	r4,zero,803fac <__swsetup_r+0x74>
       */
      fp->_w = 0;
      fp->_lbfsize = -fp->_bf._size;
    }
  else
    fp->_w = fp->_flags & __SNBF ? 0 : fp->_bf._size;
  803f80:	1100008c 	andi	r4,r2,2
  803f84:	20002e1e 	bne	r4,zero,804040 <__swsetup_r+0x108>
  803f88:	81000517 	ldw	r4,20(r16)
  803f8c:	81000215 	stw	r4,8(r16)

  if (!fp->_bf._base && (fp->_flags & __SMBF))
  803f90:	18000b26 	beq	r3,zero,803fc0 <__swsetup_r+0x88>
    {
      /* __smakebuf_r set errno, but not flag */
      fp->_flags |= __SERR;
      return EOF;
    }
  return 0;
  803f94:	0005883a 	mov	r2,zero
}
  803f98:	dfc00217 	ldw	ra,8(sp)
  803f9c:	dc400117 	ldw	r17,4(sp)
  803fa0:	dc000017 	ldw	r16,0(sp)
  803fa4:	dec00304 	addi	sp,sp,12
  803fa8:	f800283a 	ret
      fp->_lbfsize = -fp->_bf._size;
  803fac:	81000517 	ldw	r4,20(r16)
      fp->_w = 0;
  803fb0:	80000215 	stw	zero,8(r16)
      fp->_lbfsize = -fp->_bf._size;
  803fb4:	0109c83a 	sub	r4,zero,r4
  803fb8:	81000615 	stw	r4,24(r16)
  if (!fp->_bf._base && (fp->_flags & __SMBF))
  803fbc:	183ff51e 	bne	r3,zero,803f94 <__swsetup_r+0x5c>
  803fc0:	10c0200c 	andi	r3,r2,128
  return 0;
  803fc4:	0005883a 	mov	r2,zero
  if (!fp->_bf._base && (fp->_flags & __SMBF))
  803fc8:	183ff326 	beq	r3,zero,803f98 <__swsetup_r+0x60>
      fp->_flags |= __SERR;
  803fcc:	31801014 	ori	r6,r6,64
  803fd0:	8180030d 	sth	r6,12(r16)
      return EOF;
  803fd4:	00bfffc4 	movi	r2,-1
  803fd8:	003fef06 	br	803f98 <__swsetup_r+0x60>
  CHECK_INIT (_REENT, fp);
  803fdc:	1009883a 	mov	r4,r2
  803fe0:	08060e80 	call	8060e8 <__sinit>
  if ((fp->_flags & __SWR) == 0)
  803fe4:	8180030b 	ldhu	r6,12(r16)
  803fe8:	30c0020c 	andi	r3,r6,8
  803fec:	3005883a 	mov	r2,r6
  803ff0:	183fdf1e 	bne	r3,zero,803f70 <__swsetup_r+0x38>
      if ((fp->_flags & __SRW) == 0)
  803ff4:	3080040c 	andi	r2,r6,16
  803ff8:	10002126 	beq	r2,zero,804080 <__swsetup_r+0x148>
      if (fp->_flags & __SRD)
  803ffc:	3080010c 	andi	r2,r6,4
  804000:	1000111e 	bne	r2,zero,804048 <__swsetup_r+0x110>
  if (fp->_bf._base == NULL
  804004:	80c00417 	ldw	r3,16(r16)
      fp->_flags |= __SWR;
  804008:	30800214 	ori	r2,r6,8
  80400c:	8080030d 	sth	r2,12(r16)
  804010:	100d883a 	mov	r6,r2
  if (fp->_bf._base == NULL
  804014:	183fd81e 	bne	r3,zero,803f78 <__swsetup_r+0x40>
        && (!(fp->_flags & __SSTR) || (fp->_flags & __SMBF)))
  804018:	1100a00c 	andi	r4,r2,640
  80401c:	21008020 	cmpeqi	r4,r4,512
  804020:	203fd51e 	bne	r4,zero,803f78 <__swsetup_r+0x40>
    __smakebuf_r (ptr, fp);
  804024:	800b883a 	mov	r5,r16
  804028:	8809883a 	mov	r4,r17
  80402c:	0806dd80 	call	806dd8 <__smakebuf_r>
  if (fp->_flags & __SLBF)
  804030:	8180030b 	ldhu	r6,12(r16)
  if (!fp->_bf._base && (fp->_flags & __SMBF))
  804034:	80c00417 	ldw	r3,16(r16)
  if (fp->_flags & __SLBF)
  804038:	3005883a 	mov	r2,r6
  80403c:	003fce06 	br	803f78 <__swsetup_r+0x40>
    fp->_w = fp->_flags & __SNBF ? 0 : fp->_bf._size;
  804040:	0009883a 	mov	r4,zero
  804044:	003fd106 	br	803f8c <__swsetup_r+0x54>
	  if (HASUB (fp))
  804048:	81400c17 	ldw	r5,48(r16)
  80404c:	28000626 	beq	r5,zero,804068 <__swsetup_r+0x130>
	    FREEUB (ptr, fp);
  804050:	80801004 	addi	r2,r16,64
  804054:	28800326 	beq	r5,r2,804064 <__swsetup_r+0x12c>
  804058:	8809883a 	mov	r4,r17
  80405c:	08063a00 	call	8063a0 <_free_r>
	  fp->_flags &= ~(__SRD | __SEOF);
  804060:	8180030b 	ldhu	r6,12(r16)
	    FREEUB (ptr, fp);
  804064:	80000c15 	stw	zero,48(r16)
	  fp->_p = fp->_bf._base;
  804068:	80c00417 	ldw	r3,16(r16)
	  fp->_flags &= ~(__SRD | __SEOF);
  80406c:	00bff6c4 	movi	r2,-37
  804070:	118c703a 	and	r6,r2,r6
	  fp->_r = 0;
  804074:	80000115 	stw	zero,4(r16)
	  fp->_p = fp->_bf._base;
  804078:	80c00015 	stw	r3,0(r16)
  80407c:	003fe206 	br	804008 <__swsetup_r+0xd0>
	  ptr->_errno = EBADF;
  804080:	00800244 	movi	r2,9
  804084:	88800015 	stw	r2,0(r17)
	  fp->_flags |= __SERR;
  804088:	31801014 	ori	r6,r6,64
  80408c:	8180030d 	sth	r6,12(r16)
	  return EOF;
  804090:	00bfffc4 	movi	r2,-1
  804094:	003fc006 	br	803f98 <__swsetup_r+0x60>

00804098 <quorem>:
#include <string.h>
#include "mprec.h"

static int
quorem (_Bigint * b, _Bigint * S)
{
  804098:	defff204 	addi	sp,sp,-56
  80409c:	dc400515 	stw	r17,20(sp)
  n = S->_wds;
#ifdef DEBUG
  /*debug*/ if (b->_wds > n)
    /*debug*/ Bug ("oversize b in quorem");
#endif
  if (b->_wds < n)
  8040a0:	20800417 	ldw	r2,16(r4)
  n = S->_wds;
  8040a4:	2c400417 	ldw	r17,16(r5)
{
  8040a8:	dfc00d15 	stw	ra,52(sp)
  8040ac:	df000c15 	stw	fp,48(sp)
  8040b0:	ddc00b15 	stw	r23,44(sp)
  8040b4:	dd800a15 	stw	r22,40(sp)
  8040b8:	dd400915 	stw	r21,36(sp)
  8040bc:	dd000815 	stw	r20,32(sp)
  8040c0:	dcc00715 	stw	r19,28(sp)
  8040c4:	dc800615 	stw	r18,24(sp)
  8040c8:	dc000415 	stw	r16,16(sp)
  8040cc:	d9000115 	stw	r4,4(sp)
  8040d0:	d9400215 	stw	r5,8(sp)
  if (b->_wds < n)
  8040d4:	14407616 	blt	r2,r17,8042b0 <quorem+0x218>
    return 0;
  sx = S->_x;
  sxe = sx + --n;
  8040d8:	8c7fffc4 	addi	r17,r17,-1
  8040dc:	882a90ba 	slli	r21,r17,2
  sx = S->_x;
  8040e0:	2f000504 	addi	fp,r5,20
  bx = b->_x;
  8040e4:	25800504 	addi	r22,r4,20
  sxe = sx + --n;
  8040e8:	e565883a 	add	r18,fp,r21
  bxe = bx + n;
  8040ec:	b545883a 	add	r2,r22,r21
  q = *bxe / (*sxe + 1);	/* ensure q <= true quotient */
  8040f0:	95c00017 	ldw	r23,0(r18)
  8040f4:	15000017 	ldw	r20,0(r2)
  bx = b->_x;
  8040f8:	dd800015 	stw	r22,0(sp)
  q = *bxe / (*sxe + 1);	/* ensure q <= true quotient */
  8040fc:	bdc00044 	addi	r23,r23,1
  804100:	b80b883a 	mov	r5,r23
  804104:	a009883a 	mov	r4,r20
  bxe = bx + n;
  804108:	d8800315 	stw	r2,12(sp)
  q = *bxe / (*sxe + 1);	/* ensure q <= true quotient */
  80410c:	080d7d00 	call	80d7d0 <__udivsi3>
  804110:	1021883a 	mov	r16,r2
#ifdef DEBUG
  /*debug*/ if (q > 9)
    /*debug*/ Bug ("oversized quotient in quorem");
#endif
  if (q)
  804114:	a5c02f36 	bltu	r20,r23,8041d4 <quorem+0x13c>
  sx = S->_x;
  804118:	e029883a 	mov	r20,fp
    {
      borrow = 0;
      carry = 0;
  80411c:	002b883a 	mov	r21,zero
      borrow = 0;
  804120:	002f883a 	mov	r23,zero
      do
	{
#ifdef Pack_32
	  si = *sx++;
  804124:	a4c00017 	ldw	r19,0(r20)
	  ys = (si & 0xffff) * q + carry;
  804128:	800b883a 	mov	r5,r16
	  borrow = y >> 16;
	  Sign_Extend (borrow, y);
	  z = (*bx >> 16) - (zs & 0xffff) + borrow;
	  borrow = z >> 16;
	  Sign_Extend (borrow, z);
	  Storeinc (bx, z, y);
  80412c:	b5800104 	addi	r22,r22,4
	  ys = (si & 0xffff) * q + carry;
  804130:	993fffcc 	andi	r4,r19,65535
  804134:	080d8900 	call	80d890 <__mulsi3>
	  zs = (si >> 16) * q + (ys >> 16);
  804138:	9808d43a 	srli	r4,r19,16
  80413c:	800b883a 	mov	r5,r16
	  ys = (si & 0xffff) * q + carry;
  804140:	156b883a 	add	r21,r2,r21
	  zs = (si >> 16) * q + (ys >> 16);
  804144:	080d8900 	call	80d890 <__mulsi3>
	  y = (*bx & 0xffff) - (ys & 0xffff) + borrow;
  804148:	b0ffff17 	ldw	r3,-4(r22)
	  zs = (si >> 16) * q + (ys >> 16);
  80414c:	a80ad43a 	srli	r5,r21,16
	  y = (*bx & 0xffff) - (ys & 0xffff) + borrow;
  804150:	a93fffcc 	andi	r4,r21,65535
  804154:	19bfffcc 	andi	r6,r3,65535
  804158:	b909c83a 	sub	r4,r23,r4
  80415c:	2189883a 	add	r4,r4,r6
	  z = (*bx >> 16) - (zs & 0xffff) + borrow;
  804160:	1806d43a 	srli	r3,r3,16
	  zs = (si >> 16) * q + (ys >> 16);
  804164:	1145883a 	add	r2,r2,r5
	  borrow = y >> 16;
  804168:	200bd43a 	srai	r5,r4,16
	  z = (*bx >> 16) - (zs & 0xffff) + borrow;
  80416c:	11bfffcc 	andi	r6,r2,65535
  804170:	1987c83a 	sub	r3,r3,r6
  804174:	1947883a 	add	r3,r3,r5
	  Storeinc (bx, z, y);
  804178:	180a943a 	slli	r5,r3,16
  80417c:	213fffcc 	andi	r4,r4,65535
	  si = *sx++;
  804180:	a5000104 	addi	r20,r20,4
	  Storeinc (bx, z, y);
  804184:	2908b03a 	or	r4,r5,r4
  804188:	b13fff15 	stw	r4,-4(r22)
	  carry = zs >> 16;
  80418c:	102ad43a 	srli	r21,r2,16
	  borrow = z >> 16;
  804190:	182fd43a 	srai	r23,r3,16
	  borrow = y >> 16;
	  Sign_Extend (borrow, y);
	  *bx++ = y & 0xffff;
#endif
	}
      while (sx <= sxe);
  804194:	953fe32e 	bgeu	r18,r20,804124 <quorem+0x8c>
      if (!*bxe)
  804198:	d8c00317 	ldw	r3,12(sp)
  80419c:	18800017 	ldw	r2,0(r3)
  8041a0:	10000c1e 	bne	r2,zero,8041d4 <quorem+0x13c>
	{
	  bx = b->_x;
	  while (--bxe > bx && !*bxe)
  8041a4:	d8800017 	ldw	r2,0(sp)
  8041a8:	1d7fff04 	addi	r21,r3,-4
  8041ac:	15400436 	bltu	r2,r21,8041c0 <quorem+0x128>
  8041b0:	00000606 	br	8041cc <quorem+0x134>
  8041b4:	d8800017 	ldw	r2,0(sp)
	    --n;
  8041b8:	8c7fffc4 	addi	r17,r17,-1
	  while (--bxe > bx && !*bxe)
  8041bc:	1540032e 	bgeu	r2,r21,8041cc <quorem+0x134>
  8041c0:	a8800017 	ldw	r2,0(r21)
  8041c4:	ad7fff04 	addi	r21,r21,-4
  8041c8:	103ffa26 	beq	r2,zero,8041b4 <quorem+0x11c>
	  b->_wds = n;
  8041cc:	d8800117 	ldw	r2,4(sp)
  8041d0:	14400415 	stw	r17,16(r2)
	}
    }
  if (cmp (b, S) >= 0)
  8041d4:	d9400217 	ldw	r5,8(sp)
  8041d8:	d9000117 	ldw	r4,4(sp)
  8041dc:	08089140 	call	808914 <__mcmp>
  8041e0:	10002616 	blt	r2,zero,80427c <quorem+0x1e4>
  bx = b->_x;
  8041e4:	d9400017 	ldw	r5,0(sp)
    {
      q++;
  8041e8:	84000044 	addi	r16,r16,1
      borrow = 0;
  8041ec:	0007883a 	mov	r3,zero
      bx = b->_x;
      sx = S->_x;
      do
	{
#ifdef Pack_32
	  si = *sx++;
  8041f0:	e1000017 	ldw	r4,0(fp)
	  ys = (si & 0xffff) + carry;
	  zs = (si >> 16) + (ys >> 16);
	  carry = zs >> 16;
	  y = (*bx & 0xffff) - (ys & 0xffff) + borrow;
  8041f4:	29800017 	ldw	r6,0(r5)
	  borrow = y >> 16;
	  Sign_Extend (borrow, y);
	  z = (*bx >> 16) - (zs & 0xffff) + borrow;
	  borrow = z >> 16;
	  Sign_Extend (borrow, z);
	  Storeinc (bx, z, y);
  8041f8:	29400104 	addi	r5,r5,4
	  ys = (si & 0xffff) + carry;
  8041fc:	20bfffcc 	andi	r2,r4,65535
	  y = (*bx & 0xffff) - (ys & 0xffff) + borrow;
  804200:	1887c83a 	sub	r3,r3,r2
  804204:	30bfffcc 	andi	r2,r6,65535
  804208:	1885883a 	add	r2,r3,r2
	  zs = (si >> 16) + (ys >> 16);
  80420c:	2008d43a 	srli	r4,r4,16
	  z = (*bx >> 16) - (zs & 0xffff) + borrow;
  804210:	3006d43a 	srli	r3,r6,16
	  borrow = y >> 16;
  804214:	100fd43a 	srai	r7,r2,16
	  Storeinc (bx, z, y);
  804218:	11bfffcc 	andi	r6,r2,65535
	  z = (*bx >> 16) - (zs & 0xffff) + borrow;
  80421c:	1907c83a 	sub	r3,r3,r4
  804220:	19c7883a 	add	r3,r3,r7
	  Storeinc (bx, z, y);
  804224:	1804943a 	slli	r2,r3,16
	  si = *sx++;
  804228:	e7000104 	addi	fp,fp,4
	  borrow = z >> 16;
  80422c:	1807d43a 	srai	r3,r3,16
	  Storeinc (bx, z, y);
  804230:	1184b03a 	or	r2,r2,r6
  804234:	28bfff15 	stw	r2,-4(r5)
	  borrow = y >> 16;
	  Sign_Extend (borrow, y);
	  *bx++ = y & 0xffff;
#endif
	}
      while (sx <= sxe);
  804238:	973fed2e 	bgeu	r18,fp,8041f0 <quorem+0x158>
      bx = b->_x;
      bxe = bx + n;
  80423c:	880490ba 	slli	r2,r17,2
  804240:	d9000017 	ldw	r4,0(sp)
  804244:	2085883a 	add	r2,r4,r2
      if (!*bxe)
  804248:	10c00017 	ldw	r3,0(r2)
  80424c:	18000b1e 	bne	r3,zero,80427c <quorem+0x1e4>
	{
	  while (--bxe > bx && !*bxe)
  804250:	10bfff04 	addi	r2,r2,-4
  804254:	20800436 	bltu	r4,r2,804268 <quorem+0x1d0>
  804258:	00000606 	br	804274 <quorem+0x1dc>
  80425c:	d8c00017 	ldw	r3,0(sp)
	    --n;
  804260:	8c7fffc4 	addi	r17,r17,-1
	  while (--bxe > bx && !*bxe)
  804264:	1880032e 	bgeu	r3,r2,804274 <quorem+0x1dc>
  804268:	10c00017 	ldw	r3,0(r2)
  80426c:	10bfff04 	addi	r2,r2,-4
  804270:	183ffa26 	beq	r3,zero,80425c <quorem+0x1c4>
	  b->_wds = n;
  804274:	d8800117 	ldw	r2,4(sp)
  804278:	14400415 	stw	r17,16(r2)
	}
    }
  return q;
  80427c:	8005883a 	mov	r2,r16
}
  804280:	dfc00d17 	ldw	ra,52(sp)
  804284:	df000c17 	ldw	fp,48(sp)
  804288:	ddc00b17 	ldw	r23,44(sp)
  80428c:	dd800a17 	ldw	r22,40(sp)
  804290:	dd400917 	ldw	r21,36(sp)
  804294:	dd000817 	ldw	r20,32(sp)
  804298:	dcc00717 	ldw	r19,28(sp)
  80429c:	dc800617 	ldw	r18,24(sp)
  8042a0:	dc400517 	ldw	r17,20(sp)
  8042a4:	dc000417 	ldw	r16,16(sp)
